 canvas

 Timestamp is 5aeb776b (Thu May  3 13:56:11 2018)

 Preferred load address is 0000000180000000

 Start         Length     Name                   Class
 0001:00000000 00000490H .text                   CODE
 0001:00000490 000000e0H .text$di                CODE
 0001:00000570 0002efd0H .text$mn                CODE
 0001:0002f540 000002a0H .text$mn$00             CODE
 0001:0002f7e0 00000900H .text$x                 CODE
 0001:000300e0 000000d1H .text$yd                CODE
 0002:00000000 00000758H .idata$5                DATA
 0002:00000758 00000020H .00cfg                  DATA
 0002:00000778 00000008H .CRT$XCA                DATA
 0002:00000780 00000040H .CRT$XCU                DATA
 0002:000007c0 00000008H .CRT$XCZ                DATA
 0002:000007c8 00000008H .CRT$XIA                DATA
 0002:000007d0 00000020H .CRT$XIC                DATA
 0002:000007f0 00000008H .CRT$XIZ                DATA
 0002:000007f8 00000008H .CRT$XPA                DATA
 0002:00000800 00000010H .CRT$XPX                DATA
 0002:00000810 00000008H .CRT$XPXA               DATA
 0002:00000818 00000008H .CRT$XPZ                DATA
 0002:00000820 00000008H .CRT$XTA                DATA
 0002:00000828 00000008H .CRT$XTZ                DATA
 0002:00000830 00000000H .gfids$y                DATA
 0002:00000830 0000b890H .rdata                  DATA
 0002:0000c0c0 0000037cH .rdata$r                DATA
 0002:0000c43c 0000040cH .rdata$zzzdbg           DATA
 0002:0000c848 00000008H .rtc$IAA                DATA
 0002:0000c850 00000008H .rtc$IZZ                DATA
 0002:0000c858 00000008H .rtc$TAA                DATA
 0002:0000c860 00000010H .rtc$TZZ                DATA
 0002:0000c870 00003130H .xdata                  DATA
 0002:0000f9a0 000001dcH .xdata$x                DATA
 0002:0000fb7c 00000020H .didat$2                DATA
 0002:0000fb9c 00000024H .didat$3                DATA
 0002:0000fbc0 00000310H .didat$4                DATA
 0002:0000fed0 000018e0H .didat$6                DATA
 0002:000117b0 00000310H .didat$7                DATA
 0002:00011ac0 00000050H .edata                  DATA
 0002:00011b10 00000078H .idata$2                DATA
 0002:00011b88 00000018H .idata$3                DATA
 0002:00011ba0 00000758H .idata$4                DATA
 0002:000122f8 00001360H .idata$6                DATA
 0002:00013658 00000290H .idata$7                DATA
 0003:00000000 00000b20H .data                   DATA
 0003:00000b20 00000118H .data$r                 DATA
 0003:00000c38 00000318H .didat$5                DATA
 0003:00000f50 0000132cH .bss                    DATA
 0004:00000000 000027c0H .pdata                  DATA
 0005:00000000 00000060H .rsrc$01                DATA
 0005:00000060 00000180H .rsrc$02                DATA

  Address         Publics by Value              Rva+Base               Lib:Object

 0000:00000000       __dynamic_value_reloc_table 0000000000000000     <absolute>
 0000:00000000       __guard_iat_count          0000000000000000     <absolute>
 0000:00000000       __hybrid_code_map          0000000000000000     <absolute>
 0000:00000000       __hybrid_code_map_count    0000000000000000     <absolute>
 0000:00000000       __hybrid_auxiliary_iat     0000000000000000     <absolute>
 0000:00000000       __guard_iat_table          0000000000000000     <absolute>
 0000:00000000       __guard_fids_count         0000000000000000     <absolute>
 0000:00000000       __guard_longjmp_table      0000000000000000     <absolute>
 0000:00000000       __enclave_config           0000000000000000     <absolute>
 0000:00000000       __guard_longjmp_count      0000000000000000     <absolute>
 0000:00000000       ___safe_se_handler_table   0000000000000000     <absolute>
 0000:00000000       ___safe_se_handler_count   0000000000000000     <absolute>
 0000:00000000       __guard_fids_table         0000000000000000     <absolute>
 0000:00000100       __guard_flags              0000000000000100     <absolute>
 0000:00000000       __ImageBase                0000000180000000     <linker-defined>
 0001:00000000       cairo_surface_destroy      0000000180001000     libcairo-2:deqes00303.o
 0001:00000008       cairo_image_surface_get_stride 0000000180001008     libcairo-2:deqes00104.o
 0001:00000010       cairo_image_surface_get_format 0000000180001010     libcairo-2:deqes00102.o
 0001:00000018       cairo_destroy              0000000180001018     libcairo-2:deqes00014.o
 0001:00000020       cairo_surface_finish       0000000180001020     libcairo-2:deqes00304.o
 0001:00000028       cairo_image_surface_get_data 0000000180001028     libcairo-2:deqes00101.o
 0001:00000030       cairo_pdf_surface_set_size 0000000180001030     libcairo-2:deqes00178.o
 0001:00000038       cairo_image_surface_get_height 0000000180001038     libcairo-2:deqes00103.o
 0001:00000040       cairo_pdf_surface_create_for_stream 0000000180001040     libcairo-2:deqes00174.o
 0001:00000048       cairo_image_surface_create 0000000180001048     libcairo-2:deqes00097.o
 0001:00000050       cairo_status_to_string     0000000180001050     libcairo-2:deqes00294.o
 0001:00000058       cairo_surface_flush        0000000180001058     libcairo-2:deqes00305.o
 0001:00000060       cairo_svg_surface_create_for_stream 0000000180001060     libcairo-2:deqes00343.o
 0001:00000068       cairo_surface_status       0000000180001068     libcairo-2:deqes00336.o
 0001:00000070       cairo_image_surface_get_width 0000000180001070     libcairo-2:deqes00105.o
 0001:00000078       cairo_create               0000000180001078     libcairo-2:deqes00011.o
 0001:00000080       cairo_pattern_add_color_stop_rgba 0000000180001080     libcairo-2:deqes00144.o
 0001:00000088       cairo_pattern_create_radial 0000000180001088     libcairo-2:deqes00148.o
 0001:00000090       cairo_pattern_create_linear 0000000180001090     libcairo-2:deqes00146.o
 0001:00000098       cairo_pattern_destroy      0000000180001098     libcairo-2:deqes00152.o
 0001:000000a0       cairo_pattern_create_for_surface 00000001800010a0     libcairo-2:deqes00145.o
 0001:000000a8       cairo_path_destroy         00000001800010a8     libcairo-2:deqes00141.o
 0001:000000b0       cairo_in_fill              00000001800010b0     libcairo-2:deqes00107.o
 0001:000000b8       cairo_select_font_face     00000001800010b8     libcairo-2:deqes00268.o
 0001:000000c0       cairo_set_operator         00000001800010c0     libcairo-2:deqes00281.o
 0001:000000c8       cairo_surface_mark_dirty_rectangle 00000001800010c8     libcairo-2:deqes00319.o
 0001:000000d0       cairo_save                 00000001800010d0     libcairo-2:deqes00241.o
 0001:000000d8       cairo_get_matrix           00000001800010d8     libcairo-2:deqes00082.o
 0001:000000e0       cairo_arc_negative         00000001800010e0     libcairo-2:deqes00002.o
 0001:000000e8       cairo_stroke_preserve      00000001800010e8     libcairo-2:deqes00297.o
 0001:000000f0       cairo_rectangle            00000001800010f0     libcairo-2:deqes00209.o
 0001:000000f8       cairo_set_line_join        00000001800010f8     libcairo-2:deqes00277.o
 0001:00000100       cairo_pattern_get_filter   0000000180001100     libcairo-2:deqes00156.o
 0001:00000108       cairo_set_source_surface   0000000180001108     libcairo-2:deqes00286.o
 0001:00000110       cairo_fill                 0000000180001110     libcairo-2:deqes00035.o
 0001:00000118       cairo_set_line_cap         0000000180001118     libcairo-2:deqes00276.o
 0001:00000120       cairo_get_source           0000000180001120     libcairo-2:deqes00087.o
 0001:00000128       cairo_mask_surface         0000000180001128     libcairo-2:deqes00111.o
 0001:00000130       cairo_pattern_set_filter   0000000180001130     libcairo-2:deqes00167.o
 0001:00000138       cairo_fill_extents         0000000180001138     libcairo-2:deqes00036.o
 0001:00000140       cairo_show_page            0000000180001140     libcairo-2:deqes00290.o
 0001:00000148       cairo_restore              0000000180001148     libcairo-2:deqes00239.o
 0001:00000150       cairo_font_extents         0000000180001150     libcairo-2:deqes00038.o
 0001:00000158       cairo_line_to              0000000180001158     libcairo-2:deqes00109.o
 0001:00000160       cairo_set_fill_rule        0000000180001160     libcairo-2:deqes00271.o
 0001:00000168       cairo_paint                0000000180001168     libcairo-2:deqes00139.o
 0001:00000170       cairo_push_group           0000000180001170     libcairo-2:deqes00194.o
 0001:00000178       cairo_stroke               0000000180001178     libcairo-2:deqes00295.o
 0001:00000180       cairo_move_to              0000000180001180     libcairo-2:deqes00136.o
 0001:00000188       cairo_get_line_cap         0000000180001188     libcairo-2:deqes00079.o
 0001:00000190       cairo_pattern_set_extend   0000000180001190     libcairo-2:deqes00166.o
 0001:00000198       cairo_get_operator         0000000180001198     libcairo-2:deqes00084.o
 0001:000001a0       cairo_text_path            00000001800011a0     libcairo-2:deqes00357.o
 0001:000001a8       cairo_clip                 00000001800011a8     libcairo-2:deqes00003.o
 0001:000001b0       cairo_get_antialias        00000001800011b0     libcairo-2:deqes00070.o
 0001:000001b8       cairo_set_source_rgba      00000001800011b8     libcairo-2:deqes00285.o
 0001:000001c0       cairo_copy_path_flat       00000001800011c0     libcairo-2:deqes00010.o
 0001:000001c8       cairo_set_source           00000001800011c8     libcairo-2:deqes00283.o
 0001:000001d0       cairo_scale                00000001800011d0     libcairo-2:deqes00242.o
 0001:000001d8       cairo_user_to_device_distance 00000001800011d8     libcairo-2:deqes00374.o
 0001:000001e0       cairo_show_text            00000001800011e0     libcairo-2:deqes00291.o
 0001:000001e8       cairo_surface_mark_dirty   00000001800011e8     libcairo-2:deqes00318.o
 0001:000001f0       cairo_set_font_size        00000001800011f0     libcairo-2:deqes00275.o
 0001:000001f8       cairo_fill_preserve        00000001800011f8     libcairo-2:deqes00037.o
 0001:00000200       cairo_set_font_face        0000000180001200     libcairo-2:deqes00272.o
 0001:00000208       cairo_rotate               0000000180001208     libcairo-2:deqes00240.o
 0001:00000210       cairo_stroke_extents       0000000180001210     libcairo-2:deqes00296.o
 0001:00000218       cairo_matrix_init          0000000180001218     libcairo-2:deqes00112.o
 0001:00000220       cairo_text_extents         0000000180001220     libcairo-2:deqes00356.o
 0001:00000228       cairo_pop_group_to_source  0000000180001228     libcairo-2:deqes00182.o
 0001:00000230       cairo_get_dash             0000000180001230     libcairo-2:deqes00072.o
 0001:00000238       cairo_get_miter_limit      0000000180001238     libcairo-2:deqes00083.o
 0001:00000240       cairo_append_path          0000000180001240     libcairo-2:deqes00000.o
 0001:00000248       cairo_new_path             0000000180001248     libcairo-2:deqes00137.o
 0001:00000250       cairo_identity_matrix      0000000180001250     libcairo-2:deqes00096.o
 0001:00000258       cairo_get_line_join        0000000180001258     libcairo-2:deqes00080.o
 0001:00000260       cairo_in_stroke            0000000180001260     libcairo-2:deqes00108.o
 0001:00000268       cairo_paint_with_alpha     0000000180001268     libcairo-2:deqes00140.o
 0001:00000270       cairo_set_antialias        0000000180001270     libcairo-2:deqes00269.o
 0001:00000278       cairo_get_dash_count       0000000180001278     libcairo-2:deqes00073.o
 0001:00000280       cairo_set_dash             0000000180001280     libcairo-2:deqes00270.o
 0001:00000288       cairo_transform            0000000180001288     libcairo-2:deqes00362.o
 0001:00000290       cairo_close_path           0000000180001290     libcairo-2:deqes00006.o
 0001:00000298       cairo_arc                  0000000180001298     libcairo-2:deqes00001.o
 0001:000002a0       cairo_get_line_width       00000001800012a0     libcairo-2:deqes00081.o
 0001:000002a8       cairo_clip_preserve        00000001800012a8     libcairo-2:deqes00005.o
 0001:000002b0       cairo_set_line_width       00000001800012b0     libcairo-2:deqes00278.o
 0001:000002b8       cairo_set_miter_limit      00000001800012b8     libcairo-2:deqes00280.o
 0001:000002c0       cairo_get_current_point    00000001800012c0     libcairo-2:deqes00071.o
 0001:000002c8       cairo_translate            00000001800012c8     libcairo-2:deqes00363.o
 0001:000002d0       cairo_curve_to             00000001800012d0     libcairo-2:deqes00012.o
 0001:000002d8       cairo_format_stride_for_width 00000001800012d8     libcairo-2:deqes00061.o
 0001:000002e0       cairo_image_surface_create_from_png 00000001800012e0     libcairo-2:deqes00099.o
 0001:000002e8       cairo_image_surface_create_from_png_stream 00000001800012e8     libcairo-2:deqes00100.o
 0001:000002f0       cairo_image_surface_create_for_data 00000001800012f0     libcairo-2:deqes00098.o
 0001:000002f8       cairo_surface_set_mime_data 00000001800012f8     libcairo-2:deqes00333.o
 0001:00000300       cairo_version_string       0000000180001300     libcairo-2:deqes00376.o
 0001:00000308       cairo_ft_font_face_create_for_ft_face 0000000180001308     libcairo-2:deqes00062.o
 0001:00000310       cairo_font_face_set_user_data 0000000180001310     libcairo-2:deqes00044.o
 0001:00000318       cairo_font_face_destroy    0000000180001318     libcairo-2:deqes00039.o
 0001:00000320       cairo_font_face_reference  0000000180001320     libcairo-2:deqes00043.o
 0001:00000330       png_destroy_write_struct   0000000180001330     libpng16-16:daofs00019.o
 0001:00000338       png_set_bKGD               0000000180001338     libpng16-16:daofs00155.o
 0001:00000340       png_set_write_user_transform_fn 0000000180001340     libpng16-16:daofs00247.o
 0001:00000348       png_set_longjmp_fn         0000000180001348     libpng16-16:daofs00198.o
 0001:00000350       png_get_io_ptr             0000000180001350     libpng16-16:daofs00058.o
 0001:00000358       png_write_info             0000000180001358     libpng16-16:daofs00260.o
 0001:00000360       png_set_packswap           0000000180001360     libpng16-16:daofs00206.o
 0001:00000368       png_write_image            0000000180001368     libpng16-16:daofs00259.o
 0001:00000370       png_get_error_ptr          0000000180001370     libpng16-16:daofs00044.o
 0001:00000378       png_set_filter             0000000180001378     libpng16-16:daofs00181.o
 0001:00000380       png_set_compression_level  0000000180001380     libpng16-16:daofs00168.o
 0001:00000388       png_set_IHDR               0000000180001388     libpng16-16:daofs00149.o
 0001:00000390       png_set_write_fn           0000000180001390     libpng16-16:daofs00245.o
 0001:00000398       png_create_info_struct     0000000180001398     libpng16-16:daofs00011.o
 0001:000003a0       png_set_filler             00000001800013a0     libpng16-16:daofs00180.o
 0001:000003a8       png_write_end              00000001800013a8     libpng16-16:daofs00255.o
 0001:000003b0       png_error                  00000001800013b0     libpng16-16:daofs00020.o
 0001:000003b8       png_create_write_struct_2  00000001800013b8     libpng16-16:daofs00015.o
 0001:000003c0       jpeg_simple_progression    00000001800013c0     libjpeg-8:dsfes00106.o
 0001:000003c8       jpeg_set_quality           00000001800013c8     libjpeg-8:dsfes00105.o
 0001:000003d0       jpeg_CreateCompress        00000001800013d0     libjpeg-8:dsfes00031.o
 0001:000003d8       jpeg_std_error             00000001800013d8     libjpeg-8:dsfes00111.o
 0001:000003e0       jpeg_destroy_compress      00000001800013e0     libjpeg-8:dsfes00049.o
 0001:000003e8       jpeg_set_defaults          00000001800013e8     libjpeg-8:dsfes00102.o
 0001:000003f0       jpeg_finish_compress       00000001800013f0     libjpeg-8:dsfes00055.o
 0001:000003f8       jpeg_write_scanlines       00000001800013f8     libjpeg-8:dsfes00121.o
 0001:00000400       jpeg_start_compress        0000000180001400     libjpeg-8:dsfes00108.o
 0001:00000408       jpeg_CreateDecompress      0000000180001408     libjpeg-8:dsfes00032.o
 0001:00000410       jpeg_destroy_decompress    0000000180001410     libjpeg-8:dsfes00050.o
 0001:00000418       jpeg_read_header           0000000180001418     libjpeg-8:dsfes00096.o
 0001:00000420       jpeg_start_decompress      0000000180001420     libjpeg-8:dsfes00109.o
 0001:00000428       jpeg_stdio_src             0000000180001428     libjpeg-8:dsfes00114.o
 0001:00000430       jpeg_finish_decompress     0000000180001430     libjpeg-8:dsfes00056.o
 0001:00000438       jpeg_abort_decompress      0000000180001438     libjpeg-8:dsfes00035.o
 0001:00000440       jpeg_mem_src               0000000180001440     libjpeg-8:dsfes00089.o
 0001:00000448       jpeg_read_scanlines        0000000180001448     libjpeg-8:dsfes00098.o
 0001:00000450       DGifOpen                   0000000180001450     libgif-7:dmscs00012.o
 0001:00000458       DGifSlurp                  0000000180001458     libgif-7:dmscs00016.o
 0001:00000460       DGifCloseFile              0000000180001460     libgif-7:dmscs00000.o
 0001:00000470       FT_New_Face                0000000180001470     libfreetype-6:dwbbs00121.o
 0001:00000478       FT_Done_Face               0000000180001478     libfreetype-6:dwbbs00033.o
 0001:00000480       FT_Init_FreeType           0000000180001480     libfreetype-6:dwbbs00103.o
 0001:00000840       ?New@?$Factory@VFunctionTemplate@v8@@@imp@Nan@@SA?AV?$Local@VFunctionTemplate@v8@@@v8@@P6AXAEBV?$FunctionCallbackInfo@VValue@v8@@@3@@ZV?$Local@VValue@v8@@@5@V?$Local@VSignature@v8@@@5@@Z 0000000180001840 f i Canvas.obj
 0001:00000a10       ??1AsyncResource@Nan@@QEAA@XZ 0000000180001a10 f i Canvas.obj
 0001:00000a50       ??1EscapableHandleScope@Nan@@QEAA@XZ 0000000180001a50 f i Canvas.obj
 0001:00000a50       ??1HandleScope@Nan@@QEAA@XZ 0000000180001a50 f i Canvas.obj
 0001:00000a60       ?ThrowRangeError@Nan@@YAXPEBD@Z 0000000180001a60 f i Canvas.obj
 0001:00000b00       ?ThrowTypeError@Nan@@YAXPEBD@Z 0000000180001b00 f i Canvas.obj
 0001:00000ba0       ?MakeCallback@Nan@@YA?AV?$Local@VValue@v8@@@v8@@V?$Local@VObject@v8@@@3@V?$Local@VFunction@v8@@@3@HPEAV23@@Z 0000000180001ba0 f i Canvas.obj
 0001:00000d10       ?Call@Callback@Nan@@QEBA?AV?$Local@VValue@v8@@@v8@@HQEAV34@@Z 0000000180001d10 f i Canvas.obj
 0001:00000f00       ??_GCallback@Nan@@QEAAPEAXI@Z 0000000180001f00 f i Canvas.obj
 0001:00000f40       ?SetPrototypeMethod@Nan@@YAXV?$Local@VFunctionTemplate@v8@@@v8@@PEBDP6AXAEBV?$FunctionCallbackInfo@VValue@v8@@@1@@Z@Z 0000000180001f40 f i Canvas.obj
 0001:00001030       ?SetAccessor@Nan@@YAXV?$Local@VObjectTemplate@v8@@@v8@@V?$Local@VString@v8@@@3@P6AX1AEBV?$PropertyCallbackInfo@VValue@v8@@@1@@ZP6AX1V?$Local@VValue@v8@@@3@AEBV?$PropertyCallbackInfo@X@1@@Z4W4AccessControl@3@W4PropertyAttribute@3@V?$Local@VAccessorSignature@v8@@@3@@Z 0000000180002030 f i Canvas.obj
 0001:000011f0       ??1ObjectWrap@Nan@@UEAA@XZ 00000001800021f0 f i Canvas.obj
 0001:00001270       ?Wrap@ObjectWrap@Nan@@IEAAXV?$Local@VObject@v8@@@v8@@@Z 0000000180002270 f i Canvas.obj
 0001:00001340       ?Ref@ObjectWrap@Nan@@MEAAXXZ 0000000180002340 f i Canvas.obj
 0001:00001380       ?Unref@ObjectWrap@Nan@@MEAAXXZ 0000000180002380 f i Canvas.obj
 0001:00001430       ?WeakCallback@ObjectWrap@Nan@@CAXAEBV?$WeakCallbackInfo@VObjectWrap@Nan@@@v8@@@Z 0000000180002430 f i Canvas.obj
 0001:000014c0       ??_GObjectWrap@Nan@@UEAAPEAXI@Z 00000001800024c0 f i Canvas.obj
 0001:000014c0       ??_EObjectWrap@Nan@@UEAAPEAXI@Z 00000001800024c0 f i * CIL library *:* CIL module *
 0001:00001500       ?closure_init@@YA?AW4_cairo_status@@PEAUclosure_t@@PEAVCanvas@@II@Z 0000000180002500 f   Canvas.obj
 0001:00001570       ?closure_destroy@@YAXPEAUclosure_t@@@Z 0000000180002570 f   Canvas.obj
 0001:00001600       ?stream_pdf_free@@YAXPEADPEAX@Z 0000000180002600 f   Canvas.obj
 0001:00001600       _guard_check_icall_nop     0000000180002600 f   LIBCMT:guard_support.obj
 0001:00001600       ?init_closure_destination@@YAXPEAUjpeg_compress_struct@@@Z 0000000180002600 f   Canvas.obj
 0001:00001aa0       ?empty_closure_output_buffer@@YAEPEAUjpeg_compress_struct@@@Z 0000000180002aa0 f   Canvas.obj
 0001:00001be0       ?term_closure_destination@@YAXPEAUjpeg_compress_struct@@@Z 0000000180002be0 f   Canvas.obj
 0001:00001d70       ?write_to_jpeg_stream@@YAXPEAU_cairo_surface@@HH_NPEAUclosure_t@@@Z 0000000180002d70 f   Canvas.obj
 0001:00001f60       ?Initialize@Canvas@@SAXV?$Local@VObject@v8@@@v8@@@Z 0000000180002f60 f   Canvas.obj
 0001:000028c0       ?New@Canvas@@SAXAEBV?$FunctionCallbackInfo@VValue@v8@@@Nan@@@Z 00000001800038c0 f   Canvas.obj
 0001:00002b50       ?GetType@Canvas@@SAXV?$Local@VString@v8@@@v8@@AEBV?$PropertyCallbackInfo@VValue@v8@@@Nan@@@Z 0000000180003b50 f   Canvas.obj
 0001:00002c00       ?GetStride@Canvas@@SAXV?$Local@VString@v8@@@v8@@AEBV?$PropertyCallbackInfo@VValue@v8@@@Nan@@@Z 0000000180003c00 f   Canvas.obj
 0001:00002c80       ?GetWidth@ImageData@@SAXV?$Local@VString@v8@@@v8@@AEBV?$PropertyCallbackInfo@VValue@v8@@@Nan@@@Z 0000000180003c80 f   ImageData.obj
 0001:00002c80       ?GetWidth@Canvas@@SAXV?$Local@VString@v8@@@v8@@AEBV?$PropertyCallbackInfo@VValue@v8@@@Nan@@@Z 0000000180003c80 f   Canvas.obj
 0001:00002d00       ?SetWidth@Canvas@@SAXV?$Local@VString@v8@@@v8@@V?$Local@VValue@v8@@@3@AEBV?$PropertyCallbackInfo@X@Nan@@@Z 0000000180003d00 f   Canvas.obj
 0001:00002d70       ?GetHeight@ImageData@@SAXV?$Local@VString@v8@@@v8@@AEBV?$PropertyCallbackInfo@VValue@v8@@@Nan@@@Z 0000000180003d70 f   ImageData.obj
 0001:00002d70       ?GetHeight@Canvas@@SAXV?$Local@VString@v8@@@v8@@AEBV?$PropertyCallbackInfo@VValue@v8@@@Nan@@@Z 0000000180003d70 f   Canvas.obj
 0001:00002df0       ?SetHeight@Canvas@@SAXV?$Local@VString@v8@@@v8@@V?$Local@VValue@v8@@@3@AEBV?$PropertyCallbackInfo@X@Nan@@@Z 0000000180003df0 f   Canvas.obj
 0001:00002ee0       ?ToBufferAsync@Canvas@@SAXPEAUuv_work_s@@@Z 0000000180003ee0 f   Canvas.obj
 0001:00002f50       ?ToBufferAsyncAfter@Canvas@@SAXPEAUuv_work_s@@@Z 0000000180003f50 f   Canvas.obj
 0001:00003100       ?ToBuffer@Canvas@@SAXAEBV?$FunctionCallbackInfo@VValue@v8@@@Nan@@@Z 0000000180004100 f   Canvas.obj
 0001:000038d0       ??1TryCatch@Nan@@QEAA@XZ   00000001800048d0 f i Canvas.obj
 0001:00003a40       ?StreamPNGSync@Canvas@@SAXAEBV?$FunctionCallbackInfo@VValue@v8@@@Nan@@@Z 0000000180004a40 f   Canvas.obj
 0001:00003fb0       ?StreamPDFSync@Canvas@@SAXAEBV?$FunctionCallbackInfo@VValue@v8@@@Nan@@@Z 0000000180004fb0 f   Canvas.obj
 0001:00004450       ?StreamJPEGSync@Canvas@@SAXAEBV?$FunctionCallbackInfo@VValue@v8@@@Nan@@@Z 0000000180005450 f   Canvas.obj
 0001:00004680       ??0Canvas@@QEAA@HHW4canvas_type_t@@@Z 0000000180005680 f   Canvas.obj
 0001:000048d0       ??_GCanvas@@EEAAPEAXI@Z    00000001800058d0 f i Canvas.obj
 0001:000048d0       ??_ECanvas@@EEAAPEAXI@Z    00000001800058d0 f i * CIL library *:* CIL module *
 0001:000049f0       ?resurface@Canvas@@QEAAXV?$Local@VObject@v8@@@v8@@@Z 00000001800059f0 f   Canvas.obj
 0001:00004c40       ??$Unwrap@VContext2d@@@ObjectWrap@Nan@@SAPEAVContext2d@@V?$Local@VObject@v8@@@v8@@@Z 0000000180005c40 f i Canvas.obj
 0001:00004c40       ??$Unwrap@VImageData@@@ObjectWrap@Nan@@SAPEAVImageData@@V?$Local@VObject@v8@@@v8@@@Z 0000000180005c40 f i CanvasRenderingContext2d.obj
 0001:00004c40       ??$Unwrap@VCanvas@@@ObjectWrap@Nan@@SAPEAVCanvas@@V?$Local@VObject@v8@@@v8@@@Z 0000000180005c40 f i Canvas.obj
 0001:00004c40       ??$Unwrap@VGradient@@@ObjectWrap@Nan@@SAPEAVGradient@@V?$Local@VObject@v8@@@v8@@@Z 0000000180005c40 f i CanvasGradient.obj
 0001:00004c40       ??$Unwrap@VPattern@@@ObjectWrap@Nan@@SAPEAVPattern@@V?$Local@VObject@v8@@@v8@@@Z 0000000180005c40 f i CanvasRenderingContext2d.obj
 0001:00004c40       ??$Unwrap@VImage@@@ObjectWrap@Nan@@SAPEAVImage@@V?$Local@VObject@v8@@@v8@@@Z 0000000180005c40 f i CanvasPattern.obj
 0001:00004cd0       ?Initialize@Gradient@@SAXV?$Local@VObject@v8@@@v8@@@Z 0000000180005cd0 f   CanvasGradient.obj
 0001:00004f20       ?New@Gradient@@SAXAEBV?$FunctionCallbackInfo@VValue@v8@@@Nan@@@Z 0000000180005f20 f   CanvasGradient.obj
 0001:00005240       ?AddColorStop@Gradient@@SAXAEBV?$FunctionCallbackInfo@VValue@v8@@@Nan@@@Z 0000000180006240 f   CanvasGradient.obj
 0001:00005430       ??_EGradient@@EEAAPEAXI@Z  0000000180006430 f i * CIL library *:* CIL module *
 0001:00005430       ??_GPattern@@EEAAPEAXI@Z   0000000180006430 f i CanvasPattern.obj
 0001:00005430       ??_EPattern@@EEAAPEAXI@Z   0000000180006430 f i * CIL library *:* CIL module *
 0001:00005430       ??_GGradient@@EEAAPEAXI@Z  0000000180006430 f i CanvasGradient.obj
 0001:00005480       ?ThrowError@Nan@@YAXPEBD@Z 0000000180006480 f i CanvasPattern.obj
 0001:00005520       ?Initialize@Pattern@@SAXV?$Local@VObject@v8@@@v8@@@Z 0000000180006520 f   CanvasPattern.obj
 0001:00005710       ?New@Pattern@@SAXAEBV?$FunctionCallbackInfo@VValue@v8@@@Nan@@@Z 0000000180006710 f   CanvasPattern.obj
 0001:000058e0       ?Initialize@Context2d@@SAXV?$Local@VObject@v8@@@v8@@@Z 00000001800068e0 f   CanvasRenderingContext2d.obj
 0001:000064a0       ??_EContext2d@@EEAAPEAXI@Z 00000001800074a0 f i * CIL library *:* CIL module *
 0001:000064a0       ??_GContext2d@@EEAAPEAXI@Z 00000001800074a0 f i CanvasRenderingContext2d.obj
 0001:00006520       ?savePath@Context2d@@QEAAXXZ 0000000180007520 f   CanvasRenderingContext2d.obj
 0001:00006550       ?restorePath@Context2d@@QEAAXXZ 0000000180007550 f   CanvasRenderingContext2d.obj
 0001:00006590       ?setFillRule@Context2d@@QEAAXV?$Local@VValue@v8@@@v8@@@Z 0000000180007590 f i CanvasRenderingContext2d.obj
 0001:00006630       ?fill@Context2d@@QEAAX_N@Z 0000000180007630 f   CanvasRenderingContext2d.obj
 0001:000067c0       ?stroke@Context2d@@QEAAX_N@Z 00000001800077c0 f   CanvasRenderingContext2d.obj
 0001:00006950       ?shadow@Context2d@@QEAAXP6AXPEAU_cairo@@@Z@Z 0000000180007950 f   CanvasRenderingContext2d.obj
 0001:00006d10       ?blur@Context2d@@QEAAXPEAU_cairo_surface@@H@Z 0000000180007d10 f   CanvasRenderingContext2d.obj
 0001:00007280       ?New@Context2d@@SAXAEBV?$FunctionCallbackInfo@VValue@v8@@@Nan@@@Z 0000000180008280 f   CanvasRenderingContext2d.obj
 0001:000074f0       ?AddPage@Context2d@@SAXAEBV?$FunctionCallbackInfo@VValue@v8@@@Nan@@@Z 00000001800084f0 f   CanvasRenderingContext2d.obj
 0001:00007540       ?PutImageData@Context2d@@SAXAEBV?$FunctionCallbackInfo@VValue@v8@@@Nan@@@Z 0000000180008540 f   CanvasRenderingContext2d.obj
 0001:00007c80       ?GetImageData@Context2d@@SAXAEBV?$FunctionCallbackInfo@VValue@v8@@@Nan@@@Z 0000000180008c80 f   CanvasRenderingContext2d.obj
 0001:00008410       ?DrawImage@Context2d@@SAXAEBV?$FunctionCallbackInfo@VValue@v8@@@Nan@@@Z 0000000180009410 f   CanvasRenderingContext2d.obj
 0001:00008c60       ?GetGlobalAlpha@Context2d@@SAXV?$Local@VString@v8@@@v8@@AEBV?$PropertyCallbackInfo@VValue@v8@@@Nan@@@Z 0000000180009c60 f   CanvasRenderingContext2d.obj
 0001:00008ce0       ?SetGlobalAlpha@Context2d@@SAXV?$Local@VString@v8@@@v8@@V?$Local@VValue@v8@@@3@AEBV?$PropertyCallbackInfo@X@Nan@@@Z 0000000180009ce0 f   CanvasRenderingContext2d.obj
 0001:00008d40       ?GetGlobalCompositeOperation@Context2d@@SAXV?$Local@VString@v8@@@v8@@AEBV?$PropertyCallbackInfo@VValue@v8@@@Nan@@@Z 0000000180009d40 f   CanvasRenderingContext2d.obj
 0001:00008fa0       ?SetPatternQuality@Context2d@@SAXV?$Local@VString@v8@@@v8@@V?$Local@VValue@v8@@@3@AEBV?$PropertyCallbackInfo@X@Nan@@@Z 0000000180009fa0 f   CanvasRenderingContext2d.obj
 0001:000090f0       ?GetPatternQuality@Context2d@@SAXV?$Local@VString@v8@@@v8@@AEBV?$PropertyCallbackInfo@VValue@v8@@@Nan@@@Z 000000018000a0f0 f   CanvasRenderingContext2d.obj
 0001:000091c0       ?SetGlobalCompositeOperation@Context2d@@SAXV?$Local@VString@v8@@@v8@@V?$Local@VValue@v8@@@3@AEBV?$PropertyCallbackInfo@X@Nan@@@Z 000000018000a1c0 f   CanvasRenderingContext2d.obj
 0001:00009600       ?GetShadowOffsetX@Context2d@@SAXV?$Local@VString@v8@@@v8@@AEBV?$PropertyCallbackInfo@VValue@v8@@@Nan@@@Z 000000018000a600 f   CanvasRenderingContext2d.obj
 0001:00009680       ?SetShadowOffsetX@Context2d@@SAXV?$Local@VString@v8@@@v8@@V?$Local@VValue@v8@@@3@AEBV?$PropertyCallbackInfo@X@Nan@@@Z 000000018000a680 f   CanvasRenderingContext2d.obj
 0001:000096d0       ?GetShadowOffsetY@Context2d@@SAXV?$Local@VString@v8@@@v8@@AEBV?$PropertyCallbackInfo@VValue@v8@@@Nan@@@Z 000000018000a6d0 f   CanvasRenderingContext2d.obj
 0001:00009750       ?SetShadowOffsetY@Context2d@@SAXV?$Local@VString@v8@@@v8@@V?$Local@VValue@v8@@@3@AEBV?$PropertyCallbackInfo@X@Nan@@@Z 000000018000a750 f   CanvasRenderingContext2d.obj
 0001:000097a0       ?GetShadowBlur@Context2d@@SAXV?$Local@VString@v8@@@v8@@AEBV?$PropertyCallbackInfo@VValue@v8@@@Nan@@@Z 000000018000a7a0 f   CanvasRenderingContext2d.obj
 0001:00009820       ?SetShadowBlur@Context2d@@SAXV?$Local@VString@v8@@@v8@@V?$Local@VValue@v8@@@3@AEBV?$PropertyCallbackInfo@X@Nan@@@Z 000000018000a820 f   CanvasRenderingContext2d.obj
 0001:00009870       ?GetAntiAlias@Context2d@@SAXV?$Local@VString@v8@@@v8@@AEBV?$PropertyCallbackInfo@VValue@v8@@@Nan@@@Z 000000018000a870 f   CanvasRenderingContext2d.obj
 0001:00009940       ?SetAntiAlias@Context2d@@SAXV?$Local@VString@v8@@@v8@@V?$Local@VValue@v8@@@3@AEBV?$PropertyCallbackInfo@X@Nan@@@Z 000000018000a940 f   CanvasRenderingContext2d.obj
 0001:00009a50       ?GetTextDrawingMode@Context2d@@SAXV?$Local@VString@v8@@@v8@@AEBV?$PropertyCallbackInfo@VValue@v8@@@Nan@@@Z 000000018000aa50 f   CanvasRenderingContext2d.obj
 0001:00009b10       ?SetTextDrawingMode@Context2d@@SAXV?$Local@VString@v8@@@v8@@V?$Local@VValue@v8@@@3@AEBV?$PropertyCallbackInfo@X@Nan@@@Z 000000018000ab10 f   CanvasRenderingContext2d.obj
 0001:00009be0       ?GetFilter@Context2d@@SAXV?$Local@VString@v8@@@v8@@AEBV?$PropertyCallbackInfo@VValue@v8@@@Nan@@@Z 000000018000abe0 f   CanvasRenderingContext2d.obj
 0001:00009cc0       ?SetFilter@Context2d@@SAXV?$Local@VString@v8@@@v8@@V?$Local@VValue@v8@@@3@AEBV?$PropertyCallbackInfo@X@Nan@@@Z 000000018000acc0 f   CanvasRenderingContext2d.obj
 0001:00009dd0       ?GetMiterLimit@Context2d@@SAXV?$Local@VString@v8@@@v8@@AEBV?$PropertyCallbackInfo@VValue@v8@@@Nan@@@Z 000000018000add0 f   CanvasRenderingContext2d.obj
 0001:00009e50       ?SetMiterLimit@Context2d@@SAXV?$Local@VString@v8@@@v8@@V?$Local@VValue@v8@@@3@AEBV?$PropertyCallbackInfo@X@Nan@@@Z 000000018000ae50 f   CanvasRenderingContext2d.obj
 0001:00009ea0       ?GetLineWidth@Context2d@@SAXV?$Local@VString@v8@@@v8@@AEBV?$PropertyCallbackInfo@VValue@v8@@@Nan@@@Z 000000018000aea0 f   CanvasRenderingContext2d.obj
 0001:00009f20       ?SetLineWidth@Context2d@@SAXV?$Local@VString@v8@@@v8@@V?$Local@VValue@v8@@@3@AEBV?$PropertyCallbackInfo@X@Nan@@@Z 000000018000af20 f   CanvasRenderingContext2d.obj
 0001:00009f80       ?GetLineJoin@Context2d@@SAXV?$Local@VString@v8@@@v8@@AEBV?$PropertyCallbackInfo@VValue@v8@@@Nan@@@Z 000000018000af80 f   CanvasRenderingContext2d.obj
 0001:0000a040       ?SetLineJoin@Context2d@@SAXV?$Local@VString@v8@@@v8@@V?$Local@VValue@v8@@@3@AEBV?$PropertyCallbackInfo@X@Nan@@@Z 000000018000b040 f   CanvasRenderingContext2d.obj
 0001:0000a0f0       ?GetLineCap@Context2d@@SAXV?$Local@VString@v8@@@v8@@AEBV?$PropertyCallbackInfo@VValue@v8@@@Nan@@@Z 000000018000b0f0 f   CanvasRenderingContext2d.obj
 0001:0000a1b0       ?SetLineCap@Context2d@@SAXV?$Local@VString@v8@@@v8@@V?$Local@VValue@v8@@@3@AEBV?$PropertyCallbackInfo@X@Nan@@@Z 000000018000b1b0 f   CanvasRenderingContext2d.obj
 0001:0000a260       ?IsPointInPath@Context2d@@SAXAEBV?$FunctionCallbackInfo@VValue@v8@@@Nan@@@Z 000000018000b260 f   CanvasRenderingContext2d.obj
 0001:0000a400       ?SetFillPattern@Context2d@@SAXAEBV?$FunctionCallbackInfo@VValue@v8@@@Nan@@@Z 000000018000b400 f   CanvasRenderingContext2d.obj
 0001:0000a540       ?SetStrokePattern@Context2d@@SAXAEBV?$FunctionCallbackInfo@VValue@v8@@@Nan@@@Z 000000018000b540 f   CanvasRenderingContext2d.obj
 0001:0000a680       ?SetShadowColor@Context2d@@SAXV?$Local@VString@v8@@@v8@@V?$Local@VValue@v8@@@3@AEBV?$PropertyCallbackInfo@X@Nan@@@Z 000000018000b680 f   CanvasRenderingContext2d.obj
 0001:0000a780       ?GetShadowColor@Context2d@@SAXV?$Local@VString@v8@@@v8@@AEBV?$PropertyCallbackInfo@VValue@v8@@@Nan@@@Z 000000018000b780 f   CanvasRenderingContext2d.obj
 0001:0000a900       ?SetFillColor@Context2d@@SAXAEBV?$FunctionCallbackInfo@VValue@v8@@@Nan@@@Z 000000018000b900 f   CanvasRenderingContext2d.obj
 0001:0000aa50       ?GetFillColor@Context2d@@SAXV?$Local@VString@v8@@@v8@@AEBV?$PropertyCallbackInfo@VValue@v8@@@Nan@@@Z 000000018000ba50 f   CanvasRenderingContext2d.obj
 0001:0000abc0       ?SetStrokeColor@Context2d@@SAXAEBV?$FunctionCallbackInfo@VValue@v8@@@Nan@@@Z 000000018000bbc0 f   CanvasRenderingContext2d.obj
 0001:0000ad10       ?GetStrokeColor@Context2d@@SAXV?$Local@VString@v8@@@v8@@AEBV?$PropertyCallbackInfo@VValue@v8@@@Nan@@@Z 000000018000bd10 f   CanvasRenderingContext2d.obj
 0001:0000ae80       ?BezierCurveTo@Context2d@@SAXAEBV?$FunctionCallbackInfo@VValue@v8@@@Nan@@@Z 000000018000be80 f   CanvasRenderingContext2d.obj
 0001:0000b150       ?QuadraticCurveTo@Context2d@@SAXAEBV?$FunctionCallbackInfo@VValue@v8@@@Nan@@@Z 000000018000c150 f   CanvasRenderingContext2d.obj
 0001:0000b3d0       ?Save@Context2d@@SAXAEBV?$FunctionCallbackInfo@VValue@v8@@@Nan@@@Z 000000018000c3d0 f   CanvasRenderingContext2d.obj
 0001:0000b4c0       ?Restore@Context2d@@SAXAEBV?$FunctionCallbackInfo@VValue@v8@@@Nan@@@Z 000000018000c4c0 f   CanvasRenderingContext2d.obj
 0001:0000b530       ?BeginPath@Context2d@@SAXAEBV?$FunctionCallbackInfo@VValue@v8@@@Nan@@@Z 000000018000c530 f   CanvasRenderingContext2d.obj
 0001:0000b560       ?ClosePath@Context2d@@SAXAEBV?$FunctionCallbackInfo@VValue@v8@@@Nan@@@Z 000000018000c560 f   CanvasRenderingContext2d.obj
 0001:0000b590       ?Rotate@Context2d@@SAXAEBV?$FunctionCallbackInfo@VValue@v8@@@Nan@@@Z 000000018000c590 f   CanvasRenderingContext2d.obj
 0001:0000b620       ?Transform@Context2d@@SAXAEBV?$FunctionCallbackInfo@VValue@v8@@@Nan@@@Z 000000018000c620 f   CanvasRenderingContext2d.obj
 0001:0000b910       ?ResetTransform@Context2d@@SAXAEBV?$FunctionCallbackInfo@VValue@v8@@@Nan@@@Z 000000018000c910 f   CanvasRenderingContext2d.obj
 0001:0000b940       ?Translate@Context2d@@SAXAEBV?$FunctionCallbackInfo@VValue@v8@@@Nan@@@Z 000000018000c940 f   CanvasRenderingContext2d.obj
 0001:0000ba40       ?Scale@Context2d@@SAXAEBV?$FunctionCallbackInfo@VValue@v8@@@Nan@@@Z 000000018000ca40 f   CanvasRenderingContext2d.obj
 0001:0000bb40       ?Clip@Context2d@@SAXAEBV?$FunctionCallbackInfo@VValue@v8@@@Nan@@@Z 000000018000cb40 f   CanvasRenderingContext2d.obj
 0001:0000bba0       ?Fill@Context2d@@SAXAEBV?$FunctionCallbackInfo@VValue@v8@@@Nan@@@Z 000000018000cba0 f   CanvasRenderingContext2d.obj
 0001:0000bc00       ?Stroke@Context2d@@SAXAEBV?$FunctionCallbackInfo@VValue@v8@@@Nan@@@Z 000000018000cc00 f   CanvasRenderingContext2d.obj
 0001:0000bc30       ?FillText@Context2d@@SAXAEBV?$FunctionCallbackInfo@VValue@v8@@@Nan@@@Z 000000018000cc30 f   CanvasRenderingContext2d.obj
 0001:0000be00       ?StrokeText@Context2d@@SAXAEBV?$FunctionCallbackInfo@VValue@v8@@@Nan@@@Z 000000018000ce00 f   CanvasRenderingContext2d.obj
 0001:0000bfd0       ?setTextPath@Context2d@@QEAAXPEBDNN@Z 000000018000cfd0 f   CanvasRenderingContext2d.obj
 0001:0000c150       ?LineTo@Context2d@@SAXAEBV?$FunctionCallbackInfo@VValue@v8@@@Nan@@@Z 000000018000d150 f   CanvasRenderingContext2d.obj
 0001:0000c250       ?MoveTo@Context2d@@SAXAEBV?$FunctionCallbackInfo@VValue@v8@@@Nan@@@Z 000000018000d250 f   CanvasRenderingContext2d.obj
 0001:0000c350       ?SetFontFace@Context2d@@SAXAEBV?$FunctionCallbackInfo@VValue@v8@@@Nan@@@Z 000000018000d350 f   CanvasRenderingContext2d.obj
 0001:0000c530       ?SetFont@Context2d@@SAXAEBV?$FunctionCallbackInfo@VValue@v8@@@Nan@@@Z 000000018000d530 f   CanvasRenderingContext2d.obj
 0001:0000c860       ?MeasureText@Context2d@@SAXAEBV?$FunctionCallbackInfo@VValue@v8@@@Nan@@@Z 000000018000d860 f   CanvasRenderingContext2d.obj
 0001:0000cd40       ?SetTextBaseline@Context2d@@SAXAEBV?$FunctionCallbackInfo@VValue@v8@@@Nan@@@Z 000000018000dd40 f   CanvasRenderingContext2d.obj
 0001:0000cdc0       ?SetTextAlignment@Context2d@@SAXAEBV?$FunctionCallbackInfo@VValue@v8@@@Nan@@@Z 000000018000ddc0 f   CanvasRenderingContext2d.obj
 0001:0000ce40       ?SetLineDash@Context2d@@SAXAEBV?$FunctionCallbackInfo@VValue@v8@@@Nan@@@Z 000000018000de40 f   CanvasRenderingContext2d.obj
 0001:0000d130       ?GetLineDash@Context2d@@SAXAEBV?$FunctionCallbackInfo@VValue@v8@@@Nan@@@Z 000000018000e130 f   CanvasRenderingContext2d.obj
 0001:0000d360       ?SetLineDashOffset@Context2d@@SAXV?$Local@VString@v8@@@v8@@V?$Local@VValue@v8@@@3@AEBV?$PropertyCallbackInfo@X@Nan@@@Z 000000018000e360 f   CanvasRenderingContext2d.obj
 0001:0000d4e0       ?GetLineDashOffset@Context2d@@SAXV?$Local@VString@v8@@@v8@@AEBV?$PropertyCallbackInfo@VValue@v8@@@Nan@@@Z 000000018000e4e0 f   CanvasRenderingContext2d.obj
 0001:0000d570       ?FillRect@Context2d@@SAXAEBV?$FunctionCallbackInfo@VValue@v8@@@Nan@@@Z 000000018000e570 f   CanvasRenderingContext2d.obj
 0001:0000d770       ?StrokeRect@Context2d@@SAXAEBV?$FunctionCallbackInfo@VValue@v8@@@Nan@@@Z 000000018000e770 f   CanvasRenderingContext2d.obj
 0001:0000d970       ?ClearRect@Context2d@@SAXAEBV?$FunctionCallbackInfo@VValue@v8@@@Nan@@@Z 000000018000e970 f   CanvasRenderingContext2d.obj
 0001:0000db90       ?Rect@Context2d@@SAXAEBV?$FunctionCallbackInfo@VValue@v8@@@Nan@@@Z 000000018000eb90 f   CanvasRenderingContext2d.obj
 0001:0000ddb0       ?Arc@Context2d@@SAXAEBV?$FunctionCallbackInfo@VValue@v8@@@Nan@@@Z 000000018000edb0 f   CanvasRenderingContext2d.obj
 0001:0000e150       ?ArcTo@Context2d@@SAXAEBV?$FunctionCallbackInfo@VValue@v8@@@Nan@@@Z 000000018000f150 f   CanvasRenderingContext2d.obj
 0001:0000e800       ??1?$vector@NV?$allocator@N@std@@@std@@QEAA@XZ 000000018000f800 f i CanvasRenderingContext2d.obj
 0001:0000e860       ??0?$TypedArrayContents@E@Nan@@QEAA@V?$Local@VValue@v8@@@v8@@@Z 000000018000f860 f i CanvasRenderingContext2d.obj
 0001:0000e920       ?_Xlength@?$vector@NV?$allocator@N@std@@@std@@CAXXZ 000000018000f920 f i CanvasRenderingContext2d.obj
 0001:0000e940       __local_stdio_printf_options 000000018000f940 f i color.obj
 0001:0000e950       snprintf                   000000018000f950 f i color.obj
 0001:0000f5d0       ?rgba_from_string@@YAHPEBDPEAF@Z 00000001800105d0 f   color.obj
 0001:0000fa40       ?Initialize@Image@@SAXV?$Local@VObject@v8@@@v8@@@Z 0000000180010a40 f   Image.obj
 0001:0000ff10       ?New@Image@@SAXAEBV?$FunctionCallbackInfo@VValue@v8@@@Nan@@@Z 0000000180010f10 f   Image.obj
 0001:0000ffe0       ?GetComplete@Image@@SAXV?$Local@VString@v8@@@v8@@AEBV?$PropertyCallbackInfo@VValue@v8@@@Nan@@@Z 0000000180010fe0 f   Image.obj
 0001:00010050       ?GetDataMode@Image@@SAXV?$Local@VString@v8@@@v8@@AEBV?$PropertyCallbackInfo@VValue@v8@@@Nan@@@Z 0000000180011050 f   Image.obj
 0001:000100d0       ?SetDataMode@Image@@SAXV?$Local@VString@v8@@@v8@@V?$Local@VValue@v8@@@3@AEBV?$PropertyCallbackInfo@X@Nan@@@Z 00000001800110d0 f   Image.obj
 0001:00010120       ?GetWidth@Image@@SAXV?$Local@VString@v8@@@v8@@AEBV?$PropertyCallbackInfo@VValue@v8@@@Nan@@@Z 0000000180011120 f   Image.obj
 0001:000101a0       ?GetHeight@Image@@SAXV?$Local@VString@v8@@@v8@@AEBV?$PropertyCallbackInfo@VValue@v8@@@Nan@@@Z 00000001800111a0 f   Image.obj
 0001:00010220       ?GetSource@Image@@SAXV?$Local@VString@v8@@@v8@@AEBV?$PropertyCallbackInfo@VValue@v8@@@Nan@@@Z 0000000180011220 f   Image.obj
 0001:000102c0       ?clearData@Image@@QEAAXXZ  00000001800112c0 f   Image.obj
 0001:000103a0       ?SetSource@Image@@SAXV?$Local@VString@v8@@@v8@@V?$Local@VValue@v8@@@3@AEBV?$PropertyCallbackInfo@X@Nan@@@Z 00000001800113a0 f   Image.obj
 0001:000106e0       ?readPNG@Image@@SA?AW4_cairo_status@@PEAXPEAEI@Z 00000001800116e0 f   Image.obj
 0001:00010720       ?GetOnload@Image@@SAXV?$Local@VString@v8@@@v8@@AEBV?$PropertyCallbackInfo@VValue@v8@@@Nan@@@Z 0000000180011720 f   Image.obj
 0001:000107b0       ?SetOnload@Image@@SAXV?$Local@VString@v8@@@v8@@V?$Local@VValue@v8@@@3@AEBV?$PropertyCallbackInfo@X@Nan@@@Z 00000001800117b0 f   Image.obj
 0001:00010890       ?GetOnerror@Image@@SAXV?$Local@VString@v8@@@v8@@AEBV?$PropertyCallbackInfo@VValue@v8@@@Nan@@@Z 0000000180011890 f   Image.obj
 0001:00010920       ?SetOnerror@Image@@SAXV?$Local@VString@v8@@@v8@@V?$Local@VValue@v8@@@3@AEBV?$PropertyCallbackInfo@X@Nan@@@Z 0000000180011920 f   Image.obj
 0001:00010a00       ??_GImage@@EEAAPEAXI@Z     0000000180011a00 f i Image.obj
 0001:00010a00       ??_EImage@@EEAAPEAXI@Z     0000000180011a00 f i * CIL library *:* CIL module *
 0001:00010ad0       ?loadSurface@Image@@QEAA?AW4_cairo_status@@XZ 0000000180011ad0 f   Image.obj
 0001:00010df0       ?read_gif_from_memory@@YAHPEAUGifFileType@@PEAEH@Z 0000000180011df0 f   Image.obj
 0001:00010e40       ?loadGIFFromBuffer@Image@@QEAA?AW4_cairo_status@@PEAEI@Z 0000000180011e40 f   Image.obj
 0001:000113c0       ?decodeJPEGIntoSurface@Image@@QEAA?AW4_cairo_status@@PEAUjpeg_decompress_struct@@@Z 00000001800123c0 f   Image.obj
 0001:00011580       ?decodeJPEGBufferIntoMimeSurface@Image@@QEAA?AW4_cairo_status@@PEAEI@Z 0000000180012580 f   Image.obj
 0001:000116d0       ?clearMimeData@@YAXPEAX@Z  00000001800126d0 f   Image.obj
 0001:00011770       ?assignDataAsMime@Image@@QEAA?AW4_cairo_status@@PEAEHPEBD@Z 0000000180012770 f   Image.obj
 0001:00011880       ?loadJPEGFromBuffer@Image@@QEAA?AW4_cairo_status@@PEAEI@Z 0000000180012880 f   Image.obj
 0001:00011930       ??_EImageData@@UEAAPEAXI@Z 0000000180012930 f i * CIL library *:* CIL module *
 0001:00011930       ??_GImageData@@UEAAPEAXI@Z 0000000180012930 f i ImageData.obj
 0001:00011970       ?Initialize@ImageData@@SAXV?$Local@VObject@v8@@@v8@@@Z 0000000180012970 f   ImageData.obj
 0001:00011bc0       ?New@ImageData@@SAXAEBV?$FunctionCallbackInfo@VValue@v8@@@Nan@@@Z 0000000180012bc0 f   ImageData.obj
 0001:00011f60       ?init@@YAXV?$Local@VObject@v8@@@v8@@@Z 0000000180012f60 f   init.obj
 0001:000123c0       ??_EFontFace@@EEAAPEAXI@Z  00000001800133c0 f i * CIL library *:* CIL module *
 0001:000123c0       ??_GFontFace@@EEAAPEAXI@Z  00000001800133c0 f i FontFace.obj
 0001:00012410       ?New@FontFace@@SAXAEBV?$FunctionCallbackInfo@VValue@v8@@@Nan@@@Z 0000000180013410 f   FontFace.obj
 0001:000126ac       __imp_load_uv_queue_work   00000001800136ac f   node:node.exe
 0001:000126b8       __tailMerge_node_exe       00000001800136b8     node:node.exe
 0001:00012731       __imp_load_?Global@Context@v8@@QEAA?AV?$Local@VObject@v8@@@2@XZ 0000000180013731 f   node:node.exe
 0001:0001273d       __imp_load_?Value@External@v8@@QEBAPEAXXZ 000000018001373d f   node:node.exe
 0001:00012749       __imp_load_?New@External@v8@@SA?AV?$Local@VExternal@v8@@@2@PEAVIsolate@2@PEAX@Z 0000000180013749 f   node:node.exe
 0001:00012755       __imp_load_?NewFromUnsigned@Integer@v8@@SA?AV?$Local@VInteger@v8@@@2@PEAVIsolate@2@I@Z 0000000180013755 f   node:node.exe
 0001:00012761       __imp_load_?New@Signature@v8@@SA?AV?$Local@VSignature@v8@@@2@PEAVIsolate@2@V?$Local@VFunctionTemplate@v8@@@2@@Z 0000000180013761 f   node:node.exe
 0001:0001276d       __imp_load_?CheckMemoryPressure@Isolate@v8@@AEAAXXZ 000000018001376d f   node:node.exe
 0001:00012779       __imp_load_?ReportExternalAllocationLimitReached@Isolate@v8@@AEAAXXZ 0000000180013779 f   node:node.exe
 0001:00012785       __imp_load_?ThrowException@Isolate@v8@@QEAA?AV?$Local@VValue@v8@@@2@V32@@Z 0000000180013785 f   node:node.exe
 0001:00012791       __imp_load_?GetCurrentContext@Isolate@v8@@QEAA?AV?$Local@VContext@v8@@@2@XZ 0000000180013791 f   node:node.exe
 0001:0001279d       __imp_load_?GetCurrent@Isolate@v8@@SAPEAV12@XZ 000000018001379d f   node:node.exe
 0001:000127a9       __imp_load_?CreateHandle@HandleScope@v8@@KAPEAPEAVObject@internal@2@PEAVIsolate@42@PEAV342@@Z 00000001800137a9 f   node:node.exe
 0001:000127b5       __imp_load_?CreateHandle@HandleScope@v8@@CAPEAPEAVObject@internal@2@PEAVHeapObject@42@PEAV342@@Z 00000001800137b5 f   node:node.exe
 0001:000127c1       __imp_load_??1HandleScope@v8@@QEAA@XZ 00000001800137c1 f   node:node.exe
 0001:000127cd       __imp_load_??0HandleScope@v8@@QEAA@PEAVIsolate@1@@Z 00000001800137cd f   node:node.exe
 0001:000127d9       __imp_load_?Set@Template@v8@@QEAAXV?$Local@VName@v8@@@2@V?$Local@VData@v8@@@2@W4PropertyAttribute@2@@Z 00000001800137d9 f   node:node.exe
 0001:000127e5       __imp_load_?Error@Exception@v8@@SA?AV?$Local@VValue@v8@@@2@V?$Local@VString@v8@@@2@@Z 00000001800137e5 f   node:node.exe
 0001:000127f1       __imp_load_?TypeError@Exception@v8@@SA?AV?$Local@VValue@v8@@@2@V?$Local@VString@v8@@@2@@Z 00000001800137f1 f   node:node.exe
 0001:000127fd       __imp_load_?RangeError@Exception@v8@@SA?AV?$Local@VValue@v8@@@2@V?$Local@VString@v8@@@2@@Z 00000001800137fd f   node:node.exe
 0001:00012809       __imp_load_?SetClassName@FunctionTemplate@v8@@QEAAXV?$Local@VString@v8@@@2@@Z 0000000180013809 f   node:node.exe
 0001:00012815       __imp_load_?PrototypeTemplate@FunctionTemplate@v8@@QEAA?AV?$Local@VObjectTemplate@v8@@@2@XZ 0000000180013815 f   node:node.exe
 0001:00012821       __imp_load_?InstanceTemplate@FunctionTemplate@v8@@QEAA?AV?$Local@VObjectTemplate@v8@@@2@XZ 0000000180013821 f   node:node.exe
 0001:0001282d       __imp_load_?GetFunction@FunctionTemplate@v8@@QEAA?AV?$Local@VFunction@v8@@@2@XZ 000000018001382d f   node:node.exe
 0001:00012839       __imp_load_?New@FunctionTemplate@v8@@SA?AV?$Local@VFunctionTemplate@v8@@@2@PEAVIsolate@2@P6AXAEBV?$FunctionCallbackInfo@VValue@v8@@@2@@ZV?$Local@VValue@v8@@@2@V?$Local@VSignature@v8@@@2@HW4ConstructorBehavior@2@W4SideEffectType@2@@Z 0000000180013839 f   node:node.exe
 0001:00012845       __imp_load_?ToLocalEmpty@V8@v8@@CAXXZ 0000000180013845 f   node:node.exe
 0001:00012851       __imp_load_?ClearWeak@V8@v8@@CAPEAXPEAPEAVObject@internal@2@@Z 0000000180013851 f   node:node.exe
 0001:0001285d       __imp_load_?MakeWeak@V8@v8@@CAXPEAPEAVObject@internal@2@PEAXP6AXAEBV?$WeakCallbackInfo@X@2@@ZW4WeakCallbackType@2@@Z 000000018001385d f   node:node.exe
 0001:00012869       __imp_load_?DisposeGlobal@V8@v8@@CAXPEAPEAVObject@internal@2@@Z 0000000180013869 f   node:node.exe
 0001:00012875       __imp_load_?GlobalizeReference@V8@v8@@CAPEAPEAVObject@internal@2@PEAVIsolate@42@PEAPEAV342@@Z 0000000180013875 f   node:node.exe
 0001:00012881       __imp_load_?StrictEquals@Value@v8@@QEBA_NV?$Local@VValue@v8@@@2@@Z 0000000180013881 f   node:node.exe
 0001:0001288d       __imp_load_?Uint32Value@Value@v8@@QEBAIXZ 000000018001388d f   node:node.exe
 0001:00012899       __imp_load_?NumberValue@Value@v8@@QEBANXZ 0000000180013899 f   node:node.exe
 0001:000128a5       __imp_load_?BooleanValue@Value@v8@@QEBA_NXZ 00000001800138a5 f   node:node.exe
 0001:000128b1       __imp_load_?ToUint32@Value@v8@@QEBA?AV?$MaybeLocal@VUint32@v8@@@2@V?$Local@VContext@v8@@@2@@Z 00000001800138b1 f   node:node.exe
 0001:000128bd       __imp_load_?IsUint32@Value@v8@@QEBA_NXZ 00000001800138bd f   node:node.exe
 0001:000128c9       __imp_load_?IsNumber@Value@v8@@QEBA_NXZ 00000001800138c9 f   node:node.exe
 0001:000128d5       __imp_load_?IsBoolean@Value@v8@@QEBA_NXZ 00000001800138d5 f   node:node.exe
 0001:000128e1       __imp_load_?IsFunction@Value@v8@@QEBA_NXZ 00000001800138e1 f   node:node.exe
 0001:000128ed       __imp_load_?ReThrow@TryCatch@v8@@QEAA?AV?$Local@VValue@v8@@@2@XZ 00000001800138ed f   node:node.exe
 0001:000128f9       __imp_load_?HasCaught@TryCatch@v8@@QEBA_NXZ 00000001800138f9 f   node:node.exe
 0001:00012905       __imp_load_??1TryCatch@v8@@QEAA@XZ 0000000180013905 f   node:node.exe
 0001:00012911       __imp_load_??0TryCatch@v8@@QEAA@PEAVIsolate@1@@Z 0000000180013911 f   node:node.exe
 0001:0001291d       __imp_load_?Escape@EscapableHandleScope@v8@@AEAAPEAPEAVObject@internal@2@PEAPEAV342@@Z 000000018001391d f   node:node.exe
 0001:00012929       __imp_load_??0EscapableHandleScope@v8@@QEAA@PEAVIsolate@1@@Z 0000000180013929 f   node:node.exe
 0001:00012935       __imp_load_??1Utf8Value@String@v8@@QEAA@XZ 0000000180013935 f   node:node.exe
 0001:00012941       __imp_load_??0Utf8Value@String@v8@@QEAA@V?$Local@VValue@v8@@@2@@Z 0000000180013941 f   node:node.exe
 0001:0001294d       __imp_load_?NewFromUtf8@String@v8@@SA?AV?$MaybeLocal@VString@v8@@@2@PEAVIsolate@2@PEBDW4NewStringType@2@H@Z 000000018001394d f   node:node.exe
 0001:00012959       __imp_load_?New@Number@v8@@SA?AV?$Local@VNumber@v8@@@2@PEAVIsolate@2@N@Z 0000000180013959 f   node:node.exe
 0001:00012965       __imp_load_?SlowGetAlignedPointerFromInternalField@Object@v8@@AEAAPEAXH@Z 0000000180013965 f   node:node.exe
 0001:00012971       __imp_load_?SlowGetInternalField@Object@v8@@AEAA?AV?$Local@VValue@v8@@@2@H@Z 0000000180013971 f   node:node.exe
 0001:0001297d       __imp_load_?New@Object@v8@@SA?AV?$Local@VObject@v8@@@2@PEAVIsolate@2@@Z 000000018001397d f   node:node.exe
 0001:00012989       __imp_load_?SetAlignedPointerInInternalField@Object@v8@@QEAAXHPEAX@Z 0000000180013989 f   node:node.exe
 0001:00012995       __imp_load_?SetInternalField@Object@v8@@QEAAXHV?$Local@VValue@v8@@@2@@Z 0000000180013995 f   node:node.exe
 0001:000129a1       __imp_load_?InternalFieldCount@Object@v8@@QEAAHXZ 00000001800139a1 f   node:node.exe
 0001:000129ad       __imp_load_?Get@Object@v8@@QEAA?AV?$Local@VValue@v8@@@2@V32@@Z 00000001800139ad f   node:node.exe
 0001:000129b9       __imp_load_?Set@Object@v8@@QEAA?AV?$Maybe@_N@2@V?$Local@VContext@v8@@@2@V?$Local@VValue@v8@@@2@1@Z 00000001800139b9 f   node:node.exe
 0001:000129c5       __imp_load_?Call@Function@v8@@QEAA?AV?$MaybeLocal@VValue@v8@@@2@V?$Local@VContext@v8@@@2@V?$Local@VValue@v8@@@2@HQEAV52@@Z 00000001800139c5 f   node:node.exe
 0001:000129d1       __imp_load_?SetInternalFieldCount@ObjectTemplate@v8@@QEAAXH@Z 00000001800139d1 f   node:node.exe
 0001:000129dd       __imp_load_?SetAccessor@ObjectTemplate@v8@@QEAAXV?$Local@VName@v8@@@2@P6AX0AEBV?$PropertyCallbackInfo@VValue@v8@@@2@@ZP6AX0V?$Local@VValue@v8@@@2@AEBV?$PropertyCallbackInfo@X@2@@Z3W4AccessControl@2@W4PropertyAttribute@2@V?$Local@VAccessorSignature@v8@@@2@@Z 00000001800139dd f   node:node.exe
 0001:000129e9       __imp_load_?NewInstance@ObjectTemplate@v8@@QEAA?AV?$MaybeLocal@VObject@v8@@@2@V?$Local@VContext@v8@@@2@@Z 00000001800139e9 f   node:node.exe
 0001:000129f5       __imp_load_?New@ObjectTemplate@v8@@SA?AV?$Local@VObjectTemplate@v8@@@2@PEAVIsolate@2@V?$Local@VFunctionTemplate@v8@@@2@@Z 00000001800139f5 f   node:node.exe
 0001:00012a01       __imp_load_?EmitAsyncDestroy@node@@YAXPEAVIsolate@v8@@Uasync_context@1@@Z 0000000180013a01 f   node:node.exe
 0001:00012a0d       __imp_load_?New@Buffer@node@@YA?AV?$MaybeLocal@VObject@v8@@@v8@@PEAVIsolate@4@PEAD_KP6AX1PEAX@Z3@Z 0000000180013a0d f   node:node.exe
 0001:00012a19       __imp_load_?New@Buffer@node@@YA?AV?$MaybeLocal@VObject@v8@@@v8@@PEAVIsolate@4@PEAD_K@Z 0000000180013a19 f   node:node.exe
 0001:00012a25       __imp_load_?Data@Buffer@node@@YAPEADV?$Local@VObject@v8@@@v8@@@Z 0000000180013a25 f   node:node.exe
 0001:00012a31       __imp_load_?Copy@Buffer@node@@YA?AV?$MaybeLocal@VObject@v8@@@v8@@PEAVIsolate@4@PEBD_K@Z 0000000180013a31 f   node:node.exe
 0001:00012a3d       __imp_load_?MakeCallback@node@@YA?AV?$MaybeLocal@VValue@v8@@@v8@@PEAVIsolate@3@V?$Local@VObject@v8@@@3@V?$Local@VFunction@v8@@@3@HPEAV?$Local@VValue@v8@@@3@Uasync_context@1@@Z 0000000180013a3d f   node:node.exe
 0001:00012a49       __imp_load_?EmitAsyncInit@node@@YA?AUasync_context@1@PEAVIsolate@v8@@V?$Local@VObject@v8@@@4@V?$Local@VString@v8@@@4@N@Z 0000000180013a49 f   node:node.exe
 0001:00012a55       __imp_load_uv_default_loop 0000000180013a55 f   node:node.exe
 0001:00012a61       __imp_load_?ToObject@Value@v8@@QEBA?AV?$Local@VObject@v8@@@2@XZ 0000000180013a61 f   node:node.exe
 0001:00012a6d       __imp_load_??1EscapableHandleScope@v8@@QEAA@XZ 0000000180013a6d f   node:node.exe
 0001:00012a79       __imp_load_?HasInstance@FunctionTemplate@v8@@QEAA_NV?$Local@VValue@v8@@@2@@Z 0000000180013a79 f   node:node.exe
 0001:00012a85       __imp_load_?New@Uint8ClampedArray@v8@@SA?AV?$Local@VUint8ClampedArray@v8@@@2@V?$Local@VArrayBuffer@v8@@@2@_K1@Z 0000000180013a85 f   node:node.exe
 0001:00012a91       __imp_load_?New@Integer@v8@@SA?AV?$Local@VInteger@v8@@@2@PEAVIsolate@2@H@Z 0000000180013a91 f   node:node.exe
 0001:00012a9d       __imp_load_?ByteLength@ArrayBufferView@v8@@QEAA_KXZ 0000000180013a9d f   node:node.exe
 0001:00012aa9       __imp_load_?ByteOffset@ArrayBufferView@v8@@QEAA_KXZ 0000000180013aa9 f   node:node.exe
 0001:00012ab5       __imp_load_?Buffer@ArrayBufferView@v8@@QEAA?AV?$Local@VArrayBuffer@v8@@@2@XZ 0000000180013ab5 f   node:node.exe
 0001:00012ac1       __imp_load_?New@Array@v8@@SA?AV?$Local@VArray@v8@@@2@PEAVIsolate@2@H@Z 0000000180013ac1 f   node:node.exe
 0001:00012acd       __imp_load_?Length@Array@v8@@QEBAIXZ 0000000180013acd f   node:node.exe
 0001:00012ad9       __imp_load_?GetFunction@FunctionTemplate@v8@@QEAA?AV?$MaybeLocal@VFunction@v8@@@2@V?$Local@VContext@v8@@@2@@Z 0000000180013ad9 f   node:node.exe
 0001:00012ae5       __imp_load_?GetContents@ArrayBuffer@v8@@QEAA?AVContents@12@XZ 0000000180013ae5 f   node:node.exe
 0001:00012af1       __imp_load_?New@ArrayBuffer@v8@@SA?AV?$Local@VArrayBuffer@v8@@@2@PEAVIsolate@2@_K@Z 0000000180013af1 f   node:node.exe
 0001:00012afd       __imp_load_?Int32Value@Value@v8@@QEBAHXZ 0000000180013afd f   node:node.exe
 0001:00012b09       __imp_load_?ToInt32@Value@v8@@QEBA?AV?$MaybeLocal@VInt32@v8@@@2@V?$Local@VContext@v8@@@2@@Z 0000000180013b09 f   node:node.exe
 0001:00012b15       __imp_load_?IsArrayBufferView@Value@v8@@QEBA_NXZ 0000000180013b15 f   node:node.exe
 0001:00012b21       __imp_load_?IsInt32@Value@v8@@QEBA_NXZ 0000000180013b21 f   node:node.exe
 0001:00012b2d       __imp_load_?IsObject@Value@v8@@QEBA_NXZ 0000000180013b2d f   node:node.exe
 0001:00012b39       __imp_load_?IsArray@Value@v8@@QEBA_NXZ 0000000180013b39 f   node:node.exe
 0001:00012b45       __imp_load_?Get@Object@v8@@QEAA?AV?$Local@VValue@v8@@@2@I@Z 0000000180013b45 f   node:node.exe
 0001:00012b51       __imp_load_?Set@Object@v8@@QEAA_NV?$Local@VValue@v8@@@2@0@Z 0000000180013b51 f   node:node.exe
 0001:00012b5d       __imp_load_?NewInstance@Function@v8@@QEBA?AV?$MaybeLocal@VObject@v8@@@2@V?$Local@VContext@v8@@@2@HQEAV?$Local@VValue@v8@@@2@@Z 0000000180013b5d f   node:node.exe
 0001:00012b69       __imp_load_?ToString@Value@v8@@QEBA?AV?$Local@VString@v8@@@2@XZ 0000000180013b69 f   node:node.exe
 0001:00012b75       __imp_load_?HasInstance@Buffer@node@@YA_NV?$Local@VValue@v8@@@v8@@@Z 0000000180013b75 f   node:node.exe
 0001:00012b81       __imp_load_?Length@Buffer@node@@YA_KV?$Local@VObject@v8@@@v8@@@Z 0000000180013b81 f   node:node.exe
 0001:00012b8d       __imp_load_?Length@TypedArray@v8@@QEAA_KXZ 0000000180013b8d f   node:node.exe
 0001:00012b99       __imp_load_?IsUint8ClampedArray@Value@v8@@QEBA_NXZ 0000000180013b99 f   node:node.exe
 0001:00012ba5       __imp_load_node_module_register 0000000180013ba5 f   node:node.exe
 0001:00012bb4       ??0bad_alloc@std@@QEAA@AEBV01@@Z 0000000180013bb4 f i libcpmt:xthrow.obj
 0001:00012bf4       ??0bad_alloc@std@@QEAA@XZ  0000000180013bf4 f i libcpmt:xthrow.obj
 0001:00012c14       ??0exception@std@@QEAA@AEBV01@@Z 0000000180013c14 f i libcpmt:xthrow.obj
 0001:00012c4c       ??0length_error@std@@QEAA@AEBV01@@Z 0000000180013c4c f i libcpmt:xthrow.obj
 0001:00012c8c       ??0length_error@std@@QEAA@PEBD@Z 0000000180013c8c f i libcpmt:xthrow.obj
 0001:00012cd8       ??0logic_error@std@@QEAA@AEBV01@@Z 0000000180013cd8 f i libcpmt:xthrow.obj
 0001:00012d18       ??1bad_alloc@std@@UEAA@XZ  0000000180013d18 f i libcpmt:xthrow.obj
 0001:00012d18       ??1bad_exception@std@@UEAA@XZ 0000000180013d18 f i libvcruntime:frame.obj
 0001:00012d18       ??1bad_array_new_length@std@@UEAA@XZ 0000000180013d18 f i LIBCMT:throw_bad_alloc.obj
 0001:00012d18       ??1length_error@std@@UEAA@XZ 0000000180013d18 f i libcpmt:xthrow.obj
 0001:00012d2c       ??_Gbad_alloc@std@@UEAAPEAXI@Z 0000000180013d2c f i libcpmt:xthrow.obj
 0001:00012d2c       ??_Eexception@std@@UEAAPEAXI@Z 0000000180013d2c f i libcpmt:xthrow.obj
 0001:00012d2c       ??_Glogic_error@std@@UEAAPEAXI@Z 0000000180013d2c f i libcpmt:xthrow.obj
 0001:00012d2c       ??_Elogic_error@std@@UEAAPEAXI@Z 0000000180013d2c f i libcpmt:xthrow.obj
 0001:00012d2c       ??_Glength_error@std@@UEAAPEAXI@Z 0000000180013d2c f i libcpmt:xthrow.obj
 0001:00012d2c       ??_Ebad_exception@std@@UEAAPEAXI@Z 0000000180013d2c f i libvcruntime:frame.obj
 0001:00012d2c       ??_Ebad_alloc@std@@UEAAPEAXI@Z 0000000180013d2c f i libcpmt:xthrow.obj
 0001:00012d2c       ??_Elength_error@std@@UEAAPEAXI@Z 0000000180013d2c f i libcpmt:xthrow.obj
 0001:00012d2c       ??_Gbad_array_new_length@std@@UEAAPEAXI@Z 0000000180013d2c f i LIBCMT:throw_bad_alloc.obj
 0001:00012d2c       ??_Gbad_exception@std@@UEAAPEAXI@Z 0000000180013d2c f i libvcruntime:frame.obj
 0001:00012d2c       ??_Ebad_array_new_length@std@@UEAAPEAXI@Z 0000000180013d2c f i LIBCMT:throw_bad_alloc.obj
 0001:00012d2c       ??_Gexception@std@@UEAAPEAXI@Z 0000000180013d2c f i libcpmt:xthrow.obj
 0001:00012d70       ?_Xlength_error@std@@YAXPEBD@Z 0000000180013d70 f   libcpmt:xthrow.obj
 0001:00012d94       ?what@exception@std@@UEBAPEBDXZ 0000000180013d94 f i libcpmt:xthrow.obj
 0001:00012dc0       __security_check_cookie    0000000180013dc0 f   LIBCMT:_amdsecgs_.obj
 0001:00012de4       ??2@YAPEAX_K@Z             0000000180013de4 f   LIBCMT:new_scalar.obj
 0001:00012e20       __scrt_acquire_startup_lock 0000000180013e20 f   LIBCMT:utility.obj
 0001:00012e5c       __scrt_dllmain_after_initialize_c 0000000180013e5c f   LIBCMT:utility.obj
 0001:00012e90       __scrt_dllmain_before_initialize_c 0000000180013e90 f   LIBCMT:utility.obj
 0001:00012ea8       __scrt_dllmain_crt_thread_attach 0000000180013ea8 f   LIBCMT:utility.obj
 0001:00012ed0       __scrt_dllmain_crt_thread_detach 0000000180013ed0 f   LIBCMT:utility.obj
 0001:00012ee8       __scrt_dllmain_exception_filter 0000000180013ee8 f   LIBCMT:utility.obj
 0001:00012f4c       __scrt_dllmain_uninitialize_c 0000000180013f4c f   LIBCMT:utility.obj
 0001:00012f7c       __scrt_dllmain_uninitialize_critical 0000000180013f7c f   LIBCMT:utility.obj
 0001:00012f90       __scrt_initialize_crt      0000000180013f90 f   LIBCMT:utility.obj
 0001:00012fdc       __scrt_initialize_onexit_tables 0000000180013fdc f   LIBCMT:utility.obj
 0001:000130bc       __scrt_is_nonwritable_in_current_image 00000001800140bc f   LIBCMT:utility.obj
 0001:00013158       __scrt_release_startup_lock 0000000180014158 f   LIBCMT:utility.obj
 0001:0001317c       __scrt_uninitialize_crt    000000018001417c f   LIBCMT:utility.obj
 0001:000131a8       _onexit                    00000001800141a8 f   LIBCMT:utility.obj
 0001:000131f8       atexit                     00000001800141f8 f   LIBCMT:utility.obj
 0001:00013210       ??3@YAXPEAX_K@Z            0000000180014210 f   LIBCMT:delete_scalar_size.obj
 0001:0001355c       _DllMainCRTStartup         000000018001455c f   LIBCMT:dll_dllmain.obj
 0001:0001359c       ??_Gtype_info@@UEAAPEAXI@Z 000000018001459c f i LIBCMT:std_type_info_static.obj
 0001:0001359c       ??_Etype_info@@UEAAPEAXI@Z 000000018001459c f i LIBCMT:std_type_info_static.obj
 0001:000135c8       __raise_securityfailure    00000001800145c8 f   LIBCMT:gs_report.obj
 0001:000135fc       __report_gsfailure         00000001800145fc f   LIBCMT:gs_report.obj
 0001:000136d0       __report_rangecheckfailure 00000001800146d0 f   LIBCMT:gs_report.obj
 0001:000136e4       __report_securityfailure   00000001800146e4 f   LIBCMT:gs_report.obj
 0001:00013864       ??0bad_array_new_length@std@@QEAA@AEBV01@@Z 0000000180014864 f i LIBCMT:throw_bad_alloc.obj
 0001:000138a4       ??0bad_array_new_length@std@@QEAA@XZ 00000001800148a4 f i LIBCMT:throw_bad_alloc.obj
 0001:000138c4       ?__scrt_throw_std_bad_alloc@@YAXXZ 00000001800148c4 f   LIBCMT:throw_bad_alloc.obj
 0001:000138e4       ?__scrt_throw_std_bad_array_new_length@@YAXXZ 00000001800148e4 f   LIBCMT:throw_bad_alloc.obj
 0001:00013904       __isa_available_init       0000000180014904 f   LIBCMT:_cpu_disp_.obj
 0001:00013ac0       _get_startup_argv_mode     0000000180014ac0 f   LIBCMT:argv_mode.obj
 0001:00013ac0       DllMain                    0000000180014ac0 f   LIBCMT:dll_dllmain_stub.obj
 0001:00013ac8       __scrt_is_ucrt_dll_in_use  0000000180014ac8 f   LIBCMT:ucrt_detection.obj
 0001:00013ad4       __crt_debugger_hook        0000000180014ad4 f   LIBCMT:utility_desktop.obj
 0001:00013adc       __scrt_fastfail            0000000180014adc f   LIBCMT:utility_desktop.obj
 0001:00013c28       _guard_check_icall         0000000180014c28 f i LIBCMT:checkcfg.obj
 0001:00013c30       ??3@YAXPEAX@Z              0000000180014c30 f   LIBCMT:delete_scalar.obj
 0001:00013c38       __security_init_cookie     0000000180014c38 f   LIBCMT:gs_support.obj
 0001:00013ce8       ?__scrt_initialize_type_info@@YAXXZ 0000000180014ce8 f   LIBCMT:tncleanup.obj
 0001:00013cf8       ?__scrt_uninitialize_type_info@@YAXXZ 0000000180014cf8 f   LIBCMT:tncleanup.obj
 0001:00013d04       __local_stdio_scanf_options 0000000180014d04 f i LIBCMT:default_local_stdio_options.obj
 0001:00013d0c       __scrt_initialize_default_local_stdio_options 0000000180014d0c f   LIBCMT:default_local_stdio_options.obj
 0001:00013d28       __scrt_get_dyn_tls_init_callback 0000000180014d28 f   LIBCMT:dyn_tls_init.obj
 0001:00013d30       _RTC_Initialize            0000000180014d30 f   LIBCMT:_initsect_.obj
 0001:00013d7c       _RTC_Terminate             0000000180014d7c f   LIBCMT:_initsect_.obj
 0001:00013dd0       ?_ExecutionInCatch@@YAHPEAU_xDISPATCHER_CONTEXT@@PEBU_s_FuncInfo@@@Z 0000000180014dd0 f   libvcruntime:risctrnsctrl.obj
 0001:00013e44       ?_GetEstablisherFrame@@YAPEA_KPEA_KPEAU_xDISPATCHER_CONTEXT@@PEBU_s_FuncInfo@@0@Z 0000000180014e44 f   libvcruntime:risctrnsctrl.obj
 0001:00013f10       ?_GetRangeOfTrysToCheck@@YAPEBU_s_TryBlockMapEntry@@PEA_KPEBU_s_FuncInfo@@HHPEAI2PEAU_xDISPATCHER_CONTEXT@@@Z 0000000180014f10 f   libvcruntime:risctrnsctrl.obj
 0001:0001403c       ?__FrameUnwindToEmptyState@@YAXPEA_KPEAU_xDISPATCHER_CONTEXT@@PEBU_s_FuncInfo@@@Z 000000018001503c f   libvcruntime:risctrnsctrl.obj
 0001:000140d0       _CallSETranslator          00000001800150d0 f   libvcruntime:risctrnsctrl.obj
 0001:00014128       _CreateFrameInfo           0000000180015128 f   libvcruntime:risctrnsctrl.obj
 0001:00014164       _FindAndUnlinkFrame        0000000180015164 f   libvcruntime:risctrnsctrl.obj
 0001:000141c0       _GetImageBase              00000001800151c0 f   libvcruntime:risctrnsctrl.obj
 0001:000141d4       _GetThrowImageBase         00000001800151d4 f   libvcruntime:risctrnsctrl.obj
 0001:000141e8       _SetImageBase              00000001800151e8 f   libvcruntime:risctrnsctrl.obj
 0001:00014200       _SetThrowImageBase         0000000180015200 f   libvcruntime:risctrnsctrl.obj
 0001:00014218       _UnwindNestedFrames        0000000180015218 f   libvcruntime:risctrnsctrl.obj
 0001:0001433c       __CxxFrameHandler3         000000018001533c f   libvcruntime:risctrnsctrl.obj
 0001:000143bc       longjmp                    00000001800153bc f   libvcruntime:longjmpc.obj
 0001:000143e4       __DestructExceptionObject  00000001800153e4 f   libvcruntime:ehhelpers.obj
 0001:00014468       ?_CallMemberFunction0@@YAXQEAX0@Z 0000000180015468 f i libvcruntime:ehhelpers.obj
 0001:0001446c       _IsExceptionObjectToBeDestroyed 000000018001546c f   libvcruntime:ehhelpers.obj
 0001:0001449c       __AdjustPointer            000000018001549c f   libvcruntime:ehhelpers.obj
 0001:000144c0       __FrameUnwindFilter        00000001800154c0 f   libvcruntime:ehhelpers.obj
 0001:0001450c       __std_terminate            000000018001550c f   libvcruntime:ehhelpers.obj
 0001:00014518       strstr                     0000000180015518 f   libvcruntime:strstr.obj
 0001:00014714       __std_exception_copy       0000000180015714 f   libvcruntime:std_exception.obj
 0001:000147a4       __std_exception_destroy    00000001800157a4 f   libvcruntime:std_exception.obj
 0001:000147cc       _CxxThrowException         00000001800157cc f   libvcruntime:throw.obj
 0001:000148a4       __vcrt_initialize          00000001800158a4 f   libvcruntime:initialization.obj
 0001:000148d8       __vcrt_thread_attach       00000001800158d8 f   libvcruntime:initialization.obj
 0001:000148ec       __vcrt_thread_detach       00000001800158ec f   libvcruntime:initialization.obj
 0001:00014900       __vcrt_uninitialize        0000000180015900 f   libvcruntime:initialization.obj
 0001:00014920       __vcrt_uninitialize_critical 0000000180015920 f   libvcruntime:initialization.obj
 0001:00014930       __C_specific_handler       0000000180015930 f   libvcruntime:_riscchandler_.obj
 0001:00014b50       memset                     0000000180015b50 f   libvcruntime:memset.obj
 0001:00014d00       __std_type_info_compare    0000000180015d00 f   libvcruntime:std_type_info.obj
 0001:00014d28       __std_type_info_destroy_list 0000000180015d28 f   libvcruntime:std_type_info.obj
 0001:00014d54       __vcrt_freefls             0000000180015d54 f   libvcruntime:per_thread_data.obj
 0001:00014d74       __vcrt_freeptd             0000000180015d74 f   libvcruntime:per_thread_data.obj
 0001:00014dc4       __vcrt_getptd              0000000180015dc4 f   libvcruntime:per_thread_data.obj
 0001:00014de0       __vcrt_getptd_noexit       0000000180015de0 f   libvcruntime:per_thread_data.obj
 0001:00014e98       __vcrt_initialize_ptd      0000000180015e98 f   libvcruntime:per_thread_data.obj
 0001:00014eec       __vcrt_uninitialize_ptd    0000000180015eec f   libvcruntime:per_thread_data.obj
 0001:00014f10       ?__GetCurrentState@@YAHPEA_KPEAU_xDISPATCHER_CONTEXT@@PEBU_s_FuncInfo@@@Z 0000000180015f10 f   libvcruntime:riscehstate.obj
 0001:00014f38       ?__GetUnwindTryBlock@@YAHPEA_KPEAU_xDISPATCHER_CONTEXT@@PEBU_s_FuncInfo@@@Z 0000000180015f38 f   libvcruntime:riscehstate.obj
 0001:00014f64       ?__SetState@@YAXPEA_KPEAU_xDISPATCHER_CONTEXT@@PEBU_s_FuncInfo@@H@Z 0000000180015f64 f   libvcruntime:riscehstate.obj
 0001:00014f70       ?__SetUnwindTryBlock@@YAXPEA_KPEAU_xDISPATCHER_CONTEXT@@PEBU_s_FuncInfo@@H@Z 0000000180015f70 f   libvcruntime:riscehstate.obj
 0001:00014fac       ?__StateFromControlPc@@YAHPEBU_s_FuncInfo@@PEAU_xDISPATCHER_CONTEXT@@@Z 0000000180015fac f   libvcruntime:riscehstate.obj
 0001:00014fb4       ?__StateFromIp@@YAHPEBU_s_FuncInfo@@PEAU_xDISPATCHER_CONTEXT@@_K@Z 0000000180015fb4 f   libvcruntime:riscehstate.obj
 0001:00015020       ??0bad_exception@std@@QEAA@AEBV01@@Z 0000000180016020 f i libvcruntime:frame.obj
 0001:00015060       ??0bad_exception@std@@QEAA@XZ 0000000180016060 f i libvcruntime:frame.obj
 0001:000159c8       ?_CallMemberFunction1@@YAXQEAX00@Z 00000001800169c8 f i libvcruntime:frame.obj
 0001:000159d4       ?_CallMemberFunction2@@YAXQEAX00H@Z 00000001800169d4 f i libvcruntime:frame.obj
 0001:000159e4       __BuildCatchObject         00000001800169e4 f   libvcruntime:frame.obj
 0001:00015aa8       __BuildCatchObjectHelper   0000000180016aa8 f   libvcruntime:frame.obj
 0001:00015cac       __CxxCallCatchBlock        0000000180016cac f   libvcruntime:frame.obj
 0001:00015e98       __FrameUnwindToState       0000000180016e98 f   libvcruntime:frame.obj
 0001:0001602c       __InternalCxxFrameHandler  000000018001702c f   libvcruntime:frame.obj
 0001:0001627c       __TypeMatch                000000018001727c f   libvcruntime:frame.obj
 0001:000163c0       __except_validate_context_record 00000001800173c0 f   libvcruntime:jbcxrval.obj
 0001:000163f8       __except_validate_jump_buffer 00000001800173f8 f   libvcruntime:jbcxrval.obj
 0001:00016438       __vcrt_initialize_locks    0000000180017438 f   libvcruntime:locks.obj
 0001:00016480       __vcrt_uninitialize_locks  0000000180017480 f   libvcruntime:locks.obj
 0001:00016690       __vcrt_FlsAlloc            0000000180017690 f   libvcruntime:winapi_downlevel.obj
 0001:000166e4       __vcrt_FlsFree             00000001800176e4 f   libvcruntime:winapi_downlevel.obj
 0001:00016738       __vcrt_FlsGetValue         0000000180017738 f   libvcruntime:winapi_downlevel.obj
 0001:0001678c       __vcrt_FlsSetValue         000000018001778c f   libvcruntime:winapi_downlevel.obj
 0001:000167f4       __vcrt_InitializeCriticalSectionEx 00000001800177f4 f   libvcruntime:winapi_downlevel.obj
 0001:0001686c       __vcrt_initialize_winapi_thunks 000000018001786c f   libvcruntime:winapi_downlevel.obj
 0001:000168b0       __vcrt_uninitialize_winapi_thunks 00000001800178b0 f   libvcruntime:winapi_downlevel.obj
 0001:000168f0       __vcrt_initialize_pure_virtual_call_handler 00000001800178f0 f   libvcruntime:purevirt_data.obj
 0001:00016930       _local_unwind              0000000180017930 f   libvcruntime:_jmpuwind_.obj
 0001:00016960       _NLG_Notify                0000000180017960 f   libvcruntime:_jmpuwind_.obj
 0001:00016980       __NLG_Dispatch2            0000000180017980 f   libvcruntime:_jmpuwind_.obj
 0001:00016990       __NLG_Return2              0000000180017990 f   libvcruntime:_jmpuwind_.obj
 0001:000169b0       memmove                    00000001800179b0 f   libvcruntime:memcpy.obj
 0001:000169b0       memcpy                     00000001800179b0 f   libvcruntime:memcpy.obj
 0001:00016e10       _CallSettingFrame          0000000180017e10 f   libvcruntime:handlers.obj
 0001:00016e50       realloc                    0000000180017e50 f   libucrt:realloc.obj
 0001:00016e58       free                       0000000180017e58 f   libucrt:free.obj
 0001:00017840       ??$ftprintf@PEAU_iobuf@@PEB_WAEBQEB_WAEBQEB_WAEBI@?$__crt_char_traits@_W@@SAH$$QEAPEAU_iobuf@@$$QEAPEB_WAEBQEB_W2AEBI@Z 0000000180018840 f i libucrt:assert.obj
 0001:00017868       _wassert                   0000000180018868 f   libucrt:assert.obj
 0001:000178ec       fwprintf                   00000001800188ec f i libucrt:assert.obj
 0001:00017930       swprintf                   0000000180018930 f i libucrt:assert.obj
 0001:00017984       malloc                     0000000180018984 f   libucrt:malloc.obj
 0001:0001798c       _isnan                     000000018001898c f   libucrt:ieeemisc.obj
 0001:000179b8       _finite                    00000001800189b8 f   libucrt:_finite.obj
 0001:000179e4       __acrt_call_reportfault    00000001800189e4 f   libucrt:invalid_parameter.obj
 0001:00017b40       __acrt_initialize_invalid_parameter_handler 0000000180018b40 f   libucrt:invalid_parameter.obj
 0001:00017b48       _invalid_parameter         0000000180018b48 f   libucrt:invalid_parameter.obj
 0001:00017bf8       _invalid_parameter_noinfo  0000000180018bf8 f   libucrt:invalid_parameter.obj
 0001:00017c18       _invalid_parameter_noinfo_noreturn 0000000180018c18 f   libucrt:invalid_parameter.obj
 0001:00017c48       _invoke_watson             0000000180018c48 f   libucrt:invalid_parameter.obj
 0001:00017c90       __acrt_initialize_stdio    0000000180018c90 f   libucrt:_file.obj
 0001:00017db0       __acrt_iob_func            0000000180018db0 f   libucrt:_file.obj
 0001:00017dc4       __acrt_uninitialize_stdio  0000000180018dc4 f   libucrt:_file.obj
 0001:00017e20       _lock_file                 0000000180018e20 f   libucrt:_file.obj
 0001:00017e2c       _unlock_file               0000000180018e2c f   libucrt:_file.obj
 0001:00018218       ??$ensure_buffer_is_big_enough@D@formatting_buffer@__crt_stdio_output@@QEAA_N_K@Z 0000000180019218 f i libucrt:output.obj
 0001:000182c0       ??$ensure_buffer_is_big_enough@_W@formatting_buffer@__crt_stdio_output@@QEAA_N_K@Z 00000001800192c0 f i libucrt:output.obj
 0001:0001836c       ??$is_wide_character_specifier@_W@__crt_stdio_output@@YA_N_K_WW4length_modifier@0@@Z 000000018001936c f i libucrt:output.obj
 0001:000183ac       ??$type_case_integer_parse_into_buffer@I@?$output_processor@DV?$string_output_adapter@D@__crt_stdio_output@@V?$standard_base@DV?$string_output_adapter@D@__crt_stdio_output@@@2@@__crt_stdio_output@@AEAAXII_N@Z 00000001800193ac f i libucrt:output.obj
 0001:00018434       ??$type_case_integer_parse_into_buffer@I@?$output_processor@_WV?$string_output_adapter@_W@__crt_stdio_output@@V?$standard_base@_WV?$string_output_adapter@_W@__crt_stdio_output@@@2@@__crt_stdio_output@@AEAAXII_N@Z 0000000180019434 f i libucrt:output.obj
 0001:00018434       ??$type_case_integer_parse_into_buffer@I@?$output_processor@_WV?$stream_output_adapter@_W@__crt_stdio_output@@V?$standard_base@_WV?$stream_output_adapter@_W@__crt_stdio_output@@@2@@__crt_stdio_output@@AEAAXII_N@Z 0000000180019434 f i libucrt:output.obj
 0001:000184d0       ??$type_case_integer_parse_into_buffer@_K@?$output_processor@DV?$string_output_adapter@D@__crt_stdio_output@@V?$standard_base@DV?$string_output_adapter@D@__crt_stdio_output@@@2@@__crt_stdio_output@@AEAAX_KI_N@Z 00000001800194d0 f i libucrt:output.obj
 0001:00018560       ??$type_case_integer_parse_into_buffer@_K@?$output_processor@_WV?$stream_output_adapter@_W@__crt_stdio_output@@V?$standard_base@_WV?$stream_output_adapter@_W@__crt_stdio_output@@@2@@__crt_stdio_output@@AEAAX_KI_N@Z 0000000180019560 f i libucrt:output.obj
 0001:00018560       ??$type_case_integer_parse_into_buffer@_K@?$output_processor@_WV?$string_output_adapter@_W@__crt_stdio_output@@V?$standard_base@_WV?$string_output_adapter@_W@__crt_stdio_output@@@2@@__crt_stdio_output@@AEAAX_KI_N@Z 0000000180019560 f i libucrt:output.obj
 0001:00018600       ??$write_multiple_characters@V?$stream_output_adapter@_W@__crt_stdio_output@@D@__crt_stdio_output@@YAXAEBV?$stream_output_adapter@_W@0@DHQEAH@Z 0000000180019600 f i libucrt:output.obj
 0001:0001868c       ??$write_multiple_characters@V?$string_output_adapter@D@__crt_stdio_output@@D@__crt_stdio_output@@YAXAEBV?$string_output_adapter@D@0@DHQEAH@Z 000000018001968c f i libucrt:output.obj
 0001:000186e8       ??$write_multiple_characters@V?$string_output_adapter@_W@__crt_stdio_output@@D@__crt_stdio_output@@YAXAEBV?$string_output_adapter@_W@0@DHQEAH@Z 00000001800196e8 f i libucrt:output.obj
 0001:00018758       ??0_LocaleUpdate@@QEAA@QEAU__crt_locale_pointers@@@Z 0000000180019758 f i libucrt:output.obj
 0001:0001891c       ?force_decimal_point@__crt_stdio_output@@YAXPEADQEAU__crt_locale_pointers@@@Z 000000018001991c f i libucrt:output.obj
 0001:0001898c       ?parse_int_from_format_string@?$output_processor@DV?$string_output_adapter@D@__crt_stdio_output@@V?$standard_base@DV?$string_output_adapter@D@__crt_stdio_output@@@2@@__crt_stdio_output@@AEAA_NQEAH@Z 000000018001998c f i libucrt:output.obj
 0001:00018a30       ?parse_int_from_format_string@?$output_processor@_WV?$string_output_adapter@_W@__crt_stdio_output@@V?$standard_base@_WV?$string_output_adapter@_W@__crt_stdio_output@@@2@@__crt_stdio_output@@AEAA_NQEAH@Z 0000000180019a30 f i libucrt:output.obj
 0001:00018a30       ?parse_int_from_format_string@?$output_processor@_WV?$stream_output_adapter@_W@__crt_stdio_output@@V?$standard_base@_WV?$stream_output_adapter@_W@__crt_stdio_output@@@2@@__crt_stdio_output@@AEAA_NQEAH@Z 0000000180019a30 f i libucrt:output.obj
 0001:00018ad4       ?process@?$output_processor@DV?$string_output_adapter@D@__crt_stdio_output@@V?$standard_base@DV?$string_output_adapter@D@__crt_stdio_output@@@2@@__crt_stdio_output@@QEAAHXZ 0000000180019ad4 f i libucrt:output.obj
 0001:00018cdc       ?process@?$output_processor@_WV?$stream_output_adapter@_W@__crt_stdio_output@@V?$standard_base@_WV?$stream_output_adapter@_W@__crt_stdio_output@@@2@@__crt_stdio_output@@QEAAHXZ 0000000180019cdc f i libucrt:output.obj
 0001:00018f4c       ?process@?$output_processor@_WV?$string_output_adapter@_W@__crt_stdio_output@@V?$standard_base@_WV?$string_output_adapter@_W@__crt_stdio_output@@@2@@__crt_stdio_output@@QEAAHXZ 0000000180019f4c f i libucrt:output.obj
 0001:000191b4       ?state_case_normal@?$output_processor@DV?$string_output_adapter@D@__crt_stdio_output@@V?$standard_base@DV?$string_output_adapter@D@__crt_stdio_output@@@2@@__crt_stdio_output@@AEAA_NXZ 000000018001a1b4 f i libucrt:output.obj
 0001:00019228       ?state_case_normal_tchar@?$output_processor@DV?$string_output_adapter@D@__crt_stdio_output@@V?$standard_base@DV?$string_output_adapter@D@__crt_stdio_output@@@2@@__crt_stdio_output@@AEAA_ND@Z 000000018001a228 f i libucrt:output.obj
 0001:000192c0       ?state_case_size@?$output_processor@DV?$string_output_adapter@D@__crt_stdio_output@@V?$standard_base@DV?$string_output_adapter@D@__crt_stdio_output@@@2@@__crt_stdio_output@@AEAA_NXZ 000000018001a2c0 f i libucrt:output.obj
 0001:0001943c       ?state_case_size@?$output_processor@_WV?$stream_output_adapter@_W@__crt_stdio_output@@V?$standard_base@_WV?$stream_output_adapter@_W@__crt_stdio_output@@@2@@__crt_stdio_output@@AEAA_NXZ 000000018001a43c f i libucrt:output.obj
 0001:000195e0       ?state_case_size@?$output_processor@_WV?$string_output_adapter@_W@__crt_stdio_output@@V?$standard_base@_WV?$string_output_adapter@_W@__crt_stdio_output@@@2@@__crt_stdio_output@@AEAA_NXZ 000000018001a5e0 f i libucrt:output.obj
 0001:00019784       ?state_case_type@?$output_processor@DV?$string_output_adapter@D@__crt_stdio_output@@V?$standard_base@DV?$string_output_adapter@D@__crt_stdio_output@@@2@@__crt_stdio_output@@AEAA_NXZ 000000018001a784 f i libucrt:output.obj
 0001:000199f8       ?state_case_type@?$output_processor@_WV?$stream_output_adapter@_W@__crt_stdio_output@@V?$standard_base@_WV?$stream_output_adapter@_W@__crt_stdio_output@@@2@@__crt_stdio_output@@AEAA_NXZ 000000018001a9f8 f i libucrt:output.obj
 0001:00019ce4       ?state_case_type@?$output_processor@_WV?$string_output_adapter@_W@__crt_stdio_output@@V?$standard_base@_WV?$string_output_adapter@_W@__crt_stdio_output@@@2@@__crt_stdio_output@@AEAA_NXZ 000000018001ace4 f i libucrt:output.obj
 0001:00019fc0       ?type_case_Z@?$output_processor@DV?$string_output_adapter@D@__crt_stdio_output@@V?$standard_base@DV?$string_output_adapter@D@__crt_stdio_output@@@2@@__crt_stdio_output@@AEAA_NXZ 000000018001afc0 f i libucrt:output.obj
 0001:0001a040       ?type_case_Z@?$output_processor@_WV?$string_output_adapter@_W@__crt_stdio_output@@V?$standard_base@_WV?$string_output_adapter@_W@__crt_stdio_output@@@2@@__crt_stdio_output@@AEAA_NXZ 000000018001b040 f i libucrt:output.obj
 0001:0001a040       ?type_case_Z@?$output_processor@_WV?$stream_output_adapter@_W@__crt_stdio_output@@V?$standard_base@_WV?$stream_output_adapter@_W@__crt_stdio_output@@@2@@__crt_stdio_output@@AEAA_NXZ 000000018001b040 f i libucrt:output.obj
 0001:0001a0c0       ?type_case_a@?$output_processor@DV?$string_output_adapter@D@__crt_stdio_output@@V?$standard_base@DV?$string_output_adapter@D@__crt_stdio_output@@@2@@__crt_stdio_output@@AEAA_NXZ 000000018001b0c0 f i libucrt:output.obj
 0001:0001a2d8       ?type_case_a@?$output_processor@_WV?$stream_output_adapter@_W@__crt_stdio_output@@V?$standard_base@_WV?$stream_output_adapter@_W@__crt_stdio_output@@@2@@__crt_stdio_output@@AEAA_NXZ 000000018001b2d8 f i libucrt:output.obj
 0001:0001a2d8       ?type_case_a@?$output_processor@_WV?$string_output_adapter@_W@__crt_stdio_output@@V?$standard_base@_WV?$string_output_adapter@_W@__crt_stdio_output@@@2@@__crt_stdio_output@@AEAA_NXZ 000000018001b2d8 f i libucrt:output.obj
 0001:0001a518       ?type_case_c_tchar@?$output_processor@DV?$string_output_adapter@D@__crt_stdio_output@@V?$standard_base@DV?$string_output_adapter@D@__crt_stdio_output@@@2@@__crt_stdio_output@@AEAA_ND@Z 000000018001b518 f i libucrt:output.obj
 0001:0001a5e4       ?type_case_c_tchar@?$output_processor@_WV?$stream_output_adapter@_W@__crt_stdio_output@@V?$standard_base@_WV?$stream_output_adapter@_W@__crt_stdio_output@@@2@@__crt_stdio_output@@AEAA_N_W@Z 000000018001b5e4 f i libucrt:output.obj
 0001:0001a5e4       ?type_case_c_tchar@?$output_processor@_WV?$string_output_adapter@_W@__crt_stdio_output@@V?$standard_base@_WV?$string_output_adapter@_W@__crt_stdio_output@@@2@@__crt_stdio_output@@AEAA_N_W@Z 000000018001b5e4 f i libucrt:output.obj
 0001:0001a68c       ?type_case_integer@?$output_processor@DV?$string_output_adapter@D@__crt_stdio_output@@V?$standard_base@DV?$string_output_adapter@D@__crt_stdio_output@@@2@@__crt_stdio_output@@AEAA_NI_N@Z 000000018001b68c f i libucrt:output.obj
 0001:0001a850       ?type_case_integer@?$output_processor@_WV?$stream_output_adapter@_W@__crt_stdio_output@@V?$standard_base@_WV?$stream_output_adapter@_W@__crt_stdio_output@@@2@@__crt_stdio_output@@AEAA_NI_N@Z 000000018001b850 f i libucrt:output.obj
 0001:0001a850       ?type_case_integer@?$output_processor@_WV?$string_output_adapter@_W@__crt_stdio_output@@V?$standard_base@_WV?$string_output_adapter@_W@__crt_stdio_output@@@2@@__crt_stdio_output@@AEAA_NI_N@Z 000000018001b850 f i libucrt:output.obj
 0001:0001aa1c       ?type_case_n@?$output_processor@_WV?$string_output_adapter@_W@__crt_stdio_output@@V?$standard_base@_WV?$string_output_adapter@_W@__crt_stdio_output@@@2@@__crt_stdio_output@@AEAA_NXZ 000000018001ba1c f i libucrt:output.obj
 0001:0001aa1c       ?type_case_n@?$output_processor@_WV?$stream_output_adapter@_W@__crt_stdio_output@@V?$standard_base@_WV?$stream_output_adapter@_W@__crt_stdio_output@@@2@@__crt_stdio_output@@AEAA_NXZ 000000018001ba1c f i libucrt:output.obj
 0001:0001aa1c       ?type_case_n@?$output_processor@DV?$string_output_adapter@D@__crt_stdio_output@@V?$standard_base@DV?$string_output_adapter@D@__crt_stdio_output@@@2@@__crt_stdio_output@@AEAA_NXZ 000000018001ba1c f i libucrt:output.obj
 0001:0001aaf8       ?type_case_s@?$output_processor@DV?$string_output_adapter@D@__crt_stdio_output@@V?$standard_base@DV?$string_output_adapter@D@__crt_stdio_output@@@2@@__crt_stdio_output@@AEAA_NXZ 000000018001baf8 f i libucrt:output.obj
 0001:0001ab94       ?type_case_s@?$output_processor@_WV?$stream_output_adapter@_W@__crt_stdio_output@@V?$standard_base@_WV?$stream_output_adapter@_W@__crt_stdio_output@@@2@@__crt_stdio_output@@AEAA_NXZ 000000018001bb94 f i libucrt:output.obj
 0001:0001ab94       ?type_case_s@?$output_processor@_WV?$string_output_adapter@_W@__crt_stdio_output@@V?$standard_base@_WV?$string_output_adapter@_W@__crt_stdio_output@@@2@@__crt_stdio_output@@AEAA_NXZ 000000018001bb94 f i libucrt:output.obj
 0001:0001ac5c       ?write_stored_string_tchar@?$output_processor@DV?$string_output_adapter@D@__crt_stdio_output@@V?$standard_base@DV?$string_output_adapter@D@__crt_stdio_output@@@2@@__crt_stdio_output@@AEAA_ND@Z 000000018001bc5c f i libucrt:output.obj
 0001:0001ad34       ?write_stored_string_tchar@?$output_processor@_WV?$stream_output_adapter@_W@__crt_stdio_output@@V?$standard_base@_WV?$stream_output_adapter@_W@__crt_stdio_output@@@2@@__crt_stdio_output@@AEAA_N_W@Z 000000018001bd34 f i libucrt:output.obj
 0001:0001ae3c       ?write_stored_string_tchar@?$output_processor@_WV?$string_output_adapter@_W@__crt_stdio_output@@V?$standard_base@_WV?$string_output_adapter@_W@__crt_stdio_output@@@2@@__crt_stdio_output@@AEAA_N_W@Z 000000018001be3c f i libucrt:output.obj
 0001:0001af2c       ?write_string@?$string_output_adapter@D@__crt_stdio_output@@QEBAXQEBDHQEAHAEAV__crt_deferred_errno_cache@@@Z 000000018001bf2c f i libucrt:output.obj
 0001:0001afd0       ?write_string@?$string_output_adapter@_W@__crt_stdio_output@@QEBAXQEB_WHQEAHAEAV__crt_deferred_errno_cache@@@Z 000000018001bfd0 f i libucrt:output.obj
 0001:0001b078       ?write_string_impl@?$output_adapter_common@_WV?$stream_output_adapter@_W@__crt_stdio_output@@@__crt_stdio_output@@IEBAXQEB_WHQEAHAEAV__crt_deferred_errno_cache@@@Z 000000018001c078 f i libucrt:output.obj
 0001:0001b17c       __stdio_common_vfwprintf   000000018001c17c f   libucrt:output.obj
 0001:0001b208       __stdio_common_vsprintf    000000018001c208 f   libucrt:output.obj
 0001:0001b210       __stdio_common_vswprintf   000000018001c210 f   libucrt:output.obj
 0001:0001b718       _ftelli64_nolock           000000018001c718 f   libucrt:ftell.obj
 0001:0001b720       ftell                      000000018001c720 f   libucrt:ftell.obj
 0001:0001b7e0       fopen                      000000018001c7e0 f   libucrt:fopen.obj
 0001:0001b7ec       _fclose_nolock             000000018001c7ec f   libucrt:fclose.obj
 0001:0001b870       fclose                     000000018001c870 f   libucrt:fclose.obj
 0001:0001baec       fseek                      000000018001caec f   libucrt:fseek.obj
 0001:0001baf4       _fread_nolock_s            000000018001caf4 f   libucrt:fread.obj
 0001:0001bd88       fread                      000000018001cd88 f   libucrt:fread.obj
 0001:0001bda8       fread_s                    000000018001cda8 f   libucrt:fread.obj
 0001:0001c2f4       _fstat64i32                000000018001d2f4 f   libucrt:stat.obj
 0001:0001c3e8       __ascii_stricmp            000000018001d3e8 f   libucrt:stricmp.obj
 0001:0001c428       _stricmp                   000000018001d428 f   libucrt:stricmp.obj
 0001:0001c470       _stricmp_l                 000000018001d470 f   libucrt:stricmp.obj
 0001:0001c524       __acrt_initialize_new_handler 000000018001d524 f   libucrt:new_handler.obj
 0001:0001c52c       _callnewh                  000000018001d52c f   libucrt:new_handler.obj
 0001:0001c55c       _query_new_handler         000000018001d55c f   libucrt:new_handler.obj
 0001:0001c590       _seh_filter_dll            000000018001d590 f   libucrt:exception_filter.obj
 0001:0001c5a4       _seh_filter_exe            000000018001d5a4 f   libucrt:exception_filter.obj
 0001:0001c9b0       __acrt_initialize_thread_local_exit_callback 000000018001d9b0 f   libucrt:exit.obj
 0001:0001c9b8       _cexit                     000000018001d9b8 f   libucrt:exit.obj
 0001:0001c9c8       _exit                      000000018001d9c8 f   libucrt:exit.obj
 0001:0001c9d4       _is_c_termination_complete 000000018001d9d4 f   libucrt:exit.obj
 0001:0001cb98       __acrt_allocate_buffer_for_argv 000000018001db98 f   libucrt:argv_parsing.obj
 0001:0001cbf8       _configure_narrow_argv     000000018001dbf8 f   libucrt:argv_parsing.obj
 0001:0001d048       __dcrt_get_or_create_narrow_environment_nolock 000000018001e048 f   libucrt:environment_initialization.obj
 0001:0001d084       __dcrt_uninitialize_environments_nolock 000000018001e084 f   libucrt:environment_initialization.obj
 0001:0001d0bc       _initialize_narrow_environment 000000018001e0bc f   libucrt:environment_initialization.obj
 0001:0001d44c       _crt_atexit                000000018001e44c f   libucrt:onexit.obj
 0001:0001d45c       _execute_onexit_table      000000018001e45c f   libucrt:onexit.obj
 0001:0001d498       _initialize_onexit_table   000000018001e498 f   libucrt:onexit.obj
 0001:0001d4d8       _register_onexit_function  000000018001e4d8 f   libucrt:onexit.obj
 0001:0001d558       __acrt_uninitialize_command_line 000000018001e558 f   libucrt:argv_data.obj
 0001:0001d664       __acrt_initialize          000000018001e664 f   libucrt:initialization.obj
 0001:0001d678       __acrt_thread_attach       000000018001e678 f   libucrt:initialization.obj
 0001:0001d68c       __acrt_thread_detach       000000018001e68c f   libucrt:initialization.obj
 0001:0001d69c       __acrt_uninitialize        000000018001e69c f   libucrt:initialization.obj
 0001:0001d6d4       __acrt_uninitialize_critical 000000018001e6d4 f   libucrt:initialization.obj
 0001:0001d6e4       _initterm                  000000018001e6e4 f   libucrt:initterm.obj
 0001:0001d748       _initterm_e                000000018001e748 f   libucrt:initterm.obj
 0001:0001d788       terminate                  000000018001e788 f   libucrt:terminate.obj
 0001:0001d7a8       fileno                     000000018001e7a8 f   libucrt:fileno.obj
 0001:0001d7a8       _fileno                    000000018001e7a8 f   libucrt:fileno.obj
 0001:0001d7d0       _strdup                    000000018001e7d0 f   libucrt:strdup.obj
 0001:0001d7d0       strdup                     000000018001e7d0 f   libucrt:strdup.obj
 0001:0001d848       strcpy_s                   000000018001e848 f   libucrt:strcpy_s.obj
 0001:0001d8a8       _free_base                 000000018001e8a8 f   libucrt:free_base.obj
 0001:0001d8e8       _malloc_base               000000018001e8e8 f   libucrt:malloc_base.obj
 0001:0001d948       abort                      000000018001e948 f   libucrt:abort.obj
 0001:0001d9a0       _calloc_base               000000018001e9a0 f   libucrt:calloc_base.obj
 0001:0001da18       wcsncmp                    000000018001ea18 f   libucrt:wcsncmp.obj
 0001:0001da44       ??$parse_integer@KV?$c_string_character_source@D@__crt_strtox@@@__crt_strtox@@YAKQEAU__crt_locale_pointers@@V?$c_string_character_source@D@0@H_N@Z 000000018001ea44 f i libucrt:atox.obj
 0001:0001dd60       ??$parse_integer@KV?$c_string_character_source@_W@__crt_strtox@@@__crt_strtox@@YAKQEAU__crt_locale_pointers@@V?$c_string_character_source@_W@0@H_N@Z 000000018001ed60 f i libucrt:atox.obj
 0001:0001e424       atol                       000000018001f424 f   libucrt:atox.obj
 0001:0001e460       strncmp                    000000018001f460 f   libucrt:strncmp.obj
 0001:0001e4e0       _realloc_base              000000018001f4e0 f   libucrt:realloc_base.obj
 0001:0001e55c       _query_app_type            000000018001f55c f   libucrt:report_runtime_error.obj
 0001:0001e564       __acrt_errno_from_os_error 000000018001f564 f   libucrt:errno.obj
 0001:0001e5ac       __acrt_errno_map_os_error  000000018001f5ac f   libucrt:errno.obj
 0001:0001e5fc       __doserrno                 000000018001f5fc f   libucrt:errno.obj
 0001:0001e61c       _errno                     000000018001f61c f   libucrt:errno.obj
 0001:0001e750       _itow_s                    000000018001f750 f   libucrt:xtoa.obj
 0001:0001e770       _set_error_mode            000000018001f770 f   libucrt:set_error_mode.obj
 0001:0001e7b0       wcscat_s                   000000018001f7b0 f   libucrt:wcscat_s.obj
 0001:0001e830       wcscpy_s                   000000018001f830 f   libucrt:wcscpy_s.obj
 0001:0001e898       wcsncat_s                  000000018001f898 f   libucrt:wcsncat_s.obj
 0001:0001e998       __acrt_show_wide_message_box 000000018001f998 f   libucrt:crtmbox.obj
 0001:0001ec60       __acrt_stdio_flush_nolock  000000018001fc60 f   libucrt:fflush.obj
 0001:0001ecdc       _fflush_nolock             000000018001fcdc f   libucrt:fflush.obj
 0001:0001ed28       _flushall                  000000018001fd28 f   libucrt:fflush.obj
 0001:0001ed30       fflush                     000000018001fd30 f   libucrt:fflush.obj
 0001:0001eec8       setvbuf                    000000018001fec8 f   libucrt:setvbuf.obj
 0001:0001efac       __acrt_get_sigabrt_handler 000000018001ffac f   libucrt:signal.obj
 0001:0001efdc       __acrt_initialize_signal_handlers 000000018001ffdc f   libucrt:signal.obj
 0001:0001effc       raise                      000000018001fffc f   libucrt:signal.obj
 0001:0001f394       _handle_error              0000000180020394 f   libucrt:libm_error.obj
 0001:0001f4bc       _handle_errorf             00000001800204bc f   libucrt:libm_error.obj
 0001:0001f5f0       _handle_nan                00000001800205f0 f   libucrt:libm_error.obj
 0001:0001f60c       _handle_nanf               000000018002060c f   libucrt:libm_error.obj
 0001:0001f994       __acrt_freeptd             0000000180020994 f   libucrt:per_thread_data.obj
 0001:0001f9d8       __acrt_getptd              00000001800209d8 f   libucrt:per_thread_data.obj
 0001:0001faa4       __acrt_getptd_head         0000000180020aa4 f   libucrt:per_thread_data.obj
 0001:0001fb4c       __acrt_getptd_noexit       0000000180020b4c f   libucrt:per_thread_data.obj
 0001:0001fc1c       __acrt_initialize_ptd      0000000180020c1c f   libucrt:per_thread_data.obj
 0001:0001fc58       __acrt_uninitialize_ptd    0000000180020c58 f   libucrt:per_thread_data.obj
 0001:0001fe54       __acrt_AppPolicyGetProcessTerminationMethodInternal 0000000180020e54 f   libucrt:winapi_thunks.obj
 0001:0001fea4       __acrt_AppPolicyGetShowDeveloperDiagnosticInternal 0000000180020ea4 f   libucrt:winapi_thunks.obj
 0001:0001fef4       __acrt_AppPolicyGetWindowingModelInternal 0000000180020ef4 f   libucrt:winapi_thunks.obj
 0001:0001ff44       __acrt_AreFileApisANSI     0000000180020f44 f   libucrt:winapi_thunks.obj
 0001:0001ff80       __acrt_CompareStringEx     0000000180020f80 f   libucrt:winapi_thunks.obj
 0001:0002005c       __acrt_FlsAlloc            000000018002105c f   libucrt:winapi_thunks.obj
 0001:000200a4       __acrt_FlsFree             00000001800210a4 f   libucrt:winapi_thunks.obj
 0001:000200ec       __acrt_FlsGetValue         00000001800210ec f   libucrt:winapi_thunks.obj
 0001:00020134       __acrt_FlsSetValue         0000000180021134 f   libucrt:winapi_thunks.obj
 0001:00020188       __acrt_InitializeCriticalSectionEx 0000000180021188 f   libucrt:winapi_thunks.obj
 0001:000201ec       __acrt_LCMapStringEx       00000001800211ec f   libucrt:winapi_thunks.obj
 0001:000202c8       __acrt_LocaleNameToLCID    00000001800212c8 f   libucrt:winapi_thunks.obj
 0001:00020318       __acrt_MessageBoxW         0000000180021318 f   libucrt:winapi_thunks.obj
 0001:0002038c       __acrt_OutputDebugStringW  000000018002138c f   libucrt:winapi_thunks.obj
 0001:00020394       __acrt_can_show_message_box 0000000180021394 f   libucrt:winapi_thunks.obj
 0001:00020404       __acrt_get_parent_window   0000000180021404 f   libucrt:winapi_thunks.obj
 0001:00020480       __acrt_initialize_winapi_thunks 0000000180021480 f   libucrt:winapi_thunks.obj
 0001:000204c8       __acrt_is_interactive      00000001800214c8 f   libucrt:winapi_thunks.obj
 0001:00020590       __acrt_uninitialize_winapi_thunks 0000000180021590 f   libucrt:winapi_thunks.obj
 0001:000205d4       _fcloseall                 00000001800215d4 f   libucrt:closeall.obj
 0001:00020688       __acrt_stdio_free_buffer_nolock 0000000180021688 f   libucrt:_freebuf.obj
 0001:000208b0       __acrt_initialize_lowio    00000001800218b0 f   libucrt:ioinit.obj
 0001:000208ec       __acrt_uninitialize_lowio  00000001800218ec f   libucrt:ioinit.obj
 0001:0002092c       isdigit                    000000018002192c f i libucrt:_ctype.obj
 0001:000209e4       _tolower_l                 00000001800219e4 f   libucrt:tolower_toupper.obj
 0001:00020b24       tolower                    0000000180021b24 f   libucrt:tolower_toupper.obj
 0001:00020b50       strtol                     0000000180021b50 f   libucrt:strtox.obj
 0001:00020b7c       wcstol                     0000000180021b7c f   libucrt:strtox.obj
 0001:00020ba8       _mbtowc_l                  0000000180021ba8 f   libucrt:mbtowc.obj
 0001:00020cf0       mbtowc                     0000000180021cf0 f   libucrt:mbtowc.obj
 0001:00020cf8       _wctomb_s_l                0000000180021cf8 f   libucrt:wctomb.obj
 0001:00020e7c       wctomb_s                   0000000180021e7c f   libucrt:wctomb.obj
 0001:00020e90       strnlen                    0000000180021e90 f   libucrt:strnlen.obj
 0001:00020fd4       wcsnlen                    0000000180021fd4 f   libucrt:strnlen.obj
 0001:0002119c       __acrt_update_locale_info  000000018002219c f   libucrt:locale_update.obj
 0001:000211d0       __acrt_update_multibyte_info 00000001800221d0 f   libucrt:locale_update.obj
 0001:00021bc0       __acrt_fp_format           0000000180022bc0 f   libucrt:cvt.obj
 0001:00021e48       _fputwc_nolock             0000000180022e48 f   libucrt:fputwc.obj
 0001:00021fc0       _fputc_nolock              0000000180022fc0 f   libucrt:fputc.obj
 0001:00021fd8       _get_printf_count_output   0000000180022fd8 f   libucrt:printf_count_output.obj
 0001:00021ff0       __acrt_stdio_begin_temporary_buffering_nolock 0000000180022ff0 f   libucrt:_sftbuf.obj
 0001:000220c0       __acrt_stdio_end_temporary_buffering_nolock 00000001800230c0 f   libucrt:_sftbuf.obj
 0001:0002216c       __acrt_set_locale_changed  000000018002316c f   libucrt:wsetlocale.obj
 0001:00022178       __acrt_uninitialize_locale 0000000180023178 f   libucrt:wsetlocale.obj
 0001:00022334       _lseeki64                  0000000180023334 f   libucrt:lseek.obj
 0001:0002233c       _lseeki64_nolock           000000018002333c f   libucrt:lseek.obj
 0001:000228e0       _read                      00000001800238e0 f   libucrt:read.obj
 0001:000229fc       _read_nolock               00000001800239fc f   libucrt:read.obj
 0001:00022e88       ?__acrt_stdio_allocate_stream@@YA?AV__crt_stdio_stream@@XZ 0000000180023e88 f   libucrt:stream.obj
 0001:00022ee0       ?__acrt_stdio_free_stream@@YAXV__crt_stdio_stream@@@Z 0000000180023ee0 f   libucrt:stream.obj
 0001:00022fe8       ??$__acrt_stdio_parse_mode@D@@YA?AU__acrt_stdio_stream_mode@@QEBD@Z 0000000180023fe8 f i libucrt:openfile.obj
 0001:00023294       _openfile                  0000000180024294 f   libucrt:openfile.obj
 0001:000233a4       _close                     00000001800243a4 f   libucrt:close.obj
 0001:00023448       _close_nolock              0000000180024448 f   libucrt:close.obj
 0001:00023504       __acrt_stdio_refill_and_read_narrow_nolock 0000000180024504 f   libucrt:_filbuf.obj
 0001:00023664       _getdrive                  0000000180024664 f   libucrt:drive.obj
 0001:00023760       _wcsicmp                   0000000180024760 f   libucrt:wcsicmp.obj
 0001:000237e4       _wcsicmp_l                 00000001800247e4 f   libucrt:wcsicmp.obj
 0001:000238d4       __acrt_copy_path_to_wide_string 00000001800248d4 f   libucrt:string_utilities.obj
 0001:000239cc       __acrt_lowio_create_handle_array 00000001800249cc f   libucrt:osfinfo.obj
 0001:00023a64       __acrt_lowio_destroy_handle_array 0000000180024a64 f   libucrt:osfinfo.obj
 0001:00023ab4       __acrt_lowio_ensure_fh_exists 0000000180024ab4 f   libucrt:osfinfo.obj
 0001:00023b5c       __acrt_lowio_lock_fh       0000000180024b5c f   libucrt:osfinfo.obj
 0001:00023b80       __acrt_lowio_set_os_handle 0000000180024b80 f   libucrt:osfinfo.obj
 0001:00023c40       __acrt_lowio_unlock_fh     0000000180024c40 f   libucrt:osfinfo.obj
 0001:00023c64       _alloc_osfhnd              0000000180024c64 f   libucrt:osfinfo.obj
 0001:00023d88       _free_osfhnd               0000000180024d88 f   libucrt:osfinfo.obj
 0001:00023e44       _get_osfhandle             0000000180024e44 f   libucrt:osfinfo.obj
 0001:00023ebc       ??$__crt_time_is_leap_year@H@@YA_NH@Z 0000000180024ebc f i libucrt:loctotime.obj
 0001:00024188       __loctotime64_t            0000000180025188 f   libucrt:loctotime.obj
 0001:00024190       __acrt_initialize_locks    0000000180025190 f   libucrt:locks.obj
 0001:000241d8       __acrt_lock                00000001800251d8 f   libucrt:locks.obj
 0001:000241f4       __acrt_uninitialize_locks  00000001800251f4 f   libucrt:locks.obj
 0001:0002422c       __acrt_unlock              000000018002522c f   libucrt:locks.obj
 0001:00024248       __acrt_get_developer_information_policy 0000000180025248 f   libucrt:win_policies.obj
 0001:0002429c       __acrt_get_process_end_policy 000000018002529c f   libucrt:win_policies.obj
 0001:000242d8       __acrt_get_windowing_model_policy 00000001800252d8 f   libucrt:win_policies.obj
 0001:000248a8       __acrt_expand_narrow_argv_wildcards 00000001800258a8 f   libucrt:argv_wildcards.obj
 0001:00024ff0       __acrt_initialize_multibyte 0000000180025ff0 f   libucrt:mbctype.obj
 0001:00025050       __acrt_update_thread_multibyte_data 0000000180026050 f   libucrt:mbctype.obj
 0001:0002506c       _setmbcp_nolock            000000018002606c f   libucrt:mbctype.obj
 0001:000253a4       _ismbblead                 00000001800263a4 f   libucrt:ismbbyte.obj
 0001:000253b8       __acrt_initialize_command_line 00000001800263b8 f   libucrt:argv_data.obj
 0001:000253e0       __dcrt_get_narrow_environment_from_os 00000001800263e0 f   libucrt:get_environment_from_os.obj
 0001:000258f0       __dcrt_set_variable_in_narrow_environment_nolock 00000001800268f0 f   libucrt:setenv.obj
 0001:000258f8       _recalloc                  00000001800268f8 f   libucrt:recalloc.obj
 0001:00025900       _recalloc_base             0000000180026900 f   libucrt:recalloc.obj
 0001:00025998       __acrt_initialize_heap     0000000180026998 f   libucrt:heap_handle.obj
 0001:000259b4       __acrt_uninitialize_heap   00000001800269b4 f   libucrt:heap_handle.obj
 0001:000259c0       __acrt_execute_initializers 00000001800269c0 f   libucrt:shared_initialization.obj
 0001:00025a40       __acrt_execute_uninitializers 0000000180026a40 f   libucrt:shared_initialization.obj
 0001:00025a7c       __acrt_has_user_matherr    0000000180026a7c f   libucrt:matherr.obj
 0001:00025a9c       __acrt_initialize_user_matherr 0000000180026a9c f   libucrt:matherr.obj
 0001:00025aa4       __acrt_invoke_user_matherr 0000000180026aa4 f   libucrt:matherr.obj
 0001:00025ad4       _query_new_mode            0000000180026ad4 f   libucrt:new_mode.obj
 0001:00025adc       __pctype_func              0000000180026adc f   libucrt:ctype.obj
 0001:00025b0c       iswctype                   0000000180026b0c f   libucrt:iswctype.obj
 0001:00025b7c       _isctype_l                 0000000180026b7c f   libucrt:isctype.obj
 0001:00025d18       _commit                    0000000180026d18 f   libucrt:commit.obj
 0001:00026364       _write                     0000000180027364 f   libucrt:write.obj
 0001:00026450       _write_nolock              0000000180027450 f   libucrt:write.obj
 0001:00026794       _raise_exc                 0000000180027794 f   libucrt:fpexcept.obj
 0001:000267bc       _raise_exc_ex              00000001800277bc f   libucrt:fpexcept.obj
 0001:00026ac4       _raise_excf                0000000180027ac4 f   libucrt:fpexcept.obj
 0001:00026af0       _set_errno_from_matherr    0000000180027af0 f   libucrt:fpexcept.obj
 0001:00026b20       _clrfp                     0000000180027b20 f   libucrt:fpctrl.obj
 0001:00026b40       _ctrlfp                    0000000180027b40 f   libucrt:fpctrl.obj
 0001:00026bbc       _set_statfp                0000000180027bbc f   libucrt:fpctrl.obj
 0001:00026bdc       _statfp                    0000000180027bdc f   libucrt:fpctrl.obj
 0001:00026bf0       __acrt_add_locale_ref      0000000180027bf0 f   libucrt:locale_refcounting.obj
 0001:00026c7c       __acrt_free_locale         0000000180027c7c f   libucrt:locale_refcounting.obj
 0001:00026df4       __acrt_locale_add_lc_time_reference 0000000180027df4 f   libucrt:locale_refcounting.obj
 0001:00026e1c       __acrt_locale_free_lc_time_if_unreferenced 0000000180027e1c f   libucrt:locale_refcounting.obj
 0001:00026e54       __acrt_locale_release_lc_time_reference 0000000180027e54 f   libucrt:locale_refcounting.obj
 0001:00026e7c       __acrt_release_locale_ref  0000000180027e7c f   libucrt:locale_refcounting.obj
 0001:00026f24       __acrt_update_thread_locale_data 0000000180027f24 f   libucrt:locale_refcounting.obj
 0001:00026f94       _updatetlocinfoEx_nolock   0000000180027f94 f   libucrt:locale_refcounting.obj
 0001:000270c8       __acrt_DownlevelLocaleNameToLCID 00000001800280c8 f   libucrt:lcidtoname_downlevel.obj
 0001:000270fc       _isleadbyte_l              00000001800280fc f i libucrt:_wctype.obj
 0001:00027454       __acrt_LCMapStringA        0000000180028454 f   libucrt:lcmapstringa.obj
 0001:000274ec       __acrt_MultiByteToWideChar 00000001800284ec f   libucrt:multibytetowidechar.obj
 0001:000274f4       ___lc_codepage_func        00000001800284f4 f   libucrt:initctype.obj
 0001:00027524       __acrt_WideCharToMultiByte 0000000180028524 f   libucrt:widechartomultibyte.obj
 0001:0002752c       __acrt_fp_strflt_to_string 000000018002852c f   libucrt:_fptostr.obj
 0001:000275f0       ?divide@__crt_strtox@@YA_KAEAUbig_integer@1@AEBU21@@Z 00000001800285f0 f i libucrt:cfout.obj
 0001:00027a84       __acrt_fltout              0000000180028a84 f   libucrt:cfout.obj
 0001:00029024       __acrt_stdio_flush_and_write_narrow_nolock 000000018002a024 f   libucrt:_flsbuf.obj
 0001:0002910c       __acrt_stdio_flush_and_write_wide_nolock 000000018002a10c f   libucrt:_flsbuf.obj
 0001:000291f8       _isatty                    000000018002a1f8 f   libucrt:isatty.obj
 0001:00029258       __acrt_locale_free_monetary 000000018002a258 f   libucrt:initmon.obj
 0001:00029364       __acrt_locale_free_numeric 000000018002a364 f   libucrt:initnum.obj
 0001:00029424       __acrt_locale_free_time    000000018002a424 f   libucrt:inittime.obj
 0001:0002952c       __acrt_GetStringTypeA      000000018002a52c f   libucrt:getstringtypea.obj
 0001:000296bc       __ascii_strnicmp           000000018002a6bc f   libucrt:strnicmp.obj
 0001:00029718       _strnicmp                  000000018002a718 f   libucrt:strnicmp.obj
 0001:00029768       _strnicmp_l                000000018002a768 f   libucrt:strnicmp.obj
 0001:00029e68       _sopen_nolock              000000018002ae68 f   libucrt:open.obj
 0001:00029ef8       _sopen_s                   000000018002aef8 f   libucrt:open.obj
 0001:00029f2c       _wsopen_nolock             000000018002af2c f   libucrt:open.obj
 0001:0002a318       __acrt_stdio_allocate_buffer_nolock 000000018002b318 f   libucrt:_getbuf.obj
 0001:0002a37c       _towlower_l                000000018002b37c f   libucrt:towlower.obj
 0001:0002a440       __acrt_initialize_timeset  000000018002b440 f   libucrt:timeset.obj
 0001:0002a484       __daylight                 000000018002b484 f   libucrt:timeset.obj
 0001:0002a48c       __dstbias                  000000018002b48c f   libucrt:timeset.obj
 0001:0002a494       __timezone                 000000018002b494 f   libucrt:timeset.obj
 0001:0002a49c       __tzname                   000000018002b49c f   libucrt:timeset.obj
 0001:0002a4a4       _get_daylight              000000018002b4a4 f   libucrt:timeset.obj
 0001:0002a4d4       _get_dstbias               000000018002b4d4 f   libucrt:timeset.obj
 0001:0002a504       _get_timezone              000000018002b504 f   libucrt:timeset.obj
 0001:0002af98       __tzset                    000000018002bf98 f   libucrt:tzset.obj
 0001:0002afd4       _isindst                   000000018002bfd4 f   libucrt:tzset.obj
 0001:0002b010       qsort                      000000018002c010 f   libucrt:qsort.obj
 0001:0002b3c0       strncpy_s                  000000018002c3c0 f   libucrt:strncpy_s.obj
 0001:0002b540       strpbrk                    000000018002c540 f   libucrt:strpbrk.obj
 0001:0002b920       _mbsdec                    000000018002c920 f   libucrt:mbsdec.obj
 0001:0002b928       _mbsdec_l                  000000018002c928 f   libucrt:mbsdec.obj
 0001:0002b9d0       _strnicoll                 000000018002c9d0 f   libucrt:strnicol.obj
 0001:0002b9e8       _strnicoll_l               000000018002c9e8 f   libucrt:strnicol.obj
 0001:0002bae8       _msize                     000000018002cae8 f   libucrt:msize.obj
 0001:0002baf0       _msize_base                000000018002caf0 f   libucrt:msize.obj
 0001:0002bb2c       __acrt_GetStringTypeW      000000018002cb2c f   libucrt:getstringtypew.obj
 0001:0002bb34       _putwch_nolock             000000018002cb34 f   libucrt:putwch.obj
 0001:0002bb80       _get_fpsr                  000000018002cb80 f   libucrt:fpsr.obj
 0001:0002bb90       _set_fpsr                  000000018002cb90 f   libucrt:fpsr.obj
 0001:0002bb9a       _fclrf                     000000018002cb9a f   libucrt:fpsr.obj
 0001:0002bbae       _frnd                      000000018002cbae f   libucrt:fpsr.obj
 0001:0002bbd0       __strncnt                  000000018002cbd0 f   libucrt:strncnt.obj
 0001:0002bbe8       fegetenv                   000000018002cbe8 f   libucrt:fegetenv.obj
 0001:0002bc08       fesetenv                   000000018002cc08 f   libucrt:fesetenv.obj
 0001:0002bc58       feholdexcept               000000018002cc58 f   libucrt:feholdexcept.obj
 0001:0002bca8       ceil                       000000018002cca8 f   libucrt:ceil.obj
 0001:0002bd70       log10                      000000018002cd70 f   libucrt:log10.obj
 0001:0002c31c       _get_fmode                 000000018002d31c f   libucrt:setmode.obj
 0001:0002c34c       _setmode_nolock            000000018002d34c f   libucrt:setmode.obj
 0001:0002c42c       _chsize_nolock             000000018002d42c f   libucrt:chsize.obj
 0001:0002c5a8       __acrt_LCMapStringW        000000018002d5a8 f   libucrt:lcmapstringw.obj
 0001:0002c7b0       getenv_s                   000000018002d7b0 f   libucrt:getenv.obj
 0001:0002cb08       __acrt_CompareStringA      000000018002db08 f   libucrt:comparestringa.obj
 0001:0002cb94       __dcrt_lowio_ensure_console_output_initialized 000000018002db94 f   libucrt:initcon.obj
 0001:0002cbe8       __dcrt_terminate_console_output 000000018002dbe8 f   libucrt:initcon.obj
 0001:0002cc04       __dcrt_write_console_w     000000018002dc04 f   libucrt:initcon.obj
 0001:0002ccc4       __acrt_fenv_get_control    000000018002dcc4 f   libucrt:_fenvutils.obj
 0001:0002cdc4       __acrt_fenv_get_status     000000018002ddc4 f   libucrt:_fenvutils.obj
 0001:0002ce1c       __acrt_fenv_set_control    000000018002de1c f   libucrt:_fenvutils.obj
 0001:0002cf64       __acrt_fenv_set_status     000000018002df64 f   libucrt:_fenvutils.obj
 0001:0002cfe8       _clearfp                   000000018002dfe8 f   libucrt:ieee.obj
 0001:0002d060       __acrt_initialize_fma3     000000018002e060 f   libucrt:fma3_available.obj
 0001:0002d0d0       _log10_special             000000018002e0d0 f   libucrt:log_special.obj
 0001:0002d186       IsProcessorFeaturePresent  000000018002e186 f   kernel32:KERNEL32.dll
 0001:0002d18c       RtlUnwindEx                000000018002e18c f   kernel32:KERNEL32.dll
 0001:0002d194       ?DloadAcquireSectionWriteAccess@@YAXXZ 000000018002e194 f i DelayImp:delayhlp.obj
 0001:0002d250       ?DloadGetSRWLockFunctionPointers@@YAEXZ 000000018002e250 f i DelayImp:delayhlp.obj
 0001:0002d2ec       ?DloadMakePermanentImageCommit@@YAXPEAX_K@Z 000000018002e2ec f i DelayImp:delayhlp.obj
 0001:0002d384       ?DloadObtainSection@@YAPEAXPEAK0@Z 000000018002e384 f i DelayImp:delayhlp.obj
 0001:0002d418       ?DloadProtectSection@@YAXKPEAK@Z 000000018002e418 f i DelayImp:delayhlp.obj
 0001:0002d4a8       ?DloadReleaseSectionWriteAccess@@YAXXZ 000000018002e4a8 f i DelayImp:delayhlp.obj
 0001:0002d54c       __delayLoadHelper2         000000018002e54c f   DelayImp:delayhlp.obj
 0001:0002d844       __GSHandlerCheck           000000018002e844 f   LIBCMT:_gshandler_.obj
 0001:0002d864       __GSHandlerCheckCommon     000000018002e864 f   LIBCMT:_gshandler_.obj
 0001:0002d8c0       _FindPESection             000000018002e8c0 f   LIBCMT:pesect.obj
 0001:0002d910       _IsNonwritableInCurrentImage 000000018002e910 f   LIBCMT:pesect.obj
 0001:0002d960       _ValidateImageBase         000000018002e960 f   LIBCMT:pesect.obj
 0001:0002d9a0       _alloca_probe              000000018002e9a0 f   LIBCMT:_chkstk_.obj
 0001:0002d9a0       __chkstk                   000000018002e9a0 f   LIBCMT:_chkstk_.obj
 0001:0002d9f4       wcsrchr                    000000018002e9f4 f   libvcruntime:wcsrchr.obj
 0001:0002daa8       strrchr                    000000018002eaa8 f   libvcruntime:strrchr.obj
 0001:0002dc10       memcmp                     000000018002ec10 f   libvcruntime:memcmp.obj
 0001:0002dcd8       strchr                     000000018002ecd8 f   libvcruntime:strchr.obj
 0001:0002dd64       __GSHandlerCheck_EH        000000018002ed64 f   LIBCMT:gshandlereh.obj
 0001:0002ddf0       acos                       000000018002edf0 f   libucrt:acos.obj
 0001:0002e0a8       acosf                      000000018002f0a8 f   libucrt:acosf.obj
 0001:0002e308       floor                      000000018002f308 f   libucrt:floor.obj
 0001:0002e3b8       fmodf                      000000018002f3b8 f   libucrt:fmodf.obj
 0001:0002e5fc       sqrtf                      000000018002f5fc f   libucrt:sqrtf.obj
 0001:0002e6c0       strcmp                     000000018002f6c0 f   libucrt:strcmp.obj
 0001:0002e730       tan                        000000018002f730 f   libucrt:tan.obj
 0001:0002ef6c       _tan_special               000000018002ff6c f   libucrt:sincos_special.obj
 0001:0002ef80       __remainder_piby2_fma3     000000018002ff80 f   libucrt:remainder_piby2_forfma3.obj
 0001:0002f170       __remainder_piby2_fma3_bdl 0000000180030170 f   libucrt:remainder_piby2_forfma3.obj
 0001:0002f1f0       __remainder_piby2_forAsm   00000001800301f0 f   libucrt:remainder_piby2_forasm.obj
 0001:0002f400       __remainder_piby2_cw_forAsm 0000000180030400 f   libucrt:remainder_piby2_forasm.obj
 0001:0002f550       _guard_dispatch_icall_nop  0000000180030550 f   LIBCMT:_guard_dispatch_.obj
 0001:0002f570       __guard_ss_verify_failure  0000000180030570 f   LIBCMT:_rfgfailure_.obj
 0001:0002f57b       __guard_ss_verify_failure_rcx 000000018003057b     LIBCMT:_rfgfailure_.obj
 0001:0002f581       __guard_ss_verify_failure_rdx 0000000180030581     LIBCMT:_rfgfailure_.obj
 0001:0002f587       __guard_ss_verify_failure_r8 0000000180030587     LIBCMT:_rfgfailure_.obj
 0001:0002f58d       __guard_ss_verify_failure_r9 000000018003058d     LIBCMT:_rfgfailure_.obj
 0001:0002f593       __guard_ss_verify_failure_r10 0000000180030593     LIBCMT:_rfgfailure_.obj
 0001:0002f5a0       __guard_ss_verify_failure_default 00000001800305a0 f   LIBCMT:_rfgfailure_.obj
 0001:0002f600       __guard_ss_verify_sp       0000000180030600 f   LIBCMT:_rfgfailure_.obj
 0001:0002f610       __guard_ss_verify_sp_default 0000000180030610 f   LIBCMT:_rfgfailure_.obj
 0001:0002f630       __longjmp_internal         0000000180030630 f   libvcruntime:_longjmp_.obj
 0001:0002f730       __intrinsic_setjmp         0000000180030730 f   libvcruntime:_setjmp_.obj
 0001:0002f730       _setjmp                    0000000180030730 f   libvcruntime:_setjmp_.obj
 0001:0002f7d0       setjmp                     00000001800307d0 f   libvcruntime:_setjmp_.obj
 0002:00000000       __imp_GetModuleHandleA     0000000180032000     kernel32:KERNEL32.dll
 0002:00000008       __imp_VirtualQuery         0000000180032008     kernel32:KERNEL32.dll
 0002:00000010       __imp_VirtualProtect       0000000180032010     kernel32:KERNEL32.dll
 0002:00000018       __imp_GetSystemInfo        0000000180032018     kernel32:KERNEL32.dll
 0002:00000020       __imp_SetEndOfFile         0000000180032020     kernel32:KERNEL32.dll
 0002:00000028       __imp_HeapSize             0000000180032028     kernel32:KERNEL32.dll
 0002:00000030       __imp_GetTimeZoneInformation 0000000180032030     kernel32:KERNEL32.dll
 0002:00000038       __imp_GetStringTypeW       0000000180032038     kernel32:KERNEL32.dll
 0002:00000040       __imp_GetConsoleCP         0000000180032040     kernel32:KERNEL32.dll
 0002:00000048       __imp_FlushFileBuffers     0000000180032048     kernel32:KERNEL32.dll
 0002:00000050       __imp_GetProcessHeap       0000000180032050     kernel32:KERNEL32.dll
 0002:00000058       __imp_SetEnvironmentVariableA 0000000180032058     kernel32:KERNEL32.dll
 0002:00000060       __imp_FreeEnvironmentStringsW 0000000180032060     kernel32:KERNEL32.dll
 0002:00000068       __imp_GetEnvironmentStringsW 0000000180032068     kernel32:KERNEL32.dll
 0002:00000070       __imp_GetCommandLineW      0000000180032070     kernel32:KERNEL32.dll
 0002:00000078       __imp_GetCommandLineA      0000000180032078     kernel32:KERNEL32.dll
 0002:00000080       __imp_GetCPInfo            0000000180032080     kernel32:KERNEL32.dll
 0002:00000088       __imp_GetOEMCP             0000000180032088     kernel32:KERNEL32.dll
 0002:00000090       __imp_IsValidCodePage      0000000180032090     kernel32:KERNEL32.dll
 0002:00000098       __imp_FindNextFileA        0000000180032098     kernel32:KERNEL32.dll
 0002:000000a0       __imp_FindFirstFileExA     00000001800320a0     kernel32:KERNEL32.dll
 0002:000000a8       __imp_FindClose            00000001800320a8     kernel32:KERNEL32.dll
 0002:000000b0       __imp_SetStdHandle         00000001800320b0     kernel32:KERNEL32.dll
 0002:000000b8       __imp_GetCurrentDirectoryW 00000001800320b8     kernel32:KERNEL32.dll
 0002:000000c0       __imp_ReadConsoleW         00000001800320c0     kernel32:KERNEL32.dll
 0002:000000c8       __imp_GetConsoleMode       00000001800320c8     kernel32:KERNEL32.dll
 0002:000000d0       __imp_SetFilePointerEx     00000001800320d0     kernel32:KERNEL32.dll
 0002:000000d8       __imp_GetACP               00000001800320d8     kernel32:KERNEL32.dll
 0002:000000e0       __imp_LCMapStringW         00000001800320e0     kernel32:KERNEL32.dll
 0002:000000e8       __imp_CompareStringW       00000001800320e8     kernel32:KERNEL32.dll
 0002:000000f0       __imp_OutputDebugStringW   00000001800320f0     kernel32:KERNEL32.dll
 0002:000000f8       __imp_WriteFile            00000001800320f8     kernel32:KERNEL32.dll
 0002:00000100       __imp_HeapReAlloc          0000000180032100     kernel32:KERNEL32.dll
 0002:00000108       __imp_HeapAlloc            0000000180032108     kernel32:KERNEL32.dll
 0002:00000110       __imp_HeapFree             0000000180032110     kernel32:KERNEL32.dll
 0002:00000118       __imp_WideCharToMultiByte  0000000180032118     kernel32:KERNEL32.dll
 0002:00000120       __imp_MultiByteToWideChar  0000000180032120     kernel32:KERNEL32.dll
 0002:00000128       __imp_ExitProcess          0000000180032128     kernel32:KERNEL32.dll
 0002:00000130       __imp_FileTimeToSystemTime 0000000180032130     kernel32:KERNEL32.dll
 0002:00000138       __imp_SystemTimeToTzSpecificLocalTime 0000000180032138     kernel32:KERNEL32.dll
 0002:00000140       __imp_PeekNamedPipe        0000000180032140     kernel32:KERNEL32.dll
 0002:00000148       __imp_CloseHandle          0000000180032148     kernel32:KERNEL32.dll
 0002:00000150       __imp_GetFileInformationByHandle 0000000180032150     kernel32:KERNEL32.dll
 0002:00000158       __imp_CreateFileW          0000000180032158     kernel32:KERNEL32.dll
 0002:00000160       __imp_ReadFile             0000000180032160     kernel32:KERNEL32.dll
 0002:00000168       __imp_WriteConsoleW        0000000180032168     kernel32:KERNEL32.dll
 0002:00000170       __imp_GetModuleHandleExW   0000000180032170     kernel32:KERNEL32.dll
 0002:00000178       __imp_GetModuleFileNameW   0000000180032178     kernel32:KERNEL32.dll
 0002:00000180       __imp_GetModuleFileNameA   0000000180032180     kernel32:KERNEL32.dll
 0002:00000188       __imp_GetFileType          0000000180032188     kernel32:KERNEL32.dll
 0002:00000190       __imp_GetStdHandle         0000000180032190     kernel32:KERNEL32.dll
 0002:00000198       __imp_LoadLibraryExW       0000000180032198     kernel32:KERNEL32.dll
 0002:000001a0       __imp_GetProcAddress       00000001800321a0     kernel32:KERNEL32.dll
 0002:000001a8       __imp_FreeLibrary          00000001800321a8     kernel32:KERNEL32.dll
 0002:000001b0       __imp_TlsFree              00000001800321b0     kernel32:KERNEL32.dll
 0002:000001b8       __imp_TlsSetValue          00000001800321b8     kernel32:KERNEL32.dll
 0002:000001c0       __imp_TlsGetValue          00000001800321c0     kernel32:KERNEL32.dll
 0002:000001c8       __imp_TlsAlloc             00000001800321c8     kernel32:KERNEL32.dll
 0002:000001d0       __imp_InitializeCriticalSectionAndSpinCount 00000001800321d0     kernel32:KERNEL32.dll
 0002:000001d8       __imp_DeleteCriticalSection 00000001800321d8     kernel32:KERNEL32.dll
 0002:000001e0       __imp_LeaveCriticalSection 00000001800321e0     kernel32:KERNEL32.dll
 0002:000001e8       __imp_EnterCriticalSection 00000001800321e8     kernel32:KERNEL32.dll
 0002:000001f0       __imp_EncodePointer        00000001800321f0     kernel32:KERNEL32.dll
 0002:000001f8       __imp_SetLastError         00000001800321f8     kernel32:KERNEL32.dll
 0002:00000200       __imp_GetLastError         0000000180032200     kernel32:KERNEL32.dll
 0002:00000208       __imp_InterlockedFlushSList 0000000180032208     kernel32:KERNEL32.dll
 0002:00000210       __imp_RaiseException       0000000180032210     kernel32:KERNEL32.dll
 0002:00000218       __imp_RtlPcToFileHeader    0000000180032218     kernel32:KERNEL32.dll
 0002:00000220       __imp_RtlUnwindEx          0000000180032220     kernel32:KERNEL32.dll
 0002:00000228       __imp_InitializeSListHead  0000000180032228     kernel32:KERNEL32.dll
 0002:00000230       __imp_GetSystemTimeAsFileTime 0000000180032230     kernel32:KERNEL32.dll
 0002:00000238       __imp_GetCurrentThreadId   0000000180032238     kernel32:KERNEL32.dll
 0002:00000240       __imp_GetCurrentProcessId  0000000180032240     kernel32:KERNEL32.dll
 0002:00000248       __imp_QueryPerformanceCounter 0000000180032248     kernel32:KERNEL32.dll
 0002:00000250       __imp_GetModuleHandleW     0000000180032250     kernel32:KERNEL32.dll
 0002:00000258       __imp_GetStartupInfoW      0000000180032258     kernel32:KERNEL32.dll
 0002:00000260       __imp_IsDebuggerPresent    0000000180032260     kernel32:KERNEL32.dll
 0002:00000268       __imp_IsProcessorFeaturePresent 0000000180032268     kernel32:KERNEL32.dll
 0002:00000270       __imp_TerminateProcess     0000000180032270     kernel32:KERNEL32.dll
 0002:00000278       __imp_GetCurrentProcess    0000000180032278     kernel32:KERNEL32.dll
 0002:00000280       __imp_SetUnhandledExceptionFilter 0000000180032280     kernel32:KERNEL32.dll
 0002:00000288       __imp_UnhandledExceptionFilter 0000000180032288     kernel32:KERNEL32.dll
 0002:00000290       __imp_RtlVirtualUnwind     0000000180032290     kernel32:KERNEL32.dll
 0002:00000298       __imp_RtlLookupFunctionEntry 0000000180032298     kernel32:KERNEL32.dll
 0002:000002a0       __imp_RtlCaptureContext    00000001800322a0     kernel32:KERNEL32.dll
 0002:000002a8       __imp_LoadLibraryExA       00000001800322a8     kernel32:KERNEL32.dll
 0002:000002b0       \177KERNEL32_NULL_THUNK_DATA 00000001800322b0     kernel32:KERNEL32.dll
 0002:000002b8       __imp_png_create_info_struct 00000001800322b8     libpng16-16:daofs00011.o
 0002:000002c0       __imp_png_create_write_struct_2 00000001800322c0     libpng16-16:daofs00015.o
 0002:000002c8       __imp_png_destroy_write_struct 00000001800322c8     libpng16-16:daofs00019.o
 0002:000002d0       __imp_png_error            00000001800322d0     libpng16-16:daofs00020.o
 0002:000002d8       __imp_png_get_error_ptr    00000001800322d8     libpng16-16:daofs00044.o
 0002:000002e0       __imp_png_get_io_ptr       00000001800322e0     libpng16-16:daofs00058.o
 0002:000002e8       __imp_png_set_IHDR         00000001800322e8     libpng16-16:daofs00149.o
 0002:000002f0       __imp_png_set_bKGD         00000001800322f0     libpng16-16:daofs00155.o
 0002:000002f8       __imp_png_set_compression_level 00000001800322f8     libpng16-16:daofs00168.o
 0002:00000300       __imp_png_set_filler       0000000180032300     libpng16-16:daofs00180.o
 0002:00000308       __imp_png_set_filter       0000000180032308     libpng16-16:daofs00181.o
 0002:00000310       __imp_png_set_longjmp_fn   0000000180032310     libpng16-16:daofs00198.o
 0002:00000318       __imp_png_set_packswap     0000000180032318     libpng16-16:daofs00206.o
 0002:00000320       __imp_png_set_write_fn     0000000180032320     libpng16-16:daofs00245.o
 0002:00000328       __imp_png_set_write_user_transform_fn 0000000180032328     libpng16-16:daofs00247.o
 0002:00000330       __imp_png_write_end        0000000180032330     libpng16-16:daofs00255.o
 0002:00000338       __imp_png_write_image      0000000180032338     libpng16-16:daofs00259.o
 0002:00000340       __imp_png_write_info       0000000180032340     libpng16-16:daofs00260.o
 0002:00000350       __imp_cairo_append_path    0000000180032350     libcairo-2:deqes00000.o
 0002:00000358       __imp_cairo_arc            0000000180032358     libcairo-2:deqes00001.o
 0002:00000360       __imp_cairo_arc_negative   0000000180032360     libcairo-2:deqes00002.o
 0002:00000368       __imp_cairo_clip           0000000180032368     libcairo-2:deqes00003.o
 0002:00000370       __imp_cairo_clip_preserve  0000000180032370     libcairo-2:deqes00005.o
 0002:00000378       __imp_cairo_close_path     0000000180032378     libcairo-2:deqes00006.o
 0002:00000380       __imp_cairo_copy_path_flat 0000000180032380     libcairo-2:deqes00010.o
 0002:00000388       __imp_cairo_create         0000000180032388     libcairo-2:deqes00011.o
 0002:00000390       __imp_cairo_curve_to       0000000180032390     libcairo-2:deqes00012.o
 0002:00000398       __imp_cairo_destroy        0000000180032398     libcairo-2:deqes00014.o
 0002:000003a0       __imp_cairo_fill           00000001800323a0     libcairo-2:deqes00035.o
 0002:000003a8       __imp_cairo_fill_extents   00000001800323a8     libcairo-2:deqes00036.o
 0002:000003b0       __imp_cairo_fill_preserve  00000001800323b0     libcairo-2:deqes00037.o
 0002:000003b8       __imp_cairo_font_extents   00000001800323b8     libcairo-2:deqes00038.o
 0002:000003c0       __imp_cairo_font_face_destroy 00000001800323c0     libcairo-2:deqes00039.o
 0002:000003c8       __imp_cairo_font_face_reference 00000001800323c8     libcairo-2:deqes00043.o
 0002:000003d0       __imp_cairo_font_face_set_user_data 00000001800323d0     libcairo-2:deqes00044.o
 0002:000003d8       __imp_cairo_format_stride_for_width 00000001800323d8     libcairo-2:deqes00061.o
 0002:000003e0       __imp_cairo_ft_font_face_create_for_ft_face 00000001800323e0     libcairo-2:deqes00062.o
 0002:000003e8       __imp_cairo_get_antialias  00000001800323e8     libcairo-2:deqes00070.o
 0002:000003f0       __imp_cairo_get_current_point 00000001800323f0     libcairo-2:deqes00071.o
 0002:000003f8       __imp_cairo_get_dash       00000001800323f8     libcairo-2:deqes00072.o
 0002:00000400       __imp_cairo_get_dash_count 0000000180032400     libcairo-2:deqes00073.o
 0002:00000408       __imp_cairo_get_line_cap   0000000180032408     libcairo-2:deqes00079.o
 0002:00000410       __imp_cairo_get_line_join  0000000180032410     libcairo-2:deqes00080.o
 0002:00000418       __imp_cairo_get_line_width 0000000180032418     libcairo-2:deqes00081.o
 0002:00000420       __imp_cairo_get_matrix     0000000180032420     libcairo-2:deqes00082.o
 0002:00000428       __imp_cairo_get_miter_limit 0000000180032428     libcairo-2:deqes00083.o
 0002:00000430       __imp_cairo_get_operator   0000000180032430     libcairo-2:deqes00084.o
 0002:00000438       __imp_cairo_get_source     0000000180032438     libcairo-2:deqes00087.o
 0002:00000440       __imp_cairo_identity_matrix 0000000180032440     libcairo-2:deqes00096.o
 0002:00000448       __imp_cairo_image_surface_create 0000000180032448     libcairo-2:deqes00097.o
 0002:00000450       __imp_cairo_image_surface_create_for_data 0000000180032450     libcairo-2:deqes00098.o
 0002:00000458       __imp_cairo_image_surface_create_from_png 0000000180032458     libcairo-2:deqes00099.o
 0002:00000460       __imp_cairo_image_surface_create_from_png_stream 0000000180032460     libcairo-2:deqes00100.o
 0002:00000468       __imp_cairo_image_surface_get_data 0000000180032468     libcairo-2:deqes00101.o
 0002:00000470       __imp_cairo_image_surface_get_format 0000000180032470     libcairo-2:deqes00102.o
 0002:00000478       __imp_cairo_image_surface_get_height 0000000180032478     libcairo-2:deqes00103.o
 0002:00000480       __imp_cairo_image_surface_get_stride 0000000180032480     libcairo-2:deqes00104.o
 0002:00000488       __imp_cairo_image_surface_get_width 0000000180032488     libcairo-2:deqes00105.o
 0002:00000490       __imp_cairo_in_fill        0000000180032490     libcairo-2:deqes00107.o
 0002:00000498       __imp_cairo_in_stroke      0000000180032498     libcairo-2:deqes00108.o
 0002:000004a0       __imp_cairo_line_to        00000001800324a0     libcairo-2:deqes00109.o
 0002:000004a8       __imp_cairo_mask_surface   00000001800324a8     libcairo-2:deqes00111.o
 0002:000004b0       __imp_cairo_matrix_init    00000001800324b0     libcairo-2:deqes00112.o
 0002:000004b8       __imp_cairo_move_to        00000001800324b8     libcairo-2:deqes00136.o
 0002:000004c0       __imp_cairo_new_path       00000001800324c0     libcairo-2:deqes00137.o
 0002:000004c8       __imp_cairo_paint          00000001800324c8     libcairo-2:deqes00139.o
 0002:000004d0       __imp_cairo_paint_with_alpha 00000001800324d0     libcairo-2:deqes00140.o
 0002:000004d8       __imp_cairo_path_destroy   00000001800324d8     libcairo-2:deqes00141.o
 0002:000004e0       __imp_cairo_pattern_add_color_stop_rgba 00000001800324e0     libcairo-2:deqes00144.o
 0002:000004e8       __imp_cairo_pattern_create_for_surface 00000001800324e8     libcairo-2:deqes00145.o
 0002:000004f0       __imp_cairo_pattern_create_linear 00000001800324f0     libcairo-2:deqes00146.o
 0002:000004f8       __imp_cairo_pattern_create_radial 00000001800324f8     libcairo-2:deqes00148.o
 0002:00000500       __imp_cairo_pattern_destroy 0000000180032500     libcairo-2:deqes00152.o
 0002:00000508       __imp_cairo_pattern_get_filter 0000000180032508     libcairo-2:deqes00156.o
 0002:00000510       __imp_cairo_pattern_set_extend 0000000180032510     libcairo-2:deqes00166.o
 0002:00000518       __imp_cairo_pattern_set_filter 0000000180032518     libcairo-2:deqes00167.o
 0002:00000520       __imp_cairo_pdf_surface_create_for_stream 0000000180032520     libcairo-2:deqes00174.o
 0002:00000528       __imp_cairo_pdf_surface_set_size 0000000180032528     libcairo-2:deqes00178.o
 0002:00000530       __imp_cairo_pop_group_to_source 0000000180032530     libcairo-2:deqes00182.o
 0002:00000538       __imp_cairo_push_group     0000000180032538     libcairo-2:deqes00194.o
 0002:00000540       __imp_cairo_rectangle      0000000180032540     libcairo-2:deqes00209.o
 0002:00000548       __imp_cairo_restore        0000000180032548     libcairo-2:deqes00239.o
 0002:00000550       __imp_cairo_rotate         0000000180032550     libcairo-2:deqes00240.o
 0002:00000558       __imp_cairo_save           0000000180032558     libcairo-2:deqes00241.o
 0002:00000560       __imp_cairo_scale          0000000180032560     libcairo-2:deqes00242.o
 0002:00000568       __imp_cairo_select_font_face 0000000180032568     libcairo-2:deqes00268.o
 0002:00000570       __imp_cairo_set_antialias  0000000180032570     libcairo-2:deqes00269.o
 0002:00000578       __imp_cairo_set_dash       0000000180032578     libcairo-2:deqes00270.o
 0002:00000580       __imp_cairo_set_fill_rule  0000000180032580     libcairo-2:deqes00271.o
 0002:00000588       __imp_cairo_set_font_face  0000000180032588     libcairo-2:deqes00272.o
 0002:00000590       __imp_cairo_set_font_size  0000000180032590     libcairo-2:deqes00275.o
 0002:00000598       __imp_cairo_set_line_cap   0000000180032598     libcairo-2:deqes00276.o
 0002:000005a0       __imp_cairo_set_line_join  00000001800325a0     libcairo-2:deqes00277.o
 0002:000005a8       __imp_cairo_set_line_width 00000001800325a8     libcairo-2:deqes00278.o
 0002:000005b0       __imp_cairo_set_miter_limit 00000001800325b0     libcairo-2:deqes00280.o
 0002:000005b8       __imp_cairo_set_operator   00000001800325b8     libcairo-2:deqes00281.o
 0002:000005c0       __imp_cairo_set_source     00000001800325c0     libcairo-2:deqes00283.o
 0002:000005c8       __imp_cairo_set_source_rgba 00000001800325c8     libcairo-2:deqes00285.o
 0002:000005d0       __imp_cairo_set_source_surface 00000001800325d0     libcairo-2:deqes00286.o
 0002:000005d8       __imp_cairo_show_page      00000001800325d8     libcairo-2:deqes00290.o
 0002:000005e0       __imp_cairo_show_text      00000001800325e0     libcairo-2:deqes00291.o
 0002:000005e8       __imp_cairo_status_to_string 00000001800325e8     libcairo-2:deqes00294.o
 0002:000005f0       __imp_cairo_stroke         00000001800325f0     libcairo-2:deqes00295.o
 0002:000005f8       __imp_cairo_stroke_extents 00000001800325f8     libcairo-2:deqes00296.o
 0002:00000600       __imp_cairo_stroke_preserve 0000000180032600     libcairo-2:deqes00297.o
 0002:00000608       __imp_cairo_surface_destroy 0000000180032608     libcairo-2:deqes00303.o
 0002:00000610       __imp_cairo_surface_finish 0000000180032610     libcairo-2:deqes00304.o
 0002:00000618       __imp_cairo_surface_flush  0000000180032618     libcairo-2:deqes00305.o
 0002:00000620       __imp_cairo_surface_mark_dirty 0000000180032620     libcairo-2:deqes00318.o
 0002:00000628       __imp_cairo_surface_mark_dirty_rectangle 0000000180032628     libcairo-2:deqes00319.o
 0002:00000630       __imp_cairo_surface_set_mime_data 0000000180032630     libcairo-2:deqes00333.o
 0002:00000638       __imp_cairo_surface_status 0000000180032638     libcairo-2:deqes00336.o
 0002:00000640       __imp_cairo_svg_surface_create_for_stream 0000000180032640     libcairo-2:deqes00343.o
 0002:00000648       __imp_cairo_text_extents   0000000180032648     libcairo-2:deqes00356.o
 0002:00000650       __imp_cairo_text_path      0000000180032650     libcairo-2:deqes00357.o
 0002:00000658       __imp_cairo_transform      0000000180032658     libcairo-2:deqes00362.o
 0002:00000660       __imp_cairo_translate      0000000180032660     libcairo-2:deqes00363.o
 0002:00000668       __imp_cairo_user_to_device_distance 0000000180032668     libcairo-2:deqes00374.o
 0002:00000670       __imp_cairo_version_string 0000000180032670     libcairo-2:deqes00376.o
 0002:00000680       __imp_DGifCloseFile        0000000180032680     libgif-7:dmscs00000.o
 0002:00000688       __imp_DGifOpen             0000000180032688     libgif-7:dmscs00012.o
 0002:00000690       __imp_DGifSlurp            0000000180032690     libgif-7:dmscs00016.o
 0002:000006a0       __imp_jpeg_CreateCompress  00000001800326a0     libjpeg-8:dsfes00031.o
 0002:000006a8       __imp_jpeg_CreateDecompress 00000001800326a8     libjpeg-8:dsfes00032.o
 0002:000006b0       __imp_jpeg_abort_decompress 00000001800326b0     libjpeg-8:dsfes00035.o
 0002:000006b8       __imp_jpeg_destroy_compress 00000001800326b8     libjpeg-8:dsfes00049.o
 0002:000006c0       __imp_jpeg_destroy_decompress 00000001800326c0     libjpeg-8:dsfes00050.o
 0002:000006c8       __imp_jpeg_finish_compress 00000001800326c8     libjpeg-8:dsfes00055.o
 0002:000006d0       __imp_jpeg_finish_decompress 00000001800326d0     libjpeg-8:dsfes00056.o
 0002:000006d8       __imp_jpeg_mem_src         00000001800326d8     libjpeg-8:dsfes00089.o
 0002:000006e0       __imp_jpeg_read_header     00000001800326e0     libjpeg-8:dsfes00096.o
 0002:000006e8       __imp_jpeg_read_scanlines  00000001800326e8     libjpeg-8:dsfes00098.o
 0002:000006f0       __imp_jpeg_set_defaults    00000001800326f0     libjpeg-8:dsfes00102.o
 0002:000006f8       __imp_jpeg_set_quality     00000001800326f8     libjpeg-8:dsfes00105.o
 0002:00000700       __imp_jpeg_simple_progression 0000000180032700     libjpeg-8:dsfes00106.o
 0002:00000708       __imp_jpeg_start_compress  0000000180032708     libjpeg-8:dsfes00108.o
 0002:00000710       __imp_jpeg_start_decompress 0000000180032710     libjpeg-8:dsfes00109.o
 0002:00000718       __imp_jpeg_std_error       0000000180032718     libjpeg-8:dsfes00111.o
 0002:00000720       __imp_jpeg_stdio_src       0000000180032720     libjpeg-8:dsfes00114.o
 0002:00000728       __imp_jpeg_write_scanlines 0000000180032728     libjpeg-8:dsfes00121.o
 0002:00000738       __imp_FT_Done_Face         0000000180032738     libfreetype-6:dwbbs00033.o
 0002:00000740       __imp_FT_Init_FreeType     0000000180032740     libfreetype-6:dwbbs00103.o
 0002:00000748       __imp_FT_New_Face          0000000180032748     libfreetype-6:dwbbs00121.o
 0002:00000758       __guard_check_icall_fptr   0000000180032758     LIBCMT:guard_support.obj
 0002:00000760       __guard_dispatch_icall_fptr 0000000180032760     LIBCMT:guard_support.obj
 0002:00000768       __guard_ss_verify_failure_fptr 0000000180032768     LIBCMT:guard_support.obj
 0002:00000770       __guard_ss_verify_sp_fptr  0000000180032770     LIBCMT:guard_support.obj
 0002:00000778       __xc_a                     0000000180032778     LIBCMT:initializers.obj
 0002:000007b8       _register_canvas_          00000001800327b8     init.obj
 0002:000007c0       __xc_z                     00000001800327c0     LIBCMT:initializers.obj
 0002:000007c8       __xi_a                     00000001800327c8     LIBCMT:initializers.obj
 0002:000007d0       __acrt_stdio_initializer   00000001800327d0     libucrt:stdio_initializer.obj
 0002:000007d8       __acrt_multibyte_initializer 00000001800327d8     libucrt:multibyte_initializer.obj
 0002:000007e0       __acrt_timeset_initializer 00000001800327e0     libucrt:timeset_initializer.obj
 0002:000007e8       __acrt_tran_fma3_initializer 00000001800327e8     libucrt:fma3_initializer.obj
 0002:000007f0       __xi_z                     00000001800327f0     LIBCMT:initializers.obj
 0002:000007f8       __xp_a                     00000001800327f8     LIBCMT:initializers.obj
 0002:00000800       __acrt_locale_terminator   0000000180032800     libucrt:locale_initializer.obj
 0002:00000808       __dcrt_console_output_terminator 0000000180032808     libucrt:console_output_initializer.obj
 0002:00000810       __acrt_stdio_terminator    0000000180032810     libucrt:stdio_initializer.obj
 0002:00000818       __xp_z                     0000000180032818     LIBCMT:initializers.obj
 0002:00000820       __xt_a                     0000000180032820     LIBCMT:initializers.obj
 0002:00000828       __xt_z                     0000000180032828     LIBCMT:initializers.obj
 0002:00000830       __sz_node_exe              0000000180032830     node:node.exe
 0002:00000848       ??_7exception@std@@6B@     0000000180032848     libcpmt:xthrow.obj
 0002:00000858       ??_C@_0BC@EOODALEL@Unknown?5exception?$AA@ 0000000180032858     libcpmt:xthrow.obj
 0002:00000878       ??_7bad_alloc@std@@6B@     0000000180032878     libcpmt:xthrow.obj
 0002:00000888       ??_C@_0P@GHFPNOJB@bad?5allocation?$AA@ 0000000180032888     libcpmt:xthrow.obj
 0002:000008a0       ??_7logic_error@std@@6B@   00000001800328a0     libcpmt:xthrow.obj
 0002:000008b8       ??_7length_error@std@@6B@  00000001800328b8     libcpmt:xthrow.obj
 0002:000008c8       _pRawDllMain               00000001800328c8     LIBCMT:dll_dllmain.obj
 0002:000008c8       _pDefaultRawDllMain        00000001800328c8     LIBCMT:dll_dllmain.obj
 0002:000008d8       ??_7type_info@@6B@         00000001800328d8     LIBCMT:std_type_info_static.obj
 0002:000008f8       ??_7bad_array_new_length@std@@6B@ 00000001800328f8     LIBCMT:throw_bad_alloc.obj
 0002:00000908       ??_C@_0BF@KINCDENJ@bad?5array?5new?5length?$AA@ 0000000180032908     LIBCMT:throw_bad_alloc.obj
 0002:000009b8       _pDestructExceptionObject  00000001800329b8     libvcruntime:ehhelpers.obj
 0002:00000a08       ??_7bad_exception@std@@6B@ 0000000180032a08     libvcruntime:frame.obj
 0002:00000a18       ??_C@_0O@DPKOEFFH@bad?5exception?$AA@ 0000000180032a18     libvcruntime:frame.obj
 0002:00000a40       ??_C@_1DM@KHCHBNEB@?$AAa?$AAp?$AAi?$AA?9?$AAm?$AAs?$AA?9?$AAw?$AAi?$AAn?$AA?9?$AAc?$AAo?$AAr?$AAe?$AA?9?$AAf?$AAi?$AAb?$AAe?$AAr?$AAs?$AA?9?$AAl?$AA1?$AA?9?$AA1?$AA?9?$AA1?$AA?$AA@ 0000000180032a40     libvcruntime:winapi_downlevel.obj
 0002:00000a80       ??_C@_1DK@LPPGFMPP@?$AAa?$AAp?$AAi?$AA?9?$AAm?$AAs?$AA?9?$AAw?$AAi?$AAn?$AA?9?$AAc?$AAo?$AAr?$AAe?$AA?9?$AAs?$AAy?$AAn?$AAc?$AAh?$AA?9?$AAl?$AA1?$AA?9?$AA2?$AA?9?$AA0?$AA?$AA@ 0000000180032a80     libvcruntime:winapi_downlevel.obj
 0002:00000ac0       ??_C@_1BC@GDMECMAK@?$AAk?$AAe?$AAr?$AAn?$AAe?$AAl?$AA3?$AA2?$AA?$AA@ 0000000180032ac0     libvcruntime:winapi_downlevel.obj
 0002:00000ad8       ??_C@_1BA@PFFKHIOG@?$AAa?$AAp?$AAi?$AA?9?$AAm?$AAs?$AA?9?$AA?$AA@ 0000000180032ad8     libvcruntime:winapi_downlevel.obj
 0002:00000ae8       ??_C@_1BA@IAIFMGEF@?$AAe?$AAx?$AAt?$AA?9?$AAm?$AAs?$AA?9?$AA?$AA@ 0000000180032ae8     libvcruntime:winapi_downlevel.obj
 0002:00000b00       ??_C@_08KNHFBNJ@FlsAlloc?$AA@ 0000000180032b00     libvcruntime:winapi_downlevel.obj
 0002:00000b18       ??_C@_07PEJMOBNF@FlsFree?$AA@ 0000000180032b18     libvcruntime:winapi_downlevel.obj
 0002:00000b28       ??_C@_0M@GDNOONDI@FlsGetValue?$AA@ 0000000180032b28     libvcruntime:winapi_downlevel.obj
 0002:00000b40       ??_C@_0M@JCPCPOEF@FlsSetValue?$AA@ 0000000180032b40     libvcruntime:winapi_downlevel.obj
 0002:00000b58       ??_C@_0BM@HCFOFFN@InitializeCriticalSectionEx?$AA@ 0000000180032b58     libvcruntime:winapi_downlevel.obj
 0002:00000ea8       ??_C@_08EHJDFFNH@__based?$CI?$AA@ 0000000180032ea8     libvcruntime:undname.obj
 0002:00000eb8       ??_C@_07KOLFKCDI@__cdecl?$AA@ 0000000180032eb8     libvcruntime:undname.obj
 0002:00000ec0       ??_C@_08GHMPAG@__pascal?$AA@ 0000000180032ec0     libvcruntime:undname.obj
 0002:00000ed0       ??_C@_09IFJBGAPI@__stdcall?$AA@ 0000000180032ed0     libvcruntime:undname.obj
 0002:00000ee0       ??_C@_0L@NPHFGOKO@__thiscall?$AA@ 0000000180032ee0     libvcruntime:undname.obj
 0002:00000ef0       ??_C@_0L@JMKHOMEK@__fastcall?$AA@ 0000000180032ef0     libvcruntime:undname.obj
 0002:00000f00       ??_C@_0N@BCKKPABJ@__vectorcall?$AA@ 0000000180032f00     libvcruntime:undname.obj
 0002:00000f10       ??_C@_09HIJEGCPM@__clrcall?$AA@ 0000000180032f10     libvcruntime:undname.obj
 0002:00000f1c       ??_C@_06GHPCKEAG@__eabi?$AA@ 0000000180032f1c     libvcruntime:undname.obj
 0002:00000f28       ??_C@_07JOMMBBKO@__ptr64?$AA@ 0000000180032f28     libvcruntime:undname.obj
 0002:00000f30       ??_C@_0L@PILCLIHE@__restrict?$AA@ 0000000180032f30     libvcruntime:undname.obj
 0002:00000f40       ??_C@_0M@GFIIJFMG@__unaligned?$AA@ 0000000180032f40     libvcruntime:undname.obj
 0002:00000f50       ??_C@_09DHDLOLLB@restrict?$CI?$AA@ 0000000180032f50     libvcruntime:undname.obj
 0002:00000f5c       ??_C@_04NIHEBCM@?5new?$AA@ 0000000180032f5c     libvcruntime:undname.obj
 0002:00000f68       ??_C@_07FPCDHGMM@?5delete?$AA@ 0000000180032f68     libvcruntime:undname.obj
 0002:00000f70       ??_C@_01NEMOKFLO@?$DN?$AA@ 0000000180032f70     libvcruntime:undname.obj
 0002:00000f74       ??_C@_02GPIOPFAK@?$DO?$DO?$AA@ 0000000180032f74     libvcruntime:undname.obj
 0002:00000f78       ??_C@_02FODMEDOG@?$DM?$DM?$AA@ 0000000180032f78     libvcruntime:undname.obj
 0002:00000f7c       ??_C@_01DCLJPIOD@?$CB?$AA@ 0000000180032f7c     libvcruntime:undname.obj
 0002:00000f80       ??_C@_02EGOFBIJA@?$DN?$DN?$AA@ 0000000180032f80     libvcruntime:undname.obj
 0002:00000f84       ??_C@_02FDNJECIE@?$CB?$DN?$AA@ 0000000180032f84     libvcruntime:undname.obj
 0002:00000f88       ??_C@_02GPECMEKF@?$FL?$FN?$AA@ 0000000180032f88     libvcruntime:undname.obj
 0002:00000f90       ??_C@_08LHJFAFGD@operator?$AA@ 0000000180032f90     libvcruntime:undname.obj
 0002:00000f9c       ??_C@_02HBOOOICD@?9?$DO?$AA@ 0000000180032f9c     libvcruntime:undname.obj
 0002:00000fa0       ??_C@_01NBENCBCI@?$CK?$AA@ 0000000180032fa0     libvcruntime:undname.obj
 0002:00000fa4       ??_C@_02ECNGHCIF@?$CL?$CL?$AA@ 0000000180032fa4     libvcruntime:undname.obj
 0002:00000fa8       ??_C@_02BAABKJLB@?9?9?$AA@ 0000000180032fa8     libvcruntime:undname.obj
 0002:00000fac       ??_C@_01JOAMLHOP@?9?$AA@   0000000180032fac     libvcruntime:undname.obj
 0002:00000fb0       ??_C@_01MIFGBAGJ@?$CL?$AA@ 0000000180032fb0     libvcruntime:undname.obj
 0002:00000fb4       ??_C@_01HNPIGOCE@?$CG?$AA@ 0000000180032fb4     libvcruntime:undname.obj
 0002:00000fb8       ??_C@_03MNHNFDLC@?9?$DO?$CK?$AA@ 0000000180032fb8     libvcruntime:undname.obj
 0002:00000fbc       ??_C@_01KMDKNFGN@?1?$AA@   0000000180032fbc     libvcruntime:undname.obj
 0002:00000fc0       ??_C@_01FGNFDNOH@?$CF?$AA@ 0000000180032fc0     libvcruntime:undname.obj
 0002:00000fc4       ??_C@_01MNNFJEPP@?$DM?$AA@ 0000000180032fc4     libvcruntime:undname.obj
 0002:00000fc8       ??_C@_02EHCHHCKH@?$DM?$DN?$AA@ 0000000180032fc8     libvcruntime:undname.obj
 0002:00000fcc       ??_C@_01PPODPGHN@?$DO?$AA@ 0000000180032fcc     libvcruntime:undname.obj
 0002:00000fd0       ??_C@_02EEKDKGMJ@?$DO?$DN?$AA@ 0000000180032fd0     libvcruntime:undname.obj
 0002:00000fd4       ??_C@_01IHBHIGKO@?0?$AA@   0000000180032fd4     libvcruntime:undname.obj
 0002:00000fd8       ??_C@_02HCKGKOFO@?$CI?$CJ?$AA@ 0000000180032fd8     libvcruntime:undname.obj
 0002:00000fdc       ??_C@_01PJKLJHI@?$HO?$AA@  0000000180032fdc     libvcruntime:undname.obj
 0002:00000fe0       ??_C@_01JKBOJNNK@?$FO?$AA@ 0000000180032fe0     libvcruntime:undname.obj
 0002:00000fe4       ??_C@_01DNKMNLPK@?$HM?$AA@ 0000000180032fe4     libvcruntime:undname.obj
 0002:00000fe8       ??_C@_02PPKAJPJL@?$CG?$CG?$AA@ 0000000180032fe8     libvcruntime:undname.obj
 0002:00000fec       ??_C@_02NONPIBCD@?$HM?$HM?$AA@ 0000000180032fec     libvcruntime:undname.obj
 0002:00000ff0       ??_C@_02FPIMKNGF@?$CK?$DN?$AA@ 0000000180032ff0     libvcruntime:undname.obj
 0002:00000ff4       ??_C@_02FOEOMHFC@?$CL?$DN?$AA@ 0000000180032ff4     libvcruntime:undname.obj
 0002:00000ff8       ??_C@_02FKMDLLOA@?9?$DN?$AA@ 0000000180032ff8     libvcruntime:undname.obj
 0002:00000ffc       ??_C@_02FJEHGPIO@?1?$DN?$AA@ 0000000180032ffc     libvcruntime:undname.obj
 0002:00001000       ??_C@_02FENAOKFI@?$CF?$DN?$AA@ 0000000180033000     libvcruntime:undname.obj
 0002:00001004       ??_C@_03IKFCCPFF@?$DO?$DO?$DN?$AA@ 0000000180033004     libvcruntime:undname.obj
 0002:00001008       ??_C@_03CDNPDDLA@?$DM?$DM?$DN?$AA@ 0000000180033008     libvcruntime:undname.obj
 0002:0000100c       ??_C@_02FGJGFEAB@?$CG?$DN?$AA@ 000000018003300c     libvcruntime:undname.obj
 0002:00001010       ??_C@_02DHLNPPGH@?$HM?$DN?$AA@ 0000000180033010     libvcruntime:undname.obj
 0002:00001014       ??_C@_02MHEGNOJ@?$FO?$DN?$AA@ 0000000180033014     libvcruntime:undname.obj
 0002:00001018       ??_C@_09IFPLHPGF@?$GAvftable?8?$AA@ 0000000180033018     libvcruntime:undname.obj
 0002:00001028       ??_C@_09BLBHBJP@?$GAvbtable?8?$AA@ 0000000180033028     libvcruntime:undname.obj
 0002:00001038       ??_C@_07FEEIOKP@?$GAvcall?8?$AA@ 0000000180033038     libvcruntime:undname.obj
 0002:00001040       ??_C@_08LLFFHHDJ@?$GAtypeof?8?$AA@ 0000000180033040     libvcruntime:undname.obj
 0002:00001050       ??_C@_0BF@KDPPACIK@?$GAlocal?5static?5guard?8?$AA@ 0000000180033050     libvcruntime:undname.obj
 0002:00001068       ??_C@_08OBABFOLI@?$GAstring?8?$AA@ 0000000180033068     libvcruntime:undname.obj
 0002:00001078       ??_C@_0BD@JDLKDPAB@?$GAvbase?5destructor?8?$AA@ 0000000180033078     libvcruntime:undname.obj
 0002:00001090       ??_C@_0BN@DEGPLNFK@?$GAvector?5deleting?5destructor?8?$AA@ 0000000180033090     libvcruntime:undname.obj
 0002:000010b0       ??_C@_0BO@OBMKPJIG@?$GAdefault?5constructor?5closure?8?$AA@ 00000001800330b0     libvcruntime:undname.obj
 0002:000010d0       ??_C@_0BN@IMDCHIKM@?$GAscalar?5deleting?5destructor?8?$AA@ 00000001800330d0     libvcruntime:undname.obj
 0002:000010f0       ??_C@_0BO@PFGOCPJJ@?$GAvector?5constructor?5iterator?8?$AA@ 00000001800330f0     libvcruntime:undname.obj
 0002:00001110       ??_C@_0BN@LFPFMEDL@?$GAvector?5destructor?5iterator?8?$AA@ 0000000180033110     libvcruntime:undname.obj
 0002:00001130       ??_C@_0CE@IKBNEHA@?$GAvector?5vbase?5constructor?5iterat@ 0000000180033130     libvcruntime:undname.obj
 0002:00001158       ??_C@_0BL@NILFHHPC@?$GAvirtual?5displacement?5map?8?$AA@ 0000000180033158     libvcruntime:undname.obj
 0002:00001178       ??_C@_0CB@JONCMFFK@?$GAeh?5vector?5constructor?5iterator?8@ 0000000180033178     libvcruntime:undname.obj
 0002:000011a0       ??_C@_0CA@GCEOPDGL@?$GAeh?5vector?5destructor?5iterator?8?$AA@ 00000001800331a0     libvcruntime:undname.obj
 0002:000011c0       ??_C@_0CH@OOJPLCPH@?$GAeh?5vector?5vbase?5constructor?5ite@ 00000001800331c0     libvcruntime:undname.obj
 0002:000011e8       ??_C@_0BL@LLKPOHJI@?$GAcopy?5constructor?5closure?8?$AA@ 00000001800331e8     libvcruntime:undname.obj
 0002:00001208       ??_C@_0BA@KBCDOMBN@?$GAudt?5returning?8?$AA@ 0000000180033208     libvcruntime:undname.obj
 0002:00001218       ??_C@_03KLGMFNMG@?$GAEH?$AA@ 0000000180033218     libvcruntime:undname.obj
 0002:0000121c       ??_C@_05KHLCHHI@?$GARTTI?$AA@ 000000018003321c     libvcruntime:undname.obj
 0002:00001228       ??_C@_0BA@KKLDJDLB@?$GAlocal?5vftable?8?$AA@ 0000000180033228     libvcruntime:undname.obj
 0002:00001238       ??_C@_0CE@IIHCMGGL@?$GAlocal?5vftable?5constructor?5closu@ 0000000180033238     libvcruntime:undname.obj
 0002:0000125c       ??_C@_06FHBGPFGH@?5new?$FL?$FN?$AA@ 000000018003325c     libvcruntime:undname.obj
 0002:00001268       ??_C@_09LBNFPBCA@?5delete?$FL?$FN?$AA@ 0000000180033268     libvcruntime:undname.obj
 0002:00001278       ??_C@_0P@HJKNJFNN@?$GAomni?5callsig?8?$AA@ 0000000180033278     libvcruntime:undname.obj
 0002:00001288       ??_C@_0BL@CNOONJFP@?$GAplacement?5delete?5closure?8?$AA@ 0000000180033288     libvcruntime:undname.obj
 0002:000012a8       ??_C@_0BN@CKNJLHMB@?$GAplacement?5delete?$FL?$FN?5closure?8?$AA@ 00000001800332a8     libvcruntime:undname.obj
 0002:000012c8       ??_C@_0CG@CFDHKGGD@?$GAmanaged?5vector?5constructor?5iter@ 00000001800332c8     libvcruntime:undname.obj
 0002:000012f0       ??_C@_0CF@IMGKMJNO@?$GAmanaged?5vector?5destructor?5itera@ 00000001800332f0     libvcruntime:undname.obj
 0002:00001318       ??_C@_0CG@HLDDJMAG@?$GAeh?5vector?5copy?5constructor?5iter@ 0000000180033318     libvcruntime:undname.obj
 0002:00001340       ??_C@_0CM@FCBBDIGB@?$GAeh?5vector?5vbase?5copy?5constructo@ 0000000180033340     libvcruntime:undname.obj
 0002:00001370       ??_C@_0BL@CLIPGLGB@?$GAdynamic?5initializer?5for?5?8?$AA@ 0000000180033370     libvcruntime:undname.obj
 0002:00001390       ??_C@_0CB@PDBIFEP@?$GAdynamic?5atexit?5destructor?5for?5?8@ 0000000180033390     libvcruntime:undname.obj
 0002:000013b8       ??_C@_0CD@CGAJBKEJ@?$GAvector?5copy?5constructor?5iterato@ 00000001800333b8     libvcruntime:undname.obj
 0002:000013e0       ??_C@_0CJ@GJELGAMM@?$GAvector?5vbase?5copy?5constructor?5i@ 00000001800333e0     libvcruntime:undname.obj
 0002:00001410       ??_C@_0CL@FGIJHLCE@?$GAmanaged?5vector?5copy?5constructor@ 0000000180033410     libvcruntime:undname.obj
 0002:00001440       ??_C@_0BM@PMGGMLDN@?$GAlocal?5static?5thread?5guard?8?$AA@ 0000000180033440     libvcruntime:undname.obj
 0002:00001460       ??_C@_0N@BDNMDMOL@operator?5?$CC?$CC?5?$AA@ 0000000180033460     libvcruntime:undname.obj
 0002:00001470       ??_C@_0BC@GGEBGALA@operator?5co_await?$AA@ 0000000180033470     libvcruntime:undname.obj
 0002:00001488       ??_C@_0BC@DAFEJGAK@?5Type?5Descriptor?8?$AA@ 0000000180033488     libvcruntime:undname.obj
 0002:000014a0       ??_C@_0BM@LDKODKLH@?5Base?5Class?5Descriptor?5at?5?$CI?$AA@ 00000001800334a0     libvcruntime:undname.obj
 0002:000014c0       ??_C@_0BD@LGICGFMM@?5Base?5Class?5Array?8?$AA@ 00000001800334c0     libvcruntime:undname.obj
 0002:000014d8       ??_C@_0BN@MECKDCOJ@?5Class?5Hierarchy?5Descriptor?8?$AA@ 00000001800334d8     libvcruntime:undname.obj
 0002:000014f8       ??_C@_0BK@CFCOFLF@?5Complete?5Object?5Locator?8?$AA@ 00000001800334f8     libvcruntime:undname.obj
 0002:00001520       ??_C@_1FE@LHBLIKM@?$AAA?$AAs?$AAs?$AAe?$AAr?$AAt?$AAi?$AAo?$AAn?$AA?5?$AAf?$AAa?$AAi?$AAl?$AAe?$AAd?$AA?3?$AA?5?$AA?$CF?$AAT?$AAs?$AA?0?$AA?5?$AAf?$AAi?$AAl?$AAe?$AA?5?$AA?$CF?$AAT?$AAs?$AA?0@ 0000000180033520     libucrt:assert.obj
 0002:00001580       ??_C@_1EK@MBDPDCGA@?$AAM?$AAi?$AAc?$AAr?$AAo?$AAs?$AAo?$AAf?$AAt?$AA?5?$AAV?$AAi?$AAs?$AAu?$AAa?$AAl?$AA?5?$AAC?$AA?$CL?$AA?$CL?$AA?5?$AAR?$AAu?$AAn?$AAt?$AAi?$AAm?$AAe?$AA?5?$AAL?$AAi?$AAb@ 0000000180033580     libucrt:assert.obj
 0002:000015d0       ??_C@_1CE@OJBNHDMO@?$AAA?$AAs?$AAs?$AAe?$AAr?$AAt?$AAi?$AAo?$AAn?$AA?5?$AAf?$AAa?$AAi?$AAl?$AAe?$AAd?$AA?$CB?$AA?$AA@ 00000001800335d0     libucrt:assert.obj
 0002:000015f8       ??_C@_1BE@PHKBBGE@?$AAP?$AAr?$AAo?$AAg?$AAr?$AAa?$AAm?$AA?3?$AA?5?$AA?$AA@ 00000001800335f8     libucrt:assert.obj
 0002:00001610       ??_C@_1O@HEMHKNDC@?$AAF?$AAi?$AAl?$AAe?$AA?3?$AA?5?$AA?$AA@ 0000000180033610     libucrt:assert.obj
 0002:00001620       ??_C@_1O@KCAFKHJE@?$AAL?$AAi?$AAn?$AAe?$AA?3?$AA?5?$AA?$AA@ 0000000180033620     libucrt:assert.obj
 0002:00001630       ??_C@_1BK@PEDCIPMA@?$AAE?$AAx?$AAp?$AAr?$AAe?$AAs?$AAs?$AAi?$AAo?$AAn?$AA?3?$AA?5?$AA?$AA@ 0000000180033630     libucrt:assert.obj
 0002:00001650       ??_C@_1OA@EGMLFBHJ@?$AAF?$AAo?$AAr?$AA?5?$AAi?$AAn?$AAf?$AAo?$AAr?$AAm?$AAa?$AAt?$AAi?$AAo?$AAn?$AA?5?$AAo?$AAn?$AA?5?$AAh?$AAo?$AAw?$AA?5?$AAy?$AAo?$AAu?$AAr?$AA?5?$AAp?$AAr?$AAo?$AAg@ 0000000180033650     libucrt:assert.obj
 0002:00001730       ??_C@_1HK@POCJMFGK@?$AA?$CI?$AAP?$AAr?$AAe?$AAs?$AAs?$AA?5?$AAR?$AAe?$AAt?$AAr?$AAy?$AA?5?$AAt?$AAo?$AA?5?$AAd?$AAe?$AAb?$AAu?$AAg?$AA?5?$AAt?$AAh?$AAe?$AA?5?$AAa?$AAp?$AAp?$AAl?$AAi?$AAc@ 0000000180033730     libucrt:assert.obj
 0002:000017b0       ??_C@_17LGKOMLJ@?$AA?4?$AA?4?$AA?4?$AA?$AA@ 00000001800337b0     libucrt:assert.obj
 0002:000017b8       ??_C@_13LBAGMAIH@?$AA?6?$AA?$AA@ 00000001800337b8     libucrt:assert.obj
 0002:000017bc       ??_C@_15IABLJNFO@?$AA?6?$AA?6?$AA?$AA@ 00000001800337bc     libucrt:assert.obj
 0002:000017c8       ??_C@_1CO@EAEJAADC@?$AA?$DM?$AAp?$AAr?$AAo?$AAg?$AAr?$AAa?$AAm?$AA?5?$AAn?$AAa?$AAm?$AAe?$AA?5?$AAu?$AAn?$AAk?$AAn?$AAo?$AAw?$AAn?$AA?$DO?$AA?$AA@ 00000001800337c8     libucrt:assert.obj
 0002:00001800       standard_lookup_table      0000000180033800     libucrt:output.obj
 0002:00001860       ??_C@_1O@CEDCILHN@?$AA?$CI?$AAn?$AAu?$AAl?$AAl?$AA?$CJ?$AA?$AA@ 0000000180033860     libucrt:output.obj
 0002:00001870       ??_C@_06OJHGLDPL@?$CInull?$CJ?$AA@ 0000000180033870     libucrt:output.obj
 0002:00001878       ??_C@_19DOGDICKI@?$AA?4?$AAe?$AAx?$AAe?$AA?$AA@ 0000000180033878     libucrt:stat.obj
 0002:00001888       ??_C@_19BDKLHPGC@?$AA?4?$AAc?$AAm?$AAd?$AA?$AA@ 0000000180033888     libucrt:stat.obj
 0002:00001898       ??_C@_19PINKOIBI@?$AA?4?$AAb?$AAa?$AAt?$AA?$AA@ 0000000180033898     libucrt:stat.obj
 0002:000018a8       ??_C@_19CDGLJBOD@?$AA?4?$AAc?$AAo?$AAm?$AA?$AA@ 00000001800338a8     libucrt:stat.obj
 0002:000018c0       __acrt_exception_action_table 00000001800338c0     libucrt:exception_filter.obj
 0002:00001980       __acrt_signal_action_table_count 0000000180033980     libucrt:exception_filter.obj
 0002:00001988       __acrt_signal_action_first_fpe_index 0000000180033988     libucrt:exception_filter.obj
 0002:00001990       __acrt_signal_action_fpe_count 0000000180033990     libucrt:exception_filter.obj
 0002:00001998       ??_C@_1BI@BGOHAHKC@?$AAm?$AAs?$AAc?$AAo?$AAr?$AAe?$AAe?$AA?4?$AAd?$AAl?$AAl?$AA?$AA@ 0000000180033998     libucrt:exit.obj
 0002:000019b0       ??_C@_0P@MIGLKIOC@CorExitProcess?$AA@ 00000001800339b0     libucrt:exit.obj
 0002:00001cc0       ??_C@_1EA@JGEFHKEI@?$AAa?$AAp?$AAi?$AA?9?$AAm?$AAs?$AA?9?$AAw?$AAi?$AAn?$AA?9?$AAc?$AAo?$AAr?$AAe?$AA?9?$AAd?$AAa?$AAt?$AAe?$AAt?$AAi?$AAm?$AAe?$AA?9?$AAl?$AA1?$AA?9?$AA1?$AA?9?$AA1?$AA?$AA@ 0000000180033cc0     libucrt:winapi_thunks.obj
 0002:00001d00       ??_C@_1DI@IJCEHOCB@?$AAa?$AAp?$AAi?$AA?9?$AAm?$AAs?$AA?9?$AAw?$AAi?$AAn?$AA?9?$AAc?$AAo?$AAr?$AAe?$AA?9?$AAf?$AAi?$AAl?$AAe?$AA?9?$AAl?$AA1?$AA?9?$AA2?$AA?9?$AA2?$AA?$AA@ 0000000180033d00     libucrt:winapi_thunks.obj
 0002:00001d40       ??_C@_1EI@MPIAOHOC@?$AAa?$AAp?$AAi?$AA?9?$AAm?$AAs?$AA?9?$AAw?$AAi?$AAn?$AA?9?$AAc?$AAo?$AAr?$AAe?$AA?9?$AAl?$AAo?$AAc?$AAa?$AAl?$AAi?$AAz?$AAa?$AAt?$AAi?$AAo?$AAn?$AA?9?$AAl?$AA1?$AA?9@ 0000000180033d40     libucrt:winapi_thunks.obj
 0002:00001d90       ??_C@_1FK@FPHCKFIE@?$AAa?$AAp?$AAi?$AA?9?$AAm?$AAs?$AA?9?$AAw?$AAi?$AAn?$AA?9?$AAc?$AAo?$AAr?$AAe?$AA?9?$AAl?$AAo?$AAc?$AAa?$AAl?$AAi?$AAz?$AAa?$AAt?$AAi?$AAo?$AAn?$AA?9?$AAo?$AAb?$AAs@ 0000000180033d90     libucrt:winapi_thunks.obj
 0002:00001df0       ??_C@_1EM@DILCGIIO@?$AAa?$AAp?$AAi?$AA?9?$AAm?$AAs?$AA?9?$AAw?$AAi?$AAn?$AA?9?$AAc?$AAo?$AAr?$AAe?$AA?9?$AAp?$AAr?$AAo?$AAc?$AAe?$AAs?$AAs?$AAt?$AAh?$AAr?$AAe?$AAa?$AAd?$AAs?$AA?9?$AAl@ 0000000180033df0     libucrt:winapi_thunks.obj
 0002:00001e40       ??_C@_1DM@LNCGDDPN@?$AAa?$AAp?$AAi?$AA?9?$AAm?$AAs?$AA?9?$AAw?$AAi?$AAn?$AA?9?$AAc?$AAo?$AAr?$AAe?$AA?9?$AAs?$AAt?$AAr?$AAi?$AAn?$AAg?$AA?9?$AAl?$AA1?$AA?9?$AA1?$AA?9?$AA0?$AA?$AA@ 0000000180033e40     libucrt:winapi_thunks.obj
 0002:00001e80       ??_C@_1DO@FPAPJEMD@?$AAa?$AAp?$AAi?$AA?9?$AAm?$AAs?$AA?9?$AAw?$AAi?$AAn?$AA?9?$AAc?$AAo?$AAr?$AAe?$AA?9?$AAs?$AAy?$AAs?$AAi?$AAn?$AAf?$AAo?$AA?9?$AAl?$AA1?$AA?9?$AA2?$AA?9?$AA1?$AA?$AA@ 0000000180033e80     libucrt:winapi_thunks.obj
 0002:00001ec0       ??_C@_1DK@NDHNAHIO@?$AAa?$AAp?$AAi?$AA?9?$AAm?$AAs?$AA?9?$AAw?$AAi?$AAn?$AA?9?$AAc?$AAo?$AAr?$AAe?$AA?9?$AAw?$AAi?$AAn?$AAr?$AAt?$AA?9?$AAl?$AA1?$AA?9?$AA1?$AA?9?$AA0?$AA?$AA@ 0000000180033ec0     libucrt:winapi_thunks.obj
 0002:00001f00       ??_C@_1DM@KGHDGBCM@?$AAa?$AAp?$AAi?$AA?9?$AAm?$AAs?$AA?9?$AAw?$AAi?$AAn?$AA?9?$AAc?$AAo?$AAr?$AAe?$AA?9?$AAx?$AAs?$AAt?$AAa?$AAt?$AAe?$AA?9?$AAl?$AA2?$AA?9?$AA1?$AA?9?$AA0?$AA?$AA@ 0000000180033f00     libucrt:winapi_thunks.obj
 0002:00001f40       ??_C@_1EO@IJIOEFOH@?$AAa?$AAp?$AAi?$AA?9?$AAm?$AAs?$AA?9?$AAw?$AAi?$AAn?$AA?9?$AAr?$AAt?$AAc?$AAo?$AAr?$AAe?$AA?9?$AAn?$AAt?$AAu?$AAs?$AAe?$AAr?$AA?9?$AAw?$AAi?$AAn?$AAd?$AAo?$AAw?$AA?9@ 0000000180033f40     libucrt:winapi_thunks.obj
 0002:00001f90       ??_C@_1FG@HHGEKANL@?$AAa?$AAp?$AAi?$AA?9?$AAm?$AAs?$AA?9?$AAw?$AAi?$AAn?$AA?9?$AAs?$AAe?$AAc?$AAu?$AAr?$AAi?$AAt?$AAy?$AA?9?$AAs?$AAy?$AAs?$AAt?$AAe?$AAm?$AAf?$AAu?$AAn?$AAc?$AAt?$AAi@ 0000000180033f90     libucrt:winapi_thunks.obj
 0002:00001ff0       ??_C@_1EG@DBIOJECG@?$AAe?$AAx?$AAt?$AA?9?$AAm?$AAs?$AA?9?$AAw?$AAi?$AAn?$AA?9?$AAn?$AAt?$AAu?$AAs?$AAe?$AAr?$AA?9?$AAd?$AAi?$AAa?$AAl?$AAo?$AAg?$AAb?$AAo?$AAx?$AA?9?$AAl?$AA1?$AA?9?$AA1@ 0000000180033ff0     libucrt:winapi_thunks.obj
 0002:00002040       ??_C@_1EO@FIHMJCLF@?$AAe?$AAx?$AAt?$AA?9?$AAm?$AAs?$AA?9?$AAw?$AAi?$AAn?$AA?9?$AAn?$AAt?$AAu?$AAs?$AAe?$AAr?$AA?9?$AAw?$AAi?$AAn?$AAd?$AAo?$AAw?$AAs?$AAt?$AAa?$AAt?$AAi?$AAo?$AAn?$AA?9@ 0000000180034040     libucrt:winapi_thunks.obj
 0002:00002090       ??_C@_1BC@DNHGCMLG@?$AAa?$AAd?$AAv?$AAa?$AAp?$AAi?$AA3?$AA2?$AA?$AA@ 0000000180034090     libucrt:winapi_thunks.obj
 0002:000020a8       ??_C@_1M@OAIMIKLP@?$AAn?$AAt?$AAd?$AAl?$AAl?$AA?$AA@ 00000001800340a8     libucrt:winapi_thunks.obj
 0002:000020c0       ??_C@_1EG@DPGNFKGC@?$AAa?$AAp?$AAi?$AA?9?$AAm?$AAs?$AA?9?$AAw?$AAi?$AAn?$AA?9?$AAa?$AAp?$AAp?$AAm?$AAo?$AAd?$AAe?$AAl?$AA?9?$AAr?$AAu?$AAn?$AAt?$AAi?$AAm?$AAe?$AA?9?$AAl?$AA1?$AA?9?$AA1@ 00000001800340c0     libucrt:winapi_thunks.obj
 0002:00002108       ??_C@_1O@BCCLBEOE@?$AAu?$AAs?$AAe?$AAr?$AA3?$AA2?$AA?$AA@ 0000000180034108     libucrt:winapi_thunks.obj
 0002:00002120       ??_C@_0BA@FHFNEAED@AreFileApisANSI?$AA@ 0000000180034120     libucrt:winapi_thunks.obj
 0002:00002138       ??_C@_0BA@IHGNDAEB@CompareStringEx?$AA@ 0000000180034138     libucrt:winapi_thunks.obj
 0002:00002170       ??_C@_0BA@HNOPNCHB@GetActiveWindow?$AA@ 0000000180034170     libucrt:winapi_thunks.obj
 0002:00002188       ??_C@_0BD@HHGDFDBJ@GetLastActivePopup?$AA@ 0000000180034188     libucrt:winapi_thunks.obj
 0002:000021a8       ??_C@_0BI@DFKBFLJE@GetProcessWindowStation?$AA@ 00000001800341a8     libucrt:winapi_thunks.obj
 0002:000021c8       ??_C@_0BK@DEKFELLI@GetUserObjectInformationW?$AA@ 00000001800341c8     libucrt:winapi_thunks.obj
 0002:000021f8       ??_C@_0O@KKBNKAPF@LCMapStringEx?$AA@ 00000001800341f8     libucrt:winapi_thunks.obj
 0002:00002210       ??_C@_0BB@HBDEELFH@LocaleNameToLCID?$AA@ 0000000180034210     libucrt:winapi_thunks.obj
 0002:00002230       ??_C@_0M@CHKKJDAI@MessageBoxA?$AA@ 0000000180034230     libucrt:winapi_thunks.obj
 0002:00002248       ??_C@_0M@DLDCCGNP@MessageBoxW?$AA@ 0000000180034248     libucrt:winapi_thunks.obj
 0002:00002258       ??_C@_0CF@OJOFEIGO@AppPolicyGetProcessTerminationMe@ 0000000180034258     libucrt:winapi_thunks.obj
 0002:00002288       ??_C@_0CE@OICFMIKE@AppPolicyGetShowDeveloperDiagnos@ 0000000180034288     libucrt:winapi_thunks.obj
 0002:000022b0       ??_C@_0BL@ODDJNEDA@AppPolicyGetWindowingModel?$AA@ 00000001800342b0     libucrt:winapi_thunks.obj
 0002:000022cc       ??_C@_03OEIAHPBN@INF?$AA@  00000001800342cc     libucrt:cvt.obj
 0002:000022d0       ??_C@_03OJHLLCGB@inf?$AA@  00000001800342d0     libucrt:cvt.obj
 0002:000022d4       ??_C@_03LKNCIKJB@NAN?$AA@  00000001800342d4     libucrt:cvt.obj
 0002:000022d8       ??_C@_03LHCJEHON@nan?$AA@  00000001800342d8     libucrt:cvt.obj
 0002:000022e0       ??_C@_09OFJJIMPC@NAN?$CISNAN?$CJ?$AA@ 00000001800342e0     libucrt:cvt.obj
 0002:000022f0       ??_C@_09IPFBKMDL@nan?$CIsnan?$CJ?$AA@ 00000001800342f0     libucrt:cvt.obj
 0002:00002300       ??_C@_08IKHNHAJ@NAN?$CIIND?$CJ?$AA@ 0000000180034300     libucrt:cvt.obj
 0002:00002310       ??_C@_08OFCDMILK@nan?$CIind?$CJ?$AA@ 0000000180034310     libucrt:cvt.obj
 0002:0000231c       ??_C@_05KLBDPFGC@e?$CL000?$AA@ 000000018003431c     libucrt:cvt.obj
 0002:00002330       __lc_time_c                0000000180034330     libucrt:nlsdata.obj
 0002:000025f0       ??_C@_03KOEHGMDN@Sun?$AA@  00000001800345f0     libucrt:nlsdata.obj
 0002:000025f4       ??_C@_03PDAGKDH@Mon?$AA@   00000001800345f4     libucrt:nlsdata.obj
 0002:000025f8       ??_C@_03NAGEINEP@Tue?$AA@  00000001800345f8     libucrt:nlsdata.obj
 0002:000025fc       ??_C@_03MHOMLAJA@Wed?$AA@  00000001800345fc     libucrt:nlsdata.obj
 0002:00002600       ??_C@_03IOFIKPDN@Thu?$AA@  0000000180034600     libucrt:nlsdata.obj
 0002:00002604       ??_C@_03IDIOELNC@Fri?$AA@  0000000180034604     libucrt:nlsdata.obj
 0002:00002608       ??_C@_03FEFJNEK@Sat?$AA@   0000000180034608     libucrt:nlsdata.obj
 0002:0000260c       ??_C@_06OOPIFAJ@Sunday?$AA@ 000000018003460c     libucrt:nlsdata.obj
 0002:00002614       ??_C@_06JLEDEDGH@Monday?$AA@ 0000000180034614     libucrt:nlsdata.obj
 0002:00002620       ??_C@_07BAAGCFCM@Tuesday?$AA@ 0000000180034620     libucrt:nlsdata.obj
 0002:00002628       ??_C@_09DLIGFAKA@Wednesday?$AA@ 0000000180034628     libucrt:nlsdata.obj
 0002:00002638       ??_C@_08HACCIKIA@Thursday?$AA@ 0000000180034638     libucrt:nlsdata.obj
 0002:00002644       ??_C@_06JECMNKMI@Friday?$AA@ 0000000180034644     libucrt:nlsdata.obj
 0002:00002650       ??_C@_08INBOOONO@Saturday?$AA@ 0000000180034650     libucrt:nlsdata.obj
 0002:0000265c       ??_C@_03JIHJHPIE@Jan?$AA@  000000018003465c     libucrt:nlsdata.obj
 0002:00002660       ??_C@_03HJBDCHOM@Feb?$AA@  0000000180034660     libucrt:nlsdata.obj
 0002:00002664       ??_C@_03ODNJBKGA@Mar?$AA@  0000000180034664     libucrt:nlsdata.obj
 0002:00002668       ??_C@_03LEOLGMJP@Apr?$AA@  0000000180034668     libucrt:nlsdata.obj
 0002:0000266c       ??_C@_03CNMDKL@May?$AA@    000000018003466c     libucrt:nlsdata.obj
 0002:00002670       ??_C@_03IDFGHECI@Jun?$AA@  0000000180034670     libucrt:nlsdata.obj
 0002:00002674       ??_C@_03LBGABGKK@Jul?$AA@  0000000180034674     libucrt:nlsdata.obj
 0002:00002678       ??_C@_03IFJFEIGA@Aug?$AA@  0000000180034678     libucrt:nlsdata.obj
 0002:0000267c       ??_C@_03GGCAPAJC@Sep?$AA@  000000018003467c     libucrt:nlsdata.obj
 0002:00002680       ??_C@_03BMAOKBAD@Oct?$AA@  0000000180034680     libucrt:nlsdata.obj
 0002:00002684       ??_C@_03JPJOFNIA@Nov?$AA@  0000000180034684     libucrt:nlsdata.obj
 0002:00002688       ??_C@_03MKABNOCG@Dec?$AA@  0000000180034688     libucrt:nlsdata.obj
 0002:00002690       ??_C@_07CGJPFGJA@January?$AA@ 0000000180034690     libucrt:nlsdata.obj
 0002:00002698       ??_C@_08GNJGEPFN@February?$AA@ 0000000180034698     libucrt:nlsdata.obj
 0002:000026a4       ??_C@_05HPCKOFNC@March?$AA@ 00000001800346a4     libucrt:nlsdata.obj
 0002:000026ac       ??_C@_05DMJDNLEJ@April?$AA@ 00000001800346ac     libucrt:nlsdata.obj
 0002:000026b4       ??_C@_04CNLMGBGM@June?$AA@ 00000001800346b4     libucrt:nlsdata.obj
 0002:000026bc       ??_C@_04MIEPOIFP@July?$AA@ 00000001800346bc     libucrt:nlsdata.obj
 0002:000026c4       ??_C@_06LBBHFDDG@August?$AA@ 00000001800346c4     libucrt:nlsdata.obj
 0002:000026d0       ??_C@_09BHHEALKD@September?$AA@ 00000001800346d0     libucrt:nlsdata.obj
 0002:000026e0       ??_C@_07JJNFCEND@October?$AA@ 00000001800346e0     libucrt:nlsdata.obj
 0002:000026e8       ??_C@_08HCHEGEOA@November?$AA@ 00000001800346e8     libucrt:nlsdata.obj
 0002:000026f8       ??_C@_08EDHMEBNP@December?$AA@ 00000001800346f8     libucrt:nlsdata.obj
 0002:00002704       ??_C@_02DEDBPAFC@AM?$AA@   0000000180034704     libucrt:nlsdata.obj
 0002:00002708       ??_C@_02CJNFDJBF@PM?$AA@   0000000180034708     libucrt:nlsdata.obj
 0002:00002710       ??_C@_08BPBNCDIB@MM?1dd?1yy?$AA@ 0000000180034710     libucrt:nlsdata.obj
 0002:00002720       ??_C@_0BE@CKGJFCPC@dddd?0?5MMMM?5dd?0?5yyyy?$AA@ 0000000180034720     libucrt:nlsdata.obj
 0002:00002738       ??_C@_08JCCMCCIL@HH?3mm?3ss?$AA@ 0000000180034738     libucrt:nlsdata.obj
 0002:00002748       ??_C@_17MBGCMIPB@?$AAS?$AAu?$AAn?$AA?$AA@ 0000000180034748     libucrt:nlsdata.obj
 0002:00002750       ??_C@_17KBOMKBF@?$AAM?$AAo?$AAn?$AA?$AA@ 0000000180034750     libucrt:nlsdata.obj
 0002:00002758       ??_C@_17BMKGEGOJ@?$AAT?$AAu?$AAe?$AA?$AA@ 0000000180034758     libucrt:nlsdata.obj
 0002:00002760       ??_C@_17CJEDCEPE@?$AAW?$AAe?$AAd?$AA?$AA@ 0000000180034760     libucrt:nlsdata.obj
 0002:00002768       ??_C@_17PDPHAADD@?$AAT?$AAh?$AAu?$AA?$AA@ 0000000180034768     libucrt:nlsdata.obj
 0002:00002770       ??_C@_17HFOLPPLP@?$AAF?$AAr?$AAi?$AA?$AA@ 0000000180034770     libucrt:nlsdata.obj
 0002:00002778       ??_C@_17GGIBDPIH@?$AAS?$AAa?$AAt?$AA?$AA@ 0000000180034778     libucrt:nlsdata.obj
 0002:00002780       ??_C@_1O@IHNHDHPB@?$AAS?$AAu?$AAn?$AAd?$AAa?$AAy?$AA?$AA@ 0000000180034780     libucrt:nlsdata.obj
 0002:00002790       ??_C@_1O@MMNBFLIA@?$AAM?$AAo?$AAn?$AAd?$AAa?$AAy?$AA?$AA@ 0000000180034790     libucrt:nlsdata.obj
 0002:000027a0       ??_C@_1BA@ENFBFFEK@?$AAT?$AAu?$AAe?$AAs?$AAd?$AAa?$AAy?$AA?$AA@ 00000001800347a0     libucrt:nlsdata.obj
 0002:000027b0       ??_C@_1BE@EBOGMDOH@?$AAW?$AAe?$AAd?$AAn?$AAe?$AAs?$AAd?$AAa?$AAy?$AA?$AA@ 00000001800347b0     libucrt:nlsdata.obj
 0002:000027c8       ??_C@_1BC@HHMNLIHE@?$AAT?$AAh?$AAu?$AAr?$AAs?$AAd?$AAa?$AAy?$AA?$AA@ 00000001800347c8     libucrt:nlsdata.obj
 0002:000027e0       ??_C@_1O@PDICJHAG@?$AAF?$AAr?$AAi?$AAd?$AAa?$AAy?$AA?$AA@ 00000001800347e0     libucrt:nlsdata.obj
 0002:000027f0       ??_C@_1BC@ENMNNPAJ@?$AAS?$AAa?$AAt?$AAu?$AAr?$AAd?$AAa?$AAy?$AA?$AA@ 00000001800347f0     libucrt:nlsdata.obj
 0002:00002808       ??_C@_17DKNBKCHM@?$AAJ?$AAa?$AAn?$AA?$AA@ 0000000180034808     libucrt:nlsdata.obj
 0002:00002810       ??_C@_17LMDJEKJN@?$AAF?$AAe?$AAb?$AA?$AA@ 0000000180034810     libucrt:nlsdata.obj
 0002:00002818       ??_C@_17CKNLEDEC@?$AAM?$AAa?$AAr?$AA?$AA@ 0000000180034818     libucrt:nlsdata.obj
 0002:00002820       ??_C@_17LFPOIHDD@?$AAA?$AAp?$AAr?$AA?$AA@ 0000000180034820     libucrt:nlsdata.obj
 0002:00002828       ??_C@_17PNNKMEED@?$AAM?$AAa?$AAy?$AA?$AA@ 0000000180034828     libucrt:nlsdata.obj
 0002:00002830       ??_C@_17KCJGOCPB@?$AAJ?$AAu?$AAn?$AA?$AA@ 0000000180034830     libucrt:nlsdata.obj
 0002:00002838       ??_C@_17IJPCKHK@?$AAJ?$AAu?$AAl?$AA?$AA@ 0000000180034838     libucrt:nlsdata.obj
 0002:00002840       ??_C@_17ICPELBCN@?$AAA?$AAu?$AAg?$AA?$AA@ 0000000180034840     libucrt:nlsdata.obj
 0002:00002848       ??_C@_17HCHCOKMG@?$AAS?$AAe?$AAp?$AA?$AA@ 0000000180034848     libucrt:nlsdata.obj
 0002:00002850       ??_C@_17FNLKOI@?$AAO?$AAc?$AAt?$AA?$AA@ 0000000180034850     libucrt:nlsdata.obj
 0002:00002858       ??_C@_17BBDMLCIG@?$AAN?$AAo?$AAv?$AA?$AA@ 0000000180034858     libucrt:nlsdata.obj
 0002:00002860       ??_C@_17EGKACKIF@?$AAD?$AAe?$AAc?$AA?$AA@ 0000000180034860     libucrt:nlsdata.obj
 0002:00002868       ??_C@_1BA@EFMEIEBA@?$AAJ?$AAa?$AAn?$AAu?$AAa?$AAr?$AAy?$AA?$AA@ 0000000180034868     libucrt:nlsdata.obj
 0002:00002878       ??_C@_1BC@JGDDFFAM@?$AAF?$AAe?$AAb?$AAr?$AAu?$AAa?$AAr?$AAy?$AA?$AA@ 0000000180034878     libucrt:nlsdata.obj
 0002:00002890       ??_C@_1M@IKEENEDF@?$AAM?$AAa?$AAr?$AAc?$AAh?$AA?$AA@ 0000000180034890     libucrt:nlsdata.obj
 0002:000028a0       ??_C@_1M@GJNLMHFD@?$AAA?$AAp?$AAr?$AAi?$AAl?$AA?$AA@ 00000001800348a0     libucrt:nlsdata.obj
 0002:000028b0       ??_C@_19EPFLPGAP@?$AAJ?$AAu?$AAn?$AAe?$AA?$AA@ 00000001800348b0     libucrt:nlsdata.obj
 0002:000028c0       ??_C@_19BIFMLPCD@?$AAJ?$AAu?$AAl?$AAy?$AA?$AA@ 00000001800348c0     libucrt:nlsdata.obj
 0002:000028d0       ??_C@_1O@PAHLKOAC@?$AAA?$AAu?$AAg?$AAu?$AAs?$AAt?$AA?$AA@ 00000001800348d0     libucrt:nlsdata.obj
 0002:000028e0       ??_C@_1BE@DKAAMBJL@?$AAS?$AAe?$AAp?$AAt?$AAe?$AAm?$AAb?$AAe?$AAr?$AA?$AA@ 00000001800348e0     libucrt:nlsdata.obj
 0002:000028f8       ??_C@_1BA@EPANDLNG@?$AAO?$AAc?$AAt?$AAo?$AAb?$AAe?$AAr?$AA?$AA@ 00000001800348f8     libucrt:nlsdata.obj
 0002:00002908       ??_C@_1BC@BGLIFPF@?$AAN?$AAo?$AAv?$AAe?$AAm?$AAb?$AAe?$AAr?$AA?$AA@ 0000000180034908     libucrt:nlsdata.obj
 0002:00002920       ??_C@_1BC@FEMKIFH@?$AAD?$AAe?$AAc?$AAe?$AAm?$AAb?$AAe?$AAr?$AA?$AA@ 0000000180034920     libucrt:nlsdata.obj
 0002:00002934       ??_C@_15ODEHAHHF@?$AAA?$AAM?$AA?$AA@ 0000000180034934     libucrt:nlsdata.obj
 0002:0000293c       ??_C@_15CLMNNGEL@?$AAP?$AAM?$AA?$AA@ 000000018003493c     libucrt:nlsdata.obj
 0002:00002948       ??_C@_1BC@IEBCMHCM@?$AAM?$AAM?$AA?1?$AAd?$AAd?$AA?1?$AAy?$AAy?$AA?$AA@ 0000000180034948     libucrt:nlsdata.obj
 0002:00002960       ??_C@_1CI@KNAKOEBC@?$AAd?$AAd?$AAd?$AAd?$AA?0?$AA?5?$AAM?$AAM?$AAM?$AAM?$AA?5?$AAd?$AAd?$AA?0?$AA?5?$AAy?$AAy?$AAy?$AAy?$AA?$AA@ 0000000180034960     libucrt:nlsdata.obj
 0002:00002988       ??_C@_1BC@GDGBMEMK@?$AAH?$AAH?$AA?3?$AAm?$AAm?$AA?3?$AAs?$AAs?$AA?$AA@ 0000000180034988     libucrt:nlsdata.obj
 0002:000029a0       ??_C@_1M@BMHNFIME@?$AAe?$AAn?$AA?9?$AAU?$AAS?$AA?$AA@ 00000001800349a0     libucrt:nlsdata.obj
 0002:000029ac       ?ccs@?1???$__acrt_stdio_parse_mode@D@@YA?AU__acrt_stdio_stream_mode@@QEBD@Z@4QBDB 00000001800349ac     libucrt:openfile.obj
 0002:000029b0       ?utf8_encoding@?1???$__acrt_stdio_parse_mode@D@@YA?AU__acrt_stdio_stream_mode@@QEBD@Z@4QBDB 00000001800349b0     libucrt:openfile.obj
 0002:000029b8       ?utf16_encoding@?1???$__acrt_stdio_parse_mode@D@@YA?AU__acrt_stdio_stream_mode@@QEBD@Z@4QBDB 00000001800349b8     libucrt:openfile.obj
 0002:000029c0       ?unicode_encoding@?1???$__acrt_stdio_parse_mode@D@@YA?AU__acrt_stdio_stream_mode@@QEBD@Z@4QBDB 00000001800349c0     libucrt:openfile.obj
 0002:000029e8       ??_C@_1M@HPNHIDJI@?$AAj?$AAa?$AA?9?$AAJ?$AAP?$AA?$AA@ 00000001800349e8     libucrt:mbctype.obj
 0002:000029f8       ??_C@_1M@BIBDDEMK@?$AAz?$AAh?$AA?9?$AAC?$AAN?$AA?$AA@ 00000001800349f8     libucrt:mbctype.obj
 0002:00002a08       ??_C@_1M@JLOOOEGK@?$AAk?$AAo?$AA?9?$AAK?$AAR?$AA?$AA@ 0000000180034a08     libucrt:mbctype.obj
 0002:00002a18       ??_C@_1M@CLNBBOPM@?$AAz?$AAh?$AA?9?$AAT?$AAW?$AA?$AA@ 0000000180034a18     libucrt:mbctype.obj
 0002:00002a30       __newctype                 0000000180034a30     libucrt:ctype.obj
 0002:00002d30       __newclmap                 0000000180034d30     libucrt:ctype.obj
 0002:00002eb0       __newcumap                 0000000180034eb0     libucrt:ctype.obj
 0002:00003030       _wctype                    0000000180035030     libucrt:ctype.obj
 0002:00003234       ??_C@_05HGHHAHAP@log10?$AA@ 0000000180035234     libucrt:fpexcept.obj
 0002:0000323c       ??_C@_04PDIFKINK@acos?$AA@ 000000018003523c     libucrt:fpexcept.obj
 0002:00003248       ??_C@_1M@BJNKEDC@?$AAc?$AAa?$AA?9?$AAE?$AAS?$AA?$AA@ 0000000180035248     libucrt:lcidtoname_downlevel.obj
 0002:00003258       ??_C@_1M@IJJHFJHA@?$AAc?$AAs?$AA?9?$AAC?$AAZ?$AA?$AA@ 0000000180035258     libucrt:lcidtoname_downlevel.obj
 0002:00003268       ??_C@_1M@CLPEOBGI@?$AAd?$AAa?$AA?9?$AAD?$AAK?$AA?$AA@ 0000000180035268     libucrt:lcidtoname_downlevel.obj
 0002:00003278       ??_C@_1M@MCMADGCB@?$AAd?$AAe?$AA?9?$AAD?$AAE?$AA?$AA@ 0000000180035278     libucrt:lcidtoname_downlevel.obj
 0002:00003288       ??_C@_1M@OOCKEMAM@?$AAe?$AAl?$AA?9?$AAG?$AAR?$AA?$AA@ 0000000180035288     libucrt:lcidtoname_downlevel.obj
 0002:00003298       ??_C@_1M@DDNJFGID@?$AAf?$AAi?$AA?9?$AAF?$AAI?$AA?$AA@ 0000000180035298     libucrt:lcidtoname_downlevel.obj
 0002:000032a8       ??_C@_1M@GLIPPMAC@?$AAf?$AAr?$AA?9?$AAF?$AAR?$AA?$AA@ 00000001800352a8     libucrt:lcidtoname_downlevel.obj
 0002:000032b8       ??_C@_1M@GFMCHPE@?$AAh?$AAe?$AA?9?$AAI?$AAL?$AA?$AA@ 00000001800352b8     libucrt:lcidtoname_downlevel.obj
 0002:000032c8       ??_C@_1M@MHLPGNKM@?$AAh?$AAu?$AA?9?$AAH?$AAU?$AA?$AA@ 00000001800352c8     libucrt:lcidtoname_downlevel.obj
 0002:000032d8       ??_C@_1M@LPDDNNPN@?$AAi?$AAs?$AA?9?$AAI?$AAS?$AA?$AA@ 00000001800352d8     libucrt:lcidtoname_downlevel.obj
 0002:000032e8       ??_C@_1M@MADIPODN@?$AAi?$AAt?$AA?9?$AAI?$AAT?$AA?$AA@ 00000001800352e8     libucrt:lcidtoname_downlevel.obj
 0002:000032f8       ??_C@_1M@IHBJJGG@?$AAn?$AAl?$AA?9?$AAN?$AAL?$AA?$AA@ 00000001800352f8     libucrt:lcidtoname_downlevel.obj
 0002:00003308       ??_C@_1M@EANAGDL@?$AAn?$AAb?$AA?9?$AAN?$AAO?$AA?$AA@ 0000000180035308     libucrt:lcidtoname_downlevel.obj
 0002:00003318       ??_C@_1M@NEIEMEGP@?$AAp?$AAl?$AA?9?$AAP?$AAL?$AA?$AA@ 0000000180035318     libucrt:lcidtoname_downlevel.obj
 0002:00003328       ??_C@_1M@BOCFIGEP@?$AAp?$AAt?$AA?9?$AAB?$AAR?$AA?$AA@ 0000000180035328     libucrt:lcidtoname_downlevel.obj
 0002:00003338       ??_C@_1M@IMPFOPBG@?$AAr?$AAo?$AA?9?$AAR?$AAO?$AA?$AA@ 0000000180035338     libucrt:lcidtoname_downlevel.obj
 0002:00003348       ??_C@_1M@IDNNEJMM@?$AAr?$AAu?$AA?9?$AAR?$AAU?$AA?$AA@ 0000000180035348     libucrt:lcidtoname_downlevel.obj
 0002:00003358       ??_C@_1M@LILEEOGM@?$AAh?$AAr?$AA?9?$AAH?$AAR?$AA?$AA@ 0000000180035358     libucrt:lcidtoname_downlevel.obj
 0002:00003368       ??_C@_1M@FKIFEHPB@?$AAs?$AAk?$AA?9?$AAS?$AAK?$AA?$AA@ 0000000180035368     libucrt:lcidtoname_downlevel.obj
 0002:00003378       ??_C@_1M@LJMAMNPJ@?$AAs?$AAq?$AA?9?$AAA?$AAL?$AA?$AA@ 0000000180035378     libucrt:lcidtoname_downlevel.obj
 0002:00003388       ??_C@_1M@GIAKDKJK@?$AAs?$AAv?$AA?9?$AAS?$AAE?$AA?$AA@ 0000000180035388     libucrt:lcidtoname_downlevel.obj
 0002:00003398       ??_C@_1M@MKJKIKCL@?$AAt?$AAh?$AA?9?$AAT?$AAH?$AA?$AA@ 0000000180035398     libucrt:lcidtoname_downlevel.obj
 0002:000033a8       ??_C@_1M@MFLCCMPB@?$AAt?$AAr?$AA?9?$AAT?$AAR?$AA?$AA@ 00000001800353a8     libucrt:lcidtoname_downlevel.obj
 0002:000033b8       ??_C@_1M@OIJHDKJN@?$AAu?$AAr?$AA?9?$AAP?$AAK?$AA?$AA@ 00000001800353b8     libucrt:lcidtoname_downlevel.obj
 0002:000033c8       ??_C@_1M@LHIPCIEK@?$AAi?$AAd?$AA?9?$AAI?$AAD?$AA?$AA@ 00000001800353c8     libucrt:lcidtoname_downlevel.obj
 0002:000033d8       ??_C@_1M@MFMOBGI@?$AAu?$AAk?$AA?9?$AAU?$AAA?$AA?$AA@ 00000001800353d8     libucrt:lcidtoname_downlevel.obj
 0002:000033e8       ??_C@_1M@OBGLJIPL@?$AAb?$AAe?$AA?9?$AAB?$AAY?$AA?$AA@ 00000001800353e8     libucrt:lcidtoname_downlevel.obj
 0002:000033f8       ??_C@_1M@BCFAJEAD@?$AAs?$AAl?$AA?9?$AAS?$AAI?$AA?$AA@ 00000001800353f8     libucrt:lcidtoname_downlevel.obj
 0002:00003408       ??_C@_1M@FKFFEDDN@?$AAe?$AAt?$AA?9?$AAE?$AAE?$AA?$AA@ 0000000180035408     libucrt:lcidtoname_downlevel.obj
 0002:00003418       ??_C@_1M@KGKKAACI@?$AAl?$AAv?$AA?9?$AAL?$AAV?$AA?$AA@ 0000000180035418     libucrt:lcidtoname_downlevel.obj
 0002:00003428       ??_C@_1M@IFGBIJO@?$AAl?$AAt?$AA?9?$AAL?$AAT?$AA?$AA@ 0000000180035428     libucrt:lcidtoname_downlevel.obj
 0002:00003438       ??_C@_1M@FGEAHEDM@?$AAf?$AAa?$AA?9?$AAI?$AAR?$AA?$AA@ 0000000180035438     libucrt:lcidtoname_downlevel.obj
 0002:00003448       ??_C@_1M@KBMAIBFN@?$AAv?$AAi?$AA?9?$AAV?$AAN?$AA?$AA@ 0000000180035448     libucrt:lcidtoname_downlevel.obj
 0002:00003458       ??_C@_1M@GPCBKDJK@?$AAh?$AAy?$AA?9?$AAA?$AAM?$AA?$AA@ 0000000180035458     libucrt:lcidtoname_downlevel.obj
 0002:00003468       ??_C@_1BG@BECMDDJB@?$AAa?$AAz?$AA?9?$AAA?$AAZ?$AA?9?$AAL?$AAa?$AAt?$AAn?$AA?$AA@ 0000000180035468     libucrt:lcidtoname_downlevel.obj
 0002:00003480       ??_C@_1M@MAOFCAEA@?$AAe?$AAu?$AA?9?$AAE?$AAS?$AA?$AA@ 0000000180035480     libucrt:lcidtoname_downlevel.obj
 0002:00003490       ??_C@_1M@IGHABKPI@?$AAm?$AAk?$AA?9?$AAM?$AAK?$AA?$AA@ 0000000180035490     libucrt:lcidtoname_downlevel.obj
 0002:000034a0       ??_C@_1M@IAIGNEJG@?$AAt?$AAn?$AA?9?$AAZ?$AAA?$AA?$AA@ 00000001800354a0     libucrt:lcidtoname_downlevel.obj
 0002:000034b0       ??_C@_1M@IIJCOJFA@?$AAx?$AAh?$AA?9?$AAZ?$AAA?$AA?$AA@ 00000001800354b0     libucrt:lcidtoname_downlevel.obj
 0002:000034c0       ??_C@_1M@LGPJHNJH@?$AAz?$AAu?$AA?9?$AAZ?$AAA?$AA?$AA@ 00000001800354c0     libucrt:lcidtoname_downlevel.obj
 0002:000034d0       ??_C@_1M@HOKAOIO@?$AAa?$AAf?$AA?9?$AAZ?$AAA?$AA?$AA@ 00000001800354d0     libucrt:lcidtoname_downlevel.obj
 0002:000034e0       ??_C@_1M@DPCLHLIE@?$AAk?$AAa?$AA?9?$AAG?$AAE?$AA?$AA@ 00000001800354e0     libucrt:lcidtoname_downlevel.obj
 0002:000034f0       ??_C@_1M@BLKMHJBI@?$AAf?$AAo?$AA?9?$AAF?$AAO?$AA?$AA@ 00000001800354f0     libucrt:lcidtoname_downlevel.obj
 0002:00003500       ??_C@_1M@LGGJAPPB@?$AAh?$AAi?$AA?9?$AAI?$AAN?$AA?$AA@ 0000000180035500     libucrt:lcidtoname_downlevel.obj
 0002:00003510       ??_C@_1M@FIKPIHFE@?$AAm?$AAt?$AA?9?$AAM?$AAT?$AA?$AA@ 0000000180035510     libucrt:lcidtoname_downlevel.obj
 0002:00003520       ??_C@_1M@HEGGPBFA@?$AAs?$AAe?$AA?9?$AAN?$AAO?$AA?$AA@ 0000000180035520     libucrt:lcidtoname_downlevel.obj
 0002:00003530       ??_C@_1M@EIBJEEPA@?$AAm?$AAs?$AA?9?$AAM?$AAY?$AA?$AA@ 0000000180035530     libucrt:lcidtoname_downlevel.obj
 0002:00003540       ??_C@_1M@FHLBGMPP@?$AAk?$AAk?$AA?9?$AAK?$AAZ?$AA?$AA@ 0000000180035540     libucrt:lcidtoname_downlevel.obj
 0002:00003550       ??_C@_1M@NGJJLCGI@?$AAk?$AAy?$AA?9?$AAK?$AAG?$AA?$AA@ 0000000180035550     libucrt:lcidtoname_downlevel.obj
 0002:00003560       ??_C@_1M@GIENNBFC@?$AAs?$AAw?$AA?9?$AAK?$AAE?$AA?$AA@ 0000000180035560     libucrt:lcidtoname_downlevel.obj
 0002:00003570       ??_C@_1BG@NDGMJIMJ@?$AAu?$AAz?$AA?9?$AAU?$AAZ?$AA?9?$AAL?$AAa?$AAt?$AAn?$AA?$AA@ 0000000180035570     libucrt:lcidtoname_downlevel.obj
 0002:00003588       ??_C@_1M@IDCCIHBC@?$AAt?$AAt?$AA?9?$AAR?$AAU?$AA?$AA@ 0000000180035588     libucrt:lcidtoname_downlevel.obj
 0002:00003598       ??_C@_1M@LOICPMOJ@?$AAb?$AAn?$AA?9?$AAI?$AAN?$AA?$AA@ 0000000180035598     libucrt:lcidtoname_downlevel.obj
 0002:000035a8       ??_C@_1M@KPKKNEAH@?$AAp?$AAa?$AA?9?$AAI?$AAN?$AA?$AA@ 00000001800355a8     libucrt:lcidtoname_downlevel.obj
 0002:000035b8       ??_C@_1M@PJGPPBOG@?$AAg?$AAu?$AA?9?$AAI?$AAN?$AA?$AA@ 00000001800355b8     libucrt:lcidtoname_downlevel.obj
 0002:000035c8       ??_C@_1M@KMKMOPHI@?$AAt?$AAa?$AA?9?$AAI?$AAN?$AA?$AA@ 00000001800355c8     libucrt:lcidtoname_downlevel.obj
 0002:000035d8       ??_C@_1M@KFEHEPAC@?$AAt?$AAe?$AA?9?$AAI?$AAN?$AA?$AA@ 00000001800355d8     libucrt:lcidtoname_downlevel.obj
 0002:000035e8       ??_C@_1M@CDCLMGHI@?$AAk?$AAn?$AA?9?$AAI?$AAN?$AA?$AA@ 00000001800355e8     libucrt:lcidtoname_downlevel.obj
 0002:000035f8       ??_C@_1M@MIODLDKF@?$AAm?$AAl?$AA?9?$AAI?$AAN?$AA?$AA@ 00000001800355f8     libucrt:lcidtoname_downlevel.obj
 0002:00003608       ??_C@_1M@PBIEACPO@?$AAm?$AAr?$AA?9?$AAI?$AAN?$AA?$AA@ 0000000180035608     libucrt:lcidtoname_downlevel.obj
 0002:00003618       ??_C@_1M@NIDEAGPH@?$AAs?$AAa?$AA?9?$AAI?$AAN?$AA?$AA@ 0000000180035618     libucrt:lcidtoname_downlevel.obj
 0002:00003628       ??_C@_1M@FHIHCBIO@?$AAm?$AAn?$AA?9?$AAM?$AAN?$AA?$AA@ 0000000180035628     libucrt:lcidtoname_downlevel.obj
 0002:00003638       ??_C@_1M@JAIJPENP@?$AAc?$AAy?$AA?9?$AAG?$AAB?$AA?$AA@ 0000000180035638     libucrt:lcidtoname_downlevel.obj
 0002:00003648       ??_C@_1M@PHGFBEPN@?$AAg?$AAl?$AA?9?$AAE?$AAS?$AA?$AA@ 0000000180035648     libucrt:lcidtoname_downlevel.obj
 0002:00003658       ??_C@_1O@KPIPDNCP@?$AAk?$AAo?$AAk?$AA?9?$AAI?$AAN?$AA?$AA@ 0000000180035658     libucrt:lcidtoname_downlevel.obj
 0002:00003668       ??_C@_1O@KNHJLDJA@?$AAs?$AAy?$AAr?$AA?9?$AAS?$AAY?$AA?$AA@ 0000000180035668     libucrt:lcidtoname_downlevel.obj
 0002:00003678       ??_C@_1O@MKEKBLAH@?$AAd?$AAi?$AAv?$AA?9?$AAM?$AAV?$AA?$AA@ 0000000180035678     libucrt:lcidtoname_downlevel.obj
 0002:00003688       ??_C@_1O@OHDCKDDF@?$AAq?$AAu?$AAz?$AA?9?$AAB?$AAO?$AA?$AA@ 0000000180035688     libucrt:lcidtoname_downlevel.obj
 0002:00003698       ??_C@_1M@LEPJNLFD@?$AAn?$AAs?$AA?9?$AAZ?$AAA?$AA?$AA@ 0000000180035698     libucrt:lcidtoname_downlevel.obj
 0002:000036a8       ??_C@_1M@OMLEIIJB@?$AAm?$AAi?$AA?9?$AAN?$AAZ?$AA?$AA@ 00000001800356a8     libucrt:lcidtoname_downlevel.obj
 0002:000036b8       ??_C@_1M@PMPEAILG@?$AAa?$AAr?$AA?9?$AAI?$AAQ?$AA?$AA@ 00000001800356b8     libucrt:lcidtoname_downlevel.obj
 0002:000036c8       ??_C@_1M@CNKPNOEE@?$AAd?$AAe?$AA?9?$AAC?$AAH?$AA?$AA@ 00000001800356c8     libucrt:lcidtoname_downlevel.obj
 0002:000036d8       ??_C@_1M@LKMGMLKO@?$AAe?$AAn?$AA?9?$AAG?$AAB?$AA?$AA@ 00000001800356d8     libucrt:lcidtoname_downlevel.obj
 0002:000036e8       ??_C@_1M@PGKJFFGL@?$AAe?$AAs?$AA?9?$AAM?$AAX?$AA?$AA@ 00000001800356e8     libucrt:lcidtoname_downlevel.obj
 0002:000036f8       ??_C@_1M@DNNANBDC@?$AAf?$AAr?$AA?9?$AAB?$AAE?$AA?$AA@ 00000001800356f8     libucrt:lcidtoname_downlevel.obj
 0002:00003708       ??_C@_1M@HLGMDFHM@?$AAi?$AAt?$AA?9?$AAC?$AAH?$AA?$AA@ 0000000180035708     libucrt:lcidtoname_downlevel.obj
 0002:00003718       ??_C@_1M@CLLBGJH@?$AAn?$AAl?$AA?9?$AAB?$AAE?$AA?$AA@ 0000000180035718     libucrt:lcidtoname_downlevel.obj
 0002:00003728       ??_C@_1M@BODBOGLF@?$AAn?$AAn?$AA?9?$AAN?$AAO?$AA?$AA@ 0000000180035728     libucrt:lcidtoname_downlevel.obj
 0002:00003738       ??_C@_1M@HFFAHKAD@?$AAp?$AAt?$AA?9?$AAP?$AAT?$AA?$AA@ 0000000180035738     libucrt:lcidtoname_downlevel.obj
 0002:00003748       ??_C@_1BG@LNOAKHIE@?$AAs?$AAr?$AA?9?$AAS?$AAP?$AA?9?$AAL?$AAa?$AAt?$AAn?$AA?$AA@ 0000000180035748     libucrt:lcidtoname_downlevel.obj
 0002:00003760       ??_C@_1M@HBMHBGAK@?$AAs?$AAv?$AA?9?$AAF?$AAI?$AA?$AA@ 0000000180035760     libucrt:lcidtoname_downlevel.obj
 0002:00003770       ??_C@_1BG@DGCJGJBE@?$AAa?$AAz?$AA?9?$AAA?$AAZ?$AA?9?$AAC?$AAy?$AAr?$AAl?$AA?$AA@ 0000000180035770     libucrt:lcidtoname_downlevel.obj
 0002:00003788       ??_C@_1M@KEJDAAHB@?$AAs?$AAe?$AA?9?$AAS?$AAE?$AA?$AA@ 0000000180035788     libucrt:lcidtoname_downlevel.obj
 0002:00003798       ??_C@_1M@HEIBJJAD@?$AAm?$AAs?$AA?9?$AAB?$AAN?$AA?$AA@ 0000000180035798     libucrt:lcidtoname_downlevel.obj
 0002:000037a8       ??_C@_1BG@PBGJMCEM@?$AAu?$AAz?$AA?9?$AAU?$AAZ?$AA?9?$AAC?$AAy?$AAr?$AAl?$AA?$AA@ 00000001800357a8     libucrt:lcidtoname_downlevel.obj
 0002:000037c0       ??_C@_1O@LAOBCMDF@?$AAq?$AAu?$AAz?$AA?9?$AAE?$AAC?$AA?$AA@ 00000001800357c0     libucrt:lcidtoname_downlevel.obj
 0002:000037d0       ??_C@_1M@POEEMAIO@?$AAa?$AAr?$AA?9?$AAE?$AAG?$AA?$AA@ 00000001800357d0     libucrt:lcidtoname_downlevel.obj
 0002:000037e0       ??_C@_1M@EFAKDEDL@?$AAz?$AAh?$AA?9?$AAH?$AAK?$AA?$AA@ 00000001800357e0     libucrt:lcidtoname_downlevel.obj
 0002:000037f0       ??_C@_1M@HKKIJHGI@?$AAd?$AAe?$AA?9?$AAA?$AAT?$AA?$AA@ 00000001800357f0     libucrt:lcidtoname_downlevel.obj
 0002:00003800       ??_C@_1M@KBFBEHJF@?$AAe?$AAn?$AA?9?$AAA?$AAU?$AA?$AA@ 0000000180035800     libucrt:lcidtoname_downlevel.obj
 0002:00003810       ??_C@_1M@MNPLFAAH@?$AAe?$AAs?$AA?9?$AAE?$AAS?$AA?$AA@ 0000000180035810     libucrt:lcidtoname_downlevel.obj
 0002:00003820       ??_C@_1M@HJOOJFMA@?$AAf?$AAr?$AA?9?$AAC?$AAA?$AA?$AA@ 0000000180035820     libucrt:lcidtoname_downlevel.obj
 0002:00003830       ??_C@_1BG@JPOFPNAB@?$AAs?$AAr?$AA?9?$AAS?$AAP?$AA?9?$AAC?$AAy?$AAr?$AAl?$AA?$AA@ 0000000180035830     libucrt:lcidtoname_downlevel.obj
 0002:00003848       ??_C@_1M@LNFOCMOB@?$AAs?$AAe?$AA?9?$AAF?$AAI?$AA?$AA@ 0000000180035848     libucrt:lcidtoname_downlevel.obj
 0002:00003858       ??_C@_1O@MGJBOAMB@?$AAq?$AAu?$AAz?$AA?9?$AAP?$AAE?$AA?$AA@ 0000000180035858     libucrt:lcidtoname_downlevel.obj
 0002:00003868       ??_C@_1M@GJINLBOK@?$AAa?$AAr?$AA?9?$AAL?$AAY?$AA?$AA@ 0000000180035868     libucrt:lcidtoname_downlevel.obj
 0002:00003878       ??_C@_1M@GGMNHJNL@?$AAz?$AAh?$AA?9?$AAS?$AAG?$AA?$AA@ 0000000180035878     libucrt:lcidtoname_downlevel.obj
 0002:00003888       ??_C@_1M@HOIKODND@?$AAd?$AAe?$AA?9?$AAL?$AAU?$AA?$AA@ 0000000180035888     libucrt:lcidtoname_downlevel.obj
 0002:00003898       ??_C@_1M@DDOCCGFG@?$AAe?$AAn?$AA?9?$AAC?$AAA?$AA?$AA@ 0000000180035898     libucrt:lcidtoname_downlevel.obj
 0002:000038a8       ??_C@_1M@BNOEMJLF@?$AAe?$AAs?$AA?9?$AAG?$AAT?$AA?$AA@ 00000001800358a8     libucrt:lcidtoname_downlevel.obj
 0002:000038b8       ??_C@_1M@EOGNKEK@?$AAf?$AAr?$AA?9?$AAC?$AAH?$AA?$AA@ 00000001800358b8     libucrt:lcidtoname_downlevel.obj
 0002:000038c8       ??_C@_1M@FLIDJFHL@?$AAh?$AAr?$AA?9?$AAB?$AAA?$AA?$AA@ 00000001800358c8     libucrt:lcidtoname_downlevel.obj
 0002:000038d8       ??_C@_1O@FMCELNAJ@?$AAs?$AAm?$AAj?$AA?9?$AAN?$AAO?$AA?$AA@ 00000001800358d8     libucrt:lcidtoname_downlevel.obj
 0002:000038e8       ??_C@_1M@JHGLJMGJ@?$AAa?$AAr?$AA?9?$AAD?$AAZ?$AA?$AA@ 00000001800358e8     libucrt:lcidtoname_downlevel.obj
 0002:000038f8       ??_C@_1M@JKKFDCNP@?$AAz?$AAh?$AA?9?$AAM?$AAO?$AA?$AA@ 00000001800358f8     libucrt:lcidtoname_downlevel.obj
 0002:00003908       ??_C@_1M@GEEFALPE@?$AAd?$AAe?$AA?9?$AAL?$AAI?$AA?$AA@ 0000000180035908     libucrt:lcidtoname_downlevel.obj
 0002:00003918       ??_C@_1M@IGEOFBG@?$AAe?$AAn?$AA?9?$AAN?$AAZ?$AA?$AA@ 0000000180035918     libucrt:lcidtoname_downlevel.obj
 0002:00003928       ??_C@_1M@KDBONEHP@?$AAe?$AAs?$AA?9?$AAC?$AAR?$AA?$AA@ 0000000180035928     libucrt:lcidtoname_downlevel.obj
 0002:00003938       ??_C@_1M@FHMDOHNN@?$AAf?$AAr?$AA?9?$AAL?$AAU?$AA?$AA@ 0000000180035938     libucrt:lcidtoname_downlevel.obj
 0002:00003948       ??_C@_1BG@NFKKMAFG@?$AAb?$AAs?$AA?9?$AAB?$AAA?$AA?9?$AAL?$AAa?$AAt?$AAn?$AA?$AA@ 0000000180035948     libucrt:lcidtoname_downlevel.obj
 0002:00003960       ??_C@_1O@IMNBEMCI@?$AAs?$AAm?$AAj?$AA?9?$AAS?$AAE?$AA?$AA@ 0000000180035960     libucrt:lcidtoname_downlevel.obj
 0002:00003970       ??_C@_1M@DHHMBNDP@?$AAa?$AAr?$AA?9?$AAM?$AAA?$AA?$AA@ 0000000180035970     libucrt:lcidtoname_downlevel.obj
 0002:00003980       ??_C@_1M@BNBLJCGH@?$AAe?$AAn?$AA?9?$AAI?$AAE?$AA?$AA@ 0000000180035980     libucrt:lcidtoname_downlevel.obj
 0002:00003990       ??_C@_1M@GEPAFMDL@?$AAe?$AAs?$AA?9?$AAP?$AAA?$AA?$AA@ 0000000180035990     libucrt:lcidtoname_downlevel.obj
 0002:000039a0       ??_C@_1M@OJONDMDL@?$AAf?$AAr?$AA?9?$AAM?$AAC?$AA?$AA@ 00000001800359a0     libucrt:lcidtoname_downlevel.obj
 0002:000039b0       ??_C@_1BG@OBCNFJB@?$AAs?$AAr?$AA?9?$AAB?$AAA?$AA?9?$AAL?$AAa?$AAt?$AAn?$AA?$AA@ 00000001800359b0     libucrt:lcidtoname_downlevel.obj
 0002:000039c8       ??_C@_1O@KEMEEGPO@?$AAs?$AAm?$AAa?$AA?9?$AAN?$AAO?$AA?$AA@ 00000001800359c8     libucrt:lcidtoname_downlevel.obj
 0002:000039d8       ??_C@_1M@ELMGFODK@?$AAa?$AAr?$AA?9?$AAT?$AAN?$AA?$AA@ 00000001800359d8     libucrt:lcidtoname_downlevel.obj
 0002:000039e8       ??_C@_1M@BHDLHFAF@?$AAe?$AAn?$AA?9?$AAZ?$AAA?$AA?$AA@ 00000001800359e8     libucrt:lcidtoname_downlevel.obj
 0002:000039f8       ??_C@_1M@BMGIGLIF@?$AAe?$AAs?$AA?9?$AAD?$AAO?$AA?$AA@ 00000001800359f8     libucrt:lcidtoname_downlevel.obj
 0002:00003a08       ??_C@_1BG@CMBHIPBE@?$AAs?$AAr?$AA?9?$AAB?$AAA?$AA?9?$AAC?$AAy?$AAr?$AAl?$AA?$AA@ 0000000180035a08     libucrt:lcidtoname_downlevel.obj
 0002:00003a20       ??_C@_1O@HEDBLHNP@?$AAs?$AAm?$AAa?$AA?9?$AAS?$AAE?$AA?$AA@ 0000000180035a20     libucrt:lcidtoname_downlevel.obj
 0002:00003a30       ??_C@_1M@DAGCADIM@?$AAa?$AAr?$AA?9?$AAO?$AAM?$AA?$AA@ 0000000180035a30     libucrt:lcidtoname_downlevel.obj
 0002:00003a40       ??_C@_1M@FODLMICG@?$AAe?$AAn?$AA?9?$AAJ?$AAM?$AA?$AA@ 0000000180035a40     libucrt:lcidtoname_downlevel.obj
 0002:00003a50       ??_C@_1M@DNMLCIHB@?$AAe?$AAs?$AA?9?$AAV?$AAE?$AA?$AA@ 0000000180035a50     libucrt:lcidtoname_downlevel.obj
 0002:00003a60       ??_C@_1O@EOKHMKJK@?$AAs?$AAm?$AAs?$AA?9?$AAF?$AAI?$AA?$AA@ 0000000180035a60     libucrt:lcidtoname_downlevel.obj
 0002:00003a70       ??_C@_1M@CAFJMKOF@?$AAa?$AAr?$AA?9?$AAY?$AAE?$AA?$AA@ 0000000180035a70     libucrt:lcidtoname_downlevel.obj
 0002:00003a80       ??_C@_1M@CBFHIJLI@?$AAe?$AAn?$AA?9?$AAC?$AAB?$AA?$AA@ 0000000180035a80     libucrt:lcidtoname_downlevel.obj
 0002:00003a90       ??_C@_1M@BGNFLDN@?$AAe?$AAs?$AA?9?$AAC?$AAO?$AA?$AA@ 0000000180035a90     libucrt:lcidtoname_downlevel.obj
 0002:00003aa0       ??_C@_1O@JMPHMAMC@?$AAs?$AAm?$AAn?$AA?9?$AAF?$AAI?$AA?$AA@ 0000000180035aa0     libucrt:lcidtoname_downlevel.obj
 0002:00003ab0       ??_C@_1M@JLANABKE@?$AAa?$AAr?$AA?9?$AAS?$AAY?$AA?$AA@ 0000000180035ab0     libucrt:lcidtoname_downlevel.obj
 0002:00003ac0       ??_C@_1M@HPKGCFGN@?$AAe?$AAn?$AA?9?$AAB?$AAZ?$AA?$AA@ 0000000180035ac0     libucrt:lcidtoname_downlevel.obj
 0002:00003ad0       ??_C@_1M@OLJCMLGM@?$AAe?$AAs?$AA?9?$AAP?$AAE?$AA?$AA@ 0000000180035ad0     libucrt:lcidtoname_downlevel.obj
 0002:00003ae0       ??_C@_1M@MKKGFKLE@?$AAa?$AAr?$AA?9?$AAJ?$AAO?$AA?$AA@ 0000000180035ae0     libucrt:lcidtoname_downlevel.obj
 0002:00003af0       ??_C@_1M@EKPGLDNI@?$AAe?$AAn?$AA?9?$AAT?$AAT?$AA?$AA@ 0000000180035af0     libucrt:lcidtoname_downlevel.obj
 0002:00003b00       ??_C@_1M@OONGHFHE@?$AAe?$AAs?$AA?9?$AAA?$AAR?$AA?$AA@ 0000000180035b00     libucrt:lcidtoname_downlevel.obj
 0002:00003b10       ??_C@_1M@OOJFGBHE@?$AAa?$AAr?$AA?9?$AAL?$AAB?$AA?$AA@ 0000000180035b10     libucrt:lcidtoname_downlevel.obj
 0002:00003b20       ??_C@_1M@GCEJHNEG@?$AAe?$AAn?$AA?9?$AAZ?$AAW?$AA?$AA@ 0000000180035b20     libucrt:lcidtoname_downlevel.obj
 0002:00003b30       ??_C@_1M@JNOCAHJI@?$AAe?$AAs?$AA?9?$AAE?$AAC?$AA?$AA@ 0000000180035b30     libucrt:lcidtoname_downlevel.obj
 0002:00003b40       ??_C@_1M@JEFHPGGB@?$AAa?$AAr?$AA?9?$AAK?$AAW?$AA?$AA@ 0000000180035b40     libucrt:lcidtoname_downlevel.obj
 0002:00003b50       ??_C@_1M@MLKIBJOJ@?$AAe?$AAn?$AA?9?$AAP?$AAH?$AA?$AA@ 0000000180035b50     libucrt:lcidtoname_downlevel.obj
 0002:00003b60       ??_C@_1M@BDNIPEND@?$AAe?$AAs?$AA?9?$AAC?$AAL?$AA?$AA@ 0000000180035b60     libucrt:lcidtoname_downlevel.obj
 0002:00003b70       ??_C@_1M@MPNMEKBD@?$AAa?$AAr?$AA?9?$AAA?$AAE?$AA?$AA@ 0000000180035b70     libucrt:lcidtoname_downlevel.obj
 0002:00003b80       ??_C@_1M@KBJALCPI@?$AAe?$AAs?$AA?9?$AAU?$AAY?$AA?$AA@ 0000000180035b80     libucrt:lcidtoname_downlevel.obj
 0002:00003b90       ??_C@_1M@LLCCOAGA@?$AAa?$AAr?$AA?9?$AAB?$AAH?$AA?$AA@ 0000000180035b90     libucrt:lcidtoname_downlevel.obj
 0002:00003ba0       ??_C@_1M@PBFNCDEL@?$AAe?$AAs?$AA?9?$AAP?$AAY?$AA?$AA@ 0000000180035ba0     libucrt:lcidtoname_downlevel.obj
 0002:00003bb0       ??_C@_1M@EDGINPNP@?$AAa?$AAr?$AA?9?$AAQ?$AAA?$AA?$AA@ 0000000180035bb0     libucrt:lcidtoname_downlevel.obj
 0002:00003bc0       ??_C@_1M@MKDBIIJI@?$AAe?$AAs?$AA?9?$AAB?$AAO?$AA?$AA@ 0000000180035bc0     libucrt:lcidtoname_downlevel.obj
 0002:00003bd0       ??_C@_1M@CPKKEBLD@?$AAe?$AAs?$AA?9?$AAS?$AAV?$AA?$AA@ 0000000180035bd0     libucrt:lcidtoname_downlevel.obj
 0002:00003be0       ??_C@_1M@NDBGMMJL@?$AAe?$AAs?$AA?9?$AAH?$AAN?$AA?$AA@ 0000000180035be0     libucrt:lcidtoname_downlevel.obj
 0002:00003bf0       ??_C@_1M@JIJIBHDP@?$AAe?$AAs?$AA?9?$AAN?$AAI?$AA?$AA@ 0000000180035bf0     libucrt:lcidtoname_downlevel.obj
 0002:00003c00       ??_C@_1M@CGFMKEEK@?$AAe?$AAs?$AA?9?$AAP?$AAR?$AA?$AA@ 0000000180035c00     libucrt:lcidtoname_downlevel.obj
 0002:00003c10       ??_C@_1O@ICJHKIIK@?$AAz?$AAh?$AA?9?$AAC?$AAH?$AAT?$AA?$AA@ 0000000180035c10     libucrt:lcidtoname_downlevel.obj
 0002:00003c20       ??_C@_15CLNEJCE@?$AAs?$AAr?$AA?$AA@ 0000000180035c20     libucrt:lcidtoname_downlevel.obj
 0002:00004a70       ??_C@_1M@KAHEKEIG@?$AAa?$AAf?$AA?9?$AAz?$AAa?$AA?$AA@ 0000000180036a70     libucrt:lcidtoname_downlevel.obj
 0002:00004a80       ??_C@_1M@GIECOABL@?$AAa?$AAr?$AA?9?$AAa?$AAe?$AA?$AA@ 0000000180036a80     libucrt:lcidtoname_downlevel.obj
 0002:00004a90       ??_C@_1M@BMLMEKGI@?$AAa?$AAr?$AA?9?$AAb?$AAh?$AA?$AA@ 0000000180036a90     libucrt:lcidtoname_downlevel.obj
 0002:00004aa0       ??_C@_1M@DAPFDGGB@?$AAa?$AAr?$AA?9?$AAd?$AAz?$AA?$AA@ 0000000180036aa0     libucrt:lcidtoname_downlevel.obj
 0002:00004ab0       ??_C@_1M@FJNKGKIG@?$AAa?$AAr?$AA?9?$AAe?$AAg?$AA?$AA@ 0000000180036ab0     libucrt:lcidtoname_downlevel.obj
 0002:00004ac0       ??_C@_1M@FLGKKCLO@?$AAa?$AAr?$AA?9?$AAi?$AAq?$AA?$AA@ 0000000180036ac0     libucrt:lcidtoname_downlevel.obj
 0002:00004ad0       ??_C@_1M@GNDIPALM@?$AAa?$AAr?$AA?9?$AAj?$AAo?$AA?$AA@ 0000000180036ad0     libucrt:lcidtoname_downlevel.obj
 0002:00004ae0       ??_C@_1M@DDMJFMGJ@?$AAa?$AAr?$AA?9?$AAk?$AAw?$AA?$AA@ 0000000180036ae0     libucrt:lcidtoname_downlevel.obj
 0002:00004af0       ??_C@_1M@EJALMLHM@?$AAa?$AAr?$AA?9?$AAl?$AAb?$AA?$AA@ 0000000180036af0     libucrt:lcidtoname_downlevel.obj
 0002:00004b00       ??_C@_1M@MOBDBLOC@?$AAa?$AAr?$AA?9?$AAl?$AAy?$AA?$AA@ 0000000180036b00     libucrt:lcidtoname_downlevel.obj
 0002:00004b10       ??_C@_1M@JAOCLHDH@?$AAa?$AAr?$AA?9?$AAm?$AAa?$AA?$AA@ 0000000180036b10     libucrt:lcidtoname_downlevel.obj
 0002:00004b20       ??_C@_1M@JHPMKJIE@?$AAa?$AAr?$AA?9?$AAo?$AAm?$AA?$AA@ 0000000180036b20     libucrt:lcidtoname_downlevel.obj
 0002:00004b30       ??_C@_1M@OEPGHFNH@?$AAa?$AAr?$AA?9?$AAq?$AAa?$AA?$AA@ 0000000180036b30     libucrt:lcidtoname_downlevel.obj
 0002:00004b40       ??_C@_1M@KJDONENM@?$AAa?$AAr?$AA?9?$AAs?$AAa?$AA?$AA@ 0000000180036b40     libucrt:lcidtoname_downlevel.obj
 0002:00004b50       ??_C@_1M@DMJDKLKM@?$AAa?$AAr?$AA?9?$AAs?$AAy?$AA?$AA@ 0000000180036b50     libucrt:lcidtoname_downlevel.obj
 0002:00004b60       ??_C@_1M@OMFIPEDC@?$AAa?$AAr?$AA?9?$AAt?$AAn?$AA?$AA@ 0000000180036b60     libucrt:lcidtoname_downlevel.obj
 0002:00004b70       ??_C@_1M@IHMHGAON@?$AAa?$AAr?$AA?9?$AAy?$AAe?$AA?$AA@ 0000000180036b70     libucrt:lcidtoname_downlevel.obj
 0002:00004b80       ??_C@_1BG@KDCPGJGB@?$AAa?$AAz?$AA?9?$AAa?$AAz?$AA?9?$AAc?$AAy?$AAr?$AAl?$AA?$AA@ 0000000180036b80     libucrt:lcidtoname_downlevel.obj
 0002:00004b98       ??_C@_1BG@IBCKDDOE@?$AAa?$AAz?$AA?9?$AAa?$AAz?$AA?9?$AAl?$AAa?$AAt?$AAn?$AA?$AA@ 0000000180036b98     libucrt:lcidtoname_downlevel.obj
 0002:00004bb0       ??_C@_1M@EGPFDCPD@?$AAb?$AAe?$AA?9?$AAb?$AAy?$AA?$AA@ 0000000180036bb0     libucrt:lcidtoname_downlevel.obj
 0002:00004bc0       ??_C@_1M@PCMGMCGC@?$AAb?$AAg?$AA?9?$AAb?$AAg?$AA?$AA@ 0000000180036bc0     libucrt:lcidtoname_downlevel.obj
 0002:00004bd0       ??_C@_1M@BJBMFGOB@?$AAb?$AAn?$AA?9?$AAi?$AAn?$AA?$AA@ 0000000180036bd0     libucrt:lcidtoname_downlevel.obj
 0002:00004be0       ??_C@_1BG@EAKMMACD@?$AAb?$AAs?$AA?9?$AAb?$AAa?$AA?9?$AAl?$AAa?$AAt?$AAn?$AA?$AA@ 0000000180036be0     libucrt:lcidtoname_downlevel.obj
 0002:00004bf8       ??_C@_1M@KGADAODK@?$AAc?$AAa?$AA?9?$AAe?$AAs?$AA?$AA@ 0000000180036bf8     libucrt:lcidtoname_downlevel.obj
 0002:00004c08       ??_C@_1M@COAJPDHI@?$AAc?$AAs?$AA?9?$AAc?$AAz?$AA?$AA@ 0000000180036c08     libucrt:lcidtoname_downlevel.obj
 0002:00004c18       ??_C@_1M@DHBHFONH@?$AAc?$AAy?$AA?9?$AAg?$AAb?$AA?$AA@ 0000000180036c18     libucrt:lcidtoname_downlevel.obj
 0002:00004c28       ??_C@_1M@IMGKELGA@?$AAd?$AAa?$AA?9?$AAd?$AAk?$AA?$AA@ 0000000180036c28     libucrt:lcidtoname_downlevel.obj
 0002:00004c38       ??_C@_1M@NNDGDNGA@?$AAd?$AAe?$AA?9?$AAa?$AAt?$AA?$AA@ 0000000180036c38     libucrt:lcidtoname_downlevel.obj
 0002:00004c48       ??_C@_1M@IKDBHEEM@?$AAd?$AAe?$AA?9?$AAc?$AAh?$AA?$AA@ 0000000180036c48     libucrt:lcidtoname_downlevel.obj
 0002:00004c58       ??_C@_1M@GFFOJMCJ@?$AAd?$AAe?$AA?9?$AAd?$AAe?$AA?$AA@ 0000000180036c58     libucrt:lcidtoname_downlevel.obj
 0002:00004c68       ??_C@_1M@MDNLKBPM@?$AAd?$AAe?$AA?9?$AAl?$AAi?$AA?$AA@ 0000000180036c68     libucrt:lcidtoname_downlevel.obj
 0002:00004c78       ??_C@_1M@NJBEEJNL@?$AAd?$AAe?$AA?9?$AAl?$AAu?$AA?$AA@ 0000000180036c78     libucrt:lcidtoname_downlevel.obj
 0002:00004c88       ??_C@_1O@GNNELBAP@?$AAd?$AAi?$AAv?$AA?9?$AAm?$AAv?$AA?$AA@ 0000000180036c88     libucrt:lcidtoname_downlevel.obj
 0002:00004c98       ??_C@_1M@EJLEOGAE@?$AAe?$AAl?$AA?9?$AAg?$AAr?$AA?$AA@ 0000000180036c98     libucrt:lcidtoname_downlevel.obj
 0002:00004ca8       ??_C@_1M@GMPONJN@?$AAe?$AAn?$AA?9?$AAa?$AAu?$AA?$AA@ 0000000180036ca8     libucrt:lcidtoname_downlevel.obj
 0002:00004cb8       ??_C@_1M@NIDIIPGF@?$AAe?$AAn?$AA?9?$AAb?$AAz?$AA?$AA@ 0000000180036cb8     libucrt:lcidtoname_downlevel.obj
 0002:00004cc8       ??_C@_1M@JEHMIMFO@?$AAe?$AAn?$AA?9?$AAc?$AAa?$AA?$AA@ 0000000180036cc8     libucrt:lcidtoname_downlevel.obj
 0002:00004cd8       ??_C@_1M@IGMJCDLA@?$AAe?$AAn?$AA?9?$AAc?$AAb?$AA?$AA@ 0000000180036cd8     libucrt:lcidtoname_downlevel.obj
 0002:00004ce8       ??_C@_1M@BNFIGBKG@?$AAe?$AAn?$AA?9?$AAg?$AAb?$AA?$AA@ 0000000180036ce8     libucrt:lcidtoname_downlevel.obj
 0002:00004cf8       ??_C@_1M@LKIFDIGP@?$AAe?$AAn?$AA?9?$AAi?$AAe?$AA?$AA@ 0000000180036cf8     libucrt:lcidtoname_downlevel.obj
 0002:00004d08       ??_C@_1M@PJKFGCCO@?$AAe?$AAn?$AA?9?$AAj?$AAm?$AA?$AA@ 0000000180036d08     libucrt:lcidtoname_downlevel.obj
 0002:00004d18       ??_C@_1M@KPPKEPBO@?$AAe?$AAn?$AA?9?$AAn?$AAz?$AA?$AA@ 0000000180036d18     libucrt:lcidtoname_downlevel.obj
 0002:00004d28       ??_C@_1M@GMDGLDOB@?$AAe?$AAn?$AA?9?$AAp?$AAh?$AA?$AA@ 0000000180036d28     libucrt:lcidtoname_downlevel.obj
 0002:00004d38       ??_C@_1M@ONGIBJNA@?$AAe?$AAn?$AA?9?$AAt?$AAt?$AA?$AA@ 0000000180036d38     libucrt:lcidtoname_downlevel.obj
 0002:00004d48       ??_C@_1M@LLODPCMM@?$AAe?$AAn?$AA?9?$AAu?$AAs?$AA?$AA@ 0000000180036d48     libucrt:lcidtoname_downlevel.obj
 0002:00004d58       ??_C@_1M@LAKFNPAN@?$AAe?$AAn?$AA?9?$AAz?$AAa?$AA?$AA@ 0000000180036d58     libucrt:lcidtoname_downlevel.obj
 0002:00004d68       ??_C@_1M@MFNHNHEO@?$AAe?$AAn?$AA?9?$AAz?$AAw?$AA?$AA@ 0000000180036d68     libucrt:lcidtoname_downlevel.obj
 0002:00004d78       ??_C@_1M@EJEINPHM@?$AAe?$AAs?$AA?9?$AAa?$AAr?$AA?$AA@ 0000000180036d78     libucrt:lcidtoname_downlevel.obj
 0002:00004d88       ??_C@_1M@GNKPCCJA@?$AAe?$AAs?$AA?9?$AAb?$AAo?$AA?$AA@ 0000000180036d88     libucrt:lcidtoname_downlevel.obj
 0002:00004d98       ??_C@_1M@LEEGFONL@?$AAe?$AAs?$AA?9?$AAc?$AAl?$AA?$AA@ 0000000180036d98     libucrt:lcidtoname_downlevel.obj
 0002:00004da8       ??_C@_1M@KGPDPBDF@?$AAe?$AAs?$AA?9?$AAc?$AAo?$AA?$AA@ 0000000180036da8     libucrt:lcidtoname_downlevel.obj
 0002:00004db8       ??_C@_1M@EIAHOHH@?$AAe?$AAs?$AA?9?$AAc?$AAr?$AA?$AA@ 0000000180036db8     libucrt:lcidtoname_downlevel.obj
 0002:00004dc8       ??_C@_1M@LLPGMBIN@?$AAe?$AAs?$AA?9?$AAd?$AAo?$AA?$AA@ 0000000180036dc8     libucrt:lcidtoname_downlevel.obj
 0002:00004dd8       ??_C@_1M@DKHMKNJA@?$AAe?$AAs?$AA?9?$AAe?$AAc?$AA?$AA@ 0000000180036dd8     libucrt:lcidtoname_downlevel.obj
 0002:00004de8       ??_C@_1M@GKGFPKAP@?$AAe?$AAs?$AA?9?$AAe?$AAs?$AA?$AA@ 0000000180036de8     libucrt:lcidtoname_downlevel.obj
 0002:00004df8       ??_C@_1M@LKHKGDLN@?$AAe?$AAs?$AA?9?$AAg?$AAt?$AA?$AA@ 0000000180036df8     libucrt:lcidtoname_downlevel.obj
 0002:00004e08       ??_C@_1M@HEIIGGJD@?$AAe?$AAs?$AA?9?$AAh?$AAn?$AA?$AA@ 0000000180036e08     libucrt:lcidtoname_downlevel.obj
 0002:00004e18       ??_C@_1M@FBDHPPGD@?$AAe?$AAs?$AA?9?$AAm?$AAx?$AA?$AA@ 0000000180036e18     libucrt:lcidtoname_downlevel.obj
 0002:00004e28       ??_C@_1M@DPAGLNDH@?$AAe?$AAs?$AA?9?$AAn?$AAi?$AA?$AA@ 0000000180036e28     libucrt:lcidtoname_downlevel.obj
 0002:00004e38       ??_C@_1M@MDGOPGDD@?$AAe?$AAs?$AA?9?$AAp?$AAa?$AA?$AA@ 0000000180036e38     libucrt:lcidtoname_downlevel.obj
 0002:00004e48       ??_C@_1M@EMAMGBGE@?$AAe?$AAs?$AA?9?$AAp?$AAe?$AA?$AA@ 0000000180036e48     libucrt:lcidtoname_downlevel.obj
 0002:00004e58       ??_C@_1M@IBMCAOEC@?$AAe?$AAs?$AA?9?$AAp?$AAr?$AA?$AA@ 0000000180036e58     libucrt:lcidtoname_downlevel.obj
 0002:00004e68       ??_C@_1M@FGMDIJED@?$AAe?$AAs?$AA?9?$AAp?$AAy?$AA?$AA@ 0000000180036e68     libucrt:lcidtoname_downlevel.obj
 0002:00004e78       ??_C@_1M@IIDEOLLL@?$AAe?$AAs?$AA?9?$AAs?$AAv?$AA?$AA@ 0000000180036e78     libucrt:lcidtoname_downlevel.obj
 0002:00004e88       ??_C@_1M@GAOBIPA@?$AAe?$AAs?$AA?9?$AAu?$AAy?$AA?$AA@ 0000000180036e88     libucrt:lcidtoname_downlevel.obj
 0002:00004e98       ??_C@_1M@JKFFICHJ@?$AAe?$AAs?$AA?9?$AAv?$AAe?$AA?$AA@ 0000000180036e98     libucrt:lcidtoname_downlevel.obj
 0002:00004ea8       ??_C@_1M@PNMLOJDF@?$AAe?$AAt?$AA?9?$AAe?$AAe?$AA?$AA@ 0000000180036ea8     libucrt:lcidtoname_downlevel.obj
 0002:00004eb8       ??_C@_1M@GHHLIKEI@?$AAe?$AAu?$AA?9?$AAe?$AAs?$AA?$AA@ 0000000180036eb8     libucrt:lcidtoname_downlevel.obj
 0002:00004ec8       ??_C@_1M@PBNONODE@?$AAf?$AAa?$AA?9?$AAi?$AAr?$AA?$AA@ 0000000180036ec8     libucrt:lcidtoname_downlevel.obj
 0002:00004ed8       ??_C@_1M@JEEHPMIL@?$AAf?$AAi?$AA?9?$AAf?$AAi?$AA?$AA@ 0000000180036ed8     libucrt:lcidtoname_downlevel.obj
 0002:00004ee8       ??_C@_1M@LMDCNDBA@?$AAf?$AAo?$AA?9?$AAf?$AAo?$AA?$AA@ 0000000180036ee8     libucrt:lcidtoname_downlevel.obj
 0002:00004ef8       ??_C@_1M@JKEOHLDK@?$AAf?$AAr?$AA?9?$AAb?$AAe?$AA?$AA@ 0000000180036ef8     libucrt:lcidtoname_downlevel.obj
 0002:00004f08       ??_C@_1M@NOHADPMI@?$AAf?$AAr?$AA?9?$AAc?$AAa?$AA?$AA@ 0000000180036f08     libucrt:lcidtoname_downlevel.obj
 0002:00004f18       ??_C@_1M@KDHIHAEC@?$AAf?$AAr?$AA?9?$AAc?$AAh?$AA?$AA@ 0000000180036f18     libucrt:lcidtoname_downlevel.obj
 0002:00004f28       ??_C@_1M@MMBBFGAK@?$AAf?$AAr?$AA?9?$AAf?$AAr?$AA?$AA@ 0000000180036f28     libucrt:lcidtoname_downlevel.obj
 0002:00004f38       ??_C@_1M@PAFNENNF@?$AAf?$AAr?$AA?9?$AAl?$AAu?$AA?$AA@ 0000000180036f38     libucrt:lcidtoname_downlevel.obj
 0002:00004f48       ??_C@_1M@EOHDJGDD@?$AAf?$AAr?$AA?9?$AAm?$AAc?$AA?$AA@ 0000000180036f48     libucrt:lcidtoname_downlevel.obj
 0002:00004f58       ??_C@_1M@FAPLLOPF@?$AAg?$AAl?$AA?9?$AAe?$AAs?$AA?$AA@ 0000000180036f58     libucrt:lcidtoname_downlevel.obj
 0002:00004f68       ??_C@_1M@FOPBFLOO@?$AAg?$AAu?$AA?9?$AAi?$AAn?$AA?$AA@ 0000000180036f68     libucrt:lcidtoname_downlevel.obj
 0002:00004f78       ??_C@_1M@KBMCINPM@?$AAh?$AAe?$AA?9?$AAi?$AAl?$AA?$AA@ 0000000180036f78     libucrt:lcidtoname_downlevel.obj
 0002:00004f88       ??_C@_1M@BBPHKFPJ@?$AAh?$AAi?$AA?9?$AAi?$AAn?$AA?$AA@ 0000000180036f88     libucrt:lcidtoname_downlevel.obj
 0002:00004f98       ??_C@_1M@PMBNDPHD@?$AAh?$AAr?$AA?9?$AAb?$AAa?$AA?$AA@ 0000000180036f98     libucrt:lcidtoname_downlevel.obj
 0002:00004fa8       ??_C@_1M@BPCKOEGE@?$AAh?$AAr?$AA?9?$AAh?$AAr?$AA?$AA@ 0000000180036fa8     libucrt:lcidtoname_downlevel.obj
 0002:00004fb8       ??_C@_1M@GACBMHKE@?$AAh?$AAu?$AA?9?$AAh?$AAu?$AA?$AA@ 0000000180036fb8     libucrt:lcidtoname_downlevel.obj
 0002:00004fc8       ??_C@_1M@MILPAJJC@?$AAh?$AAy?$AA?9?$AAa?$AAm?$AA?$AA@ 0000000180036fc8     libucrt:lcidtoname_downlevel.obj
 0002:00004fd8       ??_C@_1M@BABBICEC@?$AAi?$AAd?$AA?9?$AAi?$AAd?$AA?$AA@ 0000000180036fd8     libucrt:lcidtoname_downlevel.obj
 0002:00004fe8       ??_C@_1M@BIKNHHPF@?$AAi?$AAs?$AA?9?$AAi?$AAs?$AA?$AA@ 0000000180036fe8     libucrt:lcidtoname_downlevel.obj
 0002:00004ff8       ??_C@_1M@NMPCJPHE@?$AAi?$AAt?$AA?9?$AAc?$AAh?$AA?$AA@ 0000000180036ff8     libucrt:lcidtoname_downlevel.obj
 0002:00005008       ??_C@_1M@GHKGFEDF@?$AAi?$AAt?$AA?9?$AAi?$AAt?$AA?$AA@ 0000000180037008     libucrt:lcidtoname_downlevel.obj
 0002:00005018       ??_C@_1M@NIEJCJJA@?$AAj?$AAa?$AA?9?$AAj?$AAp?$AA?$AA@ 0000000180037018     libucrt:lcidtoname_downlevel.obj
 0002:00005028       ??_C@_1M@JILFNBIM@?$AAk?$AAa?$AA?9?$AAg?$AAe?$AA?$AA@ 0000000180037028     libucrt:lcidtoname_downlevel.obj
 0002:00005038       ??_C@_1M@PACPMGPH@?$AAk?$AAk?$AA?9?$AAk?$AAz?$AA?$AA@ 0000000180037038     libucrt:lcidtoname_downlevel.obj
 0002:00005048       ??_C@_1M@IELFGMHA@?$AAk?$AAn?$AA?9?$AAi?$AAn?$AA?$AA@ 0000000180037048     libucrt:lcidtoname_downlevel.obj
 0002:00005058       ??_C@_1O@IBBJHCH@?$AAk?$AAo?$AAk?$AA?9?$AAi?$AAn?$AA?$AA@ 0000000180037058     libucrt:lcidtoname_downlevel.obj
 0002:00005068       ??_C@_1M@DMHAEOGC@?$AAk?$AAo?$AA?9?$AAk?$AAr?$AA?$AA@ 0000000180037068     libucrt:lcidtoname_downlevel.obj
 0002:00005078       ??_C@_1M@HBAHBIGA@?$AAk?$AAy?$AA?9?$AAk?$AAg?$AA?$AA@ 0000000180037078     libucrt:lcidtoname_downlevel.obj
 0002:00005088       ??_C@_1M@KPMILCJG@?$AAl?$AAt?$AA?9?$AAl?$AAt?$AA?$AA@ 0000000180037088     libucrt:lcidtoname_downlevel.obj
 0002:00005098       ??_C@_1M@BDEKKCA@?$AAl?$AAv?$AA?9?$AAl?$AAv?$AA?$AA@ 0000000180037098     libucrt:lcidtoname_downlevel.obj
 0002:000050a8       ??_C@_1M@ELCKCCJJ@?$AAm?$AAi?$AA?9?$AAn?$AAz?$AA?$AA@ 00000001800370a8     libucrt:lcidtoname_downlevel.obj
 0002:000050b8       ??_C@_1M@CBOOLAPA@?$AAm?$AAk?$AA?9?$AAm?$AAk?$AA?$AA@ 00000001800370b8     libucrt:lcidtoname_downlevel.obj
 0002:000050c8       ??_C@_1M@GPHNBJKN@?$AAm?$AAl?$AA?9?$AAi?$AAn?$AA?$AA@ 00000001800370c8     libucrt:lcidtoname_downlevel.obj
 0002:000050d8       ??_C@_1M@PABJILIG@?$AAm?$AAn?$AA?9?$AAm?$AAn?$AA?$AA@ 00000001800370d8     libucrt:lcidtoname_downlevel.obj
 0002:000050e8       ??_C@_1M@FGBKKIPG@?$AAm?$AAr?$AA?9?$AAi?$AAn?$AA?$AA@ 00000001800370e8     libucrt:lcidtoname_downlevel.obj
 0002:000050f8       ??_C@_1M@NDBPDDAL@?$AAm?$AAs?$AA?9?$AAb?$AAn?$AA?$AA@ 00000001800370f8     libucrt:lcidtoname_downlevel.obj
 0002:00005108       ??_C@_1M@OPIHOOPI@?$AAm?$AAs?$AA?9?$AAm?$AAy?$AA?$AA@ 0000000180037108     libucrt:lcidtoname_downlevel.obj
 0002:00005118       ??_C@_1M@PPDBCNFM@?$AAm?$AAt?$AA?9?$AAm?$AAt?$AA?$AA@ 0000000180037118     libucrt:lcidtoname_downlevel.obj
 0002:00005128       ??_C@_1M@KDJDKMDD@?$AAn?$AAb?$AA?9?$AAn?$AAo?$AA?$AA@ 0000000180037128     libucrt:lcidtoname_downlevel.obj
 0002:00005138       ??_C@_1M@KFCFLMJP@?$AAn?$AAl?$AA?9?$AAb?$AAe?$AA?$AA@ 0000000180037138     libucrt:lcidtoname_downlevel.obj
 0002:00005148       ??_C@_1M@KPOPDDGO@?$AAn?$AAl?$AA?9?$AAn?$AAl?$AA?$AA@ 0000000180037148     libucrt:lcidtoname_downlevel.obj
 0002:00005158       ??_C@_1M@LJKPEMLN@?$AAn?$AAn?$AA?9?$AAn?$AAo?$AA?$AA@ 0000000180037158     libucrt:lcidtoname_downlevel.obj
 0002:00005168       ??_C@_1M@BDGHHBFL@?$AAn?$AAs?$AA?9?$AAz?$AAa?$AA?$AA@ 0000000180037168     libucrt:lcidtoname_downlevel.obj
 0002:00005178       ??_C@_1M@IDEHOAP@?$AAp?$AAa?$AA?9?$AAi?$AAn?$AA?$AA@ 0000000180037178     libucrt:lcidtoname_downlevel.obj
 0002:00005188       ??_C@_1M@HDBKGOGH@?$AAp?$AAl?$AA?9?$AAp?$AAl?$AA?$AA@ 0000000180037188     libucrt:lcidtoname_downlevel.obj
 0002:00005198       ??_C@_1M@LJLLCMEH@?$AAp?$AAt?$AA?9?$AAb?$AAr?$AA?$AA@ 0000000180037198     libucrt:lcidtoname_downlevel.obj
 0002:000051a8       ??_C@_1M@NCMONAAL@?$AAp?$AAt?$AA?9?$AAp?$AAt?$AA?$AA@ 00000001800371a8     libucrt:lcidtoname_downlevel.obj
 0002:000051b8       ??_C@_1O@EAKMAJDN@?$AAq?$AAu?$AAz?$AA?9?$AAb?$AAo?$AA?$AA@ 00000001800371b8     libucrt:lcidtoname_downlevel.obj
 0002:000051c8       ??_C@_1O@BHHPIGDN@?$AAq?$AAu?$AAz?$AA?9?$AAe?$AAc?$AA?$AA@ 00000001800371c8     libucrt:lcidtoname_downlevel.obj
 0002:000051d8       ??_C@_1O@GBAPEKMJ@?$AAq?$AAu?$AAz?$AA?9?$AAp?$AAe?$AA?$AA@ 00000001800371d8     libucrt:lcidtoname_downlevel.obj
 0002:000051e8       ??_C@_1M@CLGLEFBO@?$AAr?$AAo?$AA?9?$AAr?$AAo?$AA?$AA@ 00000001800371e8     libucrt:lcidtoname_downlevel.obj
 0002:000051f8       ??_C@_1M@CEEDODME@?$AAr?$AAu?$AA?9?$AAr?$AAu?$AA?$AA@ 00000001800371f8     libucrt:lcidtoname_downlevel.obj
 0002:00005208       ??_C@_1M@HPKKKMPP@?$AAs?$AAa?$AA?9?$AAi?$AAn?$AA?$AA@ 0000000180037208     libucrt:lcidtoname_downlevel.obj
 0002:00005218       ??_C@_1M@BKMAIGOJ@?$AAs?$AAe?$AA?9?$AAf?$AAi?$AA?$AA@ 0000000180037218     libucrt:lcidtoname_downlevel.obj
 0002:00005228       ??_C@_1M@NDPIFLFI@?$AAs?$AAe?$AA?9?$AAn?$AAo?$AA?$AA@ 0000000180037228     libucrt:lcidtoname_downlevel.obj
 0002:00005238       ??_C@_1M@DANKKHJ@?$AAs?$AAe?$AA?9?$AAs?$AAe?$AA?$AA@ 0000000180037238     libucrt:lcidtoname_downlevel.obj
 0002:00005248       ??_C@_1M@PNBLONPJ@?$AAs?$AAk?$AA?9?$AAs?$AAk?$AA?$AA@ 0000000180037248     libucrt:lcidtoname_downlevel.obj
 0002:00005258       ??_C@_1M@LFMODOAL@?$AAs?$AAl?$AA?9?$AAs?$AAi?$AA?$AA@ 0000000180037258     libucrt:lcidtoname_downlevel.obj
 0002:00005268       ??_C@_1O@DFKOMPG@?$AAs?$AAm?$AAa?$AA?9?$AAn?$AAo?$AA?$AA@ 0000000180037268     libucrt:lcidtoname_downlevel.obj
 0002:00005278       ??_C@_1O@NDKPBNNH@?$AAs?$AAm?$AAa?$AA?9?$AAs?$AAe?$AA?$AA@ 0000000180037278     libucrt:lcidtoname_downlevel.obj
 0002:00005288       ??_C@_1O@PLLKBHAB@?$AAs?$AAm?$AAj?$AA?9?$AAn?$AAo?$AA?$AA@ 0000000180037288     libucrt:lcidtoname_downlevel.obj
 0002:00005298       ??_C@_1O@CLEPOGCA@?$AAs?$AAm?$AAj?$AA?9?$AAs?$AAe?$AA?$AA@ 0000000180037298     libucrt:lcidtoname_downlevel.obj
 0002:000052a8       ??_C@_1O@DLGJGKMK@?$AAs?$AAm?$AAn?$AA?9?$AAf?$AAi?$AA?$AA@ 00000001800372a8     libucrt:lcidtoname_downlevel.obj
 0002:000052b8       ??_C@_1O@OJDJGAJC@?$AAs?$AAm?$AAs?$AA?9?$AAf?$AAi?$AA?$AA@ 00000001800372b8     libucrt:lcidtoname_downlevel.obj
 0002:000052c8       ??_C@_1M@BOFOGHPB@?$AAs?$AAq?$AA?9?$AAa?$AAl?$AA?$AA@ 00000001800372c8     libucrt:lcidtoname_downlevel.obj
 0002:000052d8       ??_C@_1BG@LJBBIPGB@?$AAs?$AAr?$AA?9?$AAb?$AAa?$AA?9?$AAc?$AAy?$AAr?$AAl?$AA?$AA@ 00000001800372d8     libucrt:lcidtoname_downlevel.obj
 0002:000052f0       ??_C@_1BG@JLBENFOE@?$AAs?$AAr?$AA?9?$AAb?$AAa?$AA?9?$AAl?$AAa?$AAt?$AAn?$AA?$AA@ 00000001800372f0     libucrt:lcidtoname_downlevel.obj
 0002:00005308       ??_C@_1BG@KODPNHE@?$AAs?$AAr?$AA?9?$AAs?$AAp?$AA?9?$AAc?$AAy?$AAr?$AAl?$AA?$AA@ 0000000180037308     libucrt:lcidtoname_downlevel.obj
 0002:00005320       ??_C@_1BG@CIOGKHPB@?$AAs?$AAr?$AA?9?$AAs?$AAp?$AA?9?$AAl?$AAa?$AAt?$AAn?$AA?$AA@ 0000000180037320     libucrt:lcidtoname_downlevel.obj
 0002:00005338       ??_C@_1M@NGFJLMAC@?$AAs?$AAv?$AA?9?$AAf?$AAi?$AA?$AA@ 0000000180037338     libucrt:lcidtoname_downlevel.obj
 0002:00005348       ??_C@_1M@MPJEJAJC@?$AAs?$AAv?$AA?9?$AAs?$AAe?$AA?$AA@ 0000000180037348     libucrt:lcidtoname_downlevel.obj
 0002:00005358       ??_C@_1M@MPNDHLFK@?$AAs?$AAw?$AA?9?$AAk?$AAe?$AA?$AA@ 0000000180037358     libucrt:lcidtoname_downlevel.obj
 0002:00005368       ??_C@_1O@KOHBJJI@?$AAs?$AAy?$AAr?$AA?9?$AAs?$AAy?$AA?$AA@ 0000000180037368     libucrt:lcidtoname_downlevel.obj
 0002:00005378       ??_C@_1M@LDCEFHA@?$AAt?$AAa?$AA?9?$AAi?$AAn?$AA?$AA@ 0000000180037378     libucrt:lcidtoname_downlevel.obj
 0002:00005388       ??_C@_1M@CNJOFAK@?$AAt?$AAe?$AA?9?$AAi?$AAn?$AA?$AA@ 0000000180037388     libucrt:lcidtoname_downlevel.obj
 0002:00005398       ??_C@_1M@GNAECACD@?$AAt?$AAh?$AA?9?$AAt?$AAh?$AA?$AA@ 0000000180037398     libucrt:lcidtoname_downlevel.obj
 0002:000053a8       ??_C@_1M@CHBIHOJO@?$AAt?$AAn?$AA?9?$AAz?$AAa?$AA?$AA@ 00000001800373a8     libucrt:lcidtoname_downlevel.obj
 0002:000053b8       ??_C@_1M@GCCMIGPJ@?$AAt?$AAr?$AA?9?$AAt?$AAr?$AA?$AA@ 00000001800373b8     libucrt:lcidtoname_downlevel.obj
 0002:000053c8       ??_C@_1M@CELMCNBK@?$AAt?$AAt?$AA?9?$AAr?$AAu?$AA?$AA@ 00000001800373c8     libucrt:lcidtoname_downlevel.obj
 0002:000053d8       ??_C@_1M@KLMCELGA@?$AAu?$AAk?$AA?9?$AAu?$AAa?$AA?$AA@ 00000001800373d8     libucrt:lcidtoname_downlevel.obj
 0002:000053e8       ??_C@_1M@EPAJJAJF@?$AAu?$AAr?$AA?9?$AAp?$AAk?$AA?$AA@ 00000001800373e8     libucrt:lcidtoname_downlevel.obj
 0002:000053f8       ??_C@_1BG@GEGPMCDJ@?$AAu?$AAz?$AA?9?$AAu?$AAz?$AA?9?$AAc?$AAy?$AAr?$AAl?$AA?$AA@ 00000001800373f8     libucrt:lcidtoname_downlevel.obj
 0002:00005410       ??_C@_1BG@EGGKJILM@?$AAu?$AAz?$AA?9?$AAu?$AAz?$AA?9?$AAl?$AAa?$AAt?$AAn?$AA?$AA@ 0000000180037410     libucrt:lcidtoname_downlevel.obj
 0002:00005428       ??_C@_1M@GFOCLFF@?$AAv?$AAi?$AA?9?$AAv?$AAn?$AA?$AA@ 0000000180037428     libucrt:lcidtoname_downlevel.obj
 0002:00005438       ??_C@_1M@CPAMEDFI@?$AAx?$AAh?$AA?9?$AAz?$AAa?$AA?$AA@ 0000000180037438     libucrt:lcidtoname_downlevel.obj
 0002:00005448       ??_C@_1O@EBKIFIGN@?$AAz?$AAh?$AA?9?$AAc?$AAh?$AAs?$AA?$AA@ 0000000180037448     libucrt:lcidtoname_downlevel.obj
 0002:00005458       ??_C@_1O@NMHPGANE@?$AAz?$AAh?$AA?9?$AAc?$AAh?$AAt?$AA?$AA@ 0000000180037458     libucrt:lcidtoname_downlevel.obj
 0002:00005468       ??_C@_1M@LPINJOMC@?$AAz?$AAh?$AA?9?$AAc?$AAn?$AA?$AA@ 0000000180037468     libucrt:lcidtoname_downlevel.obj
 0002:00005478       ??_C@_1M@OCJEJODD@?$AAz?$AAh?$AA?9?$AAh?$AAk?$AA?$AA@ 0000000180037478     libucrt:lcidtoname_downlevel.obj
 0002:00005488       ??_C@_1M@DNDLJINH@?$AAz?$AAh?$AA?9?$AAm?$AAo?$AA?$AA@ 0000000180037488     libucrt:lcidtoname_downlevel.obj
 0002:00005498       ??_C@_1M@MBFDNDND@?$AAz?$AAh?$AA?9?$AAs?$AAg?$AA?$AA@ 0000000180037498     libucrt:lcidtoname_downlevel.obj
 0002:000054a8       ??_C@_1M@IMEPLEPE@?$AAz?$AAh?$AA?9?$AAt?$AAw?$AA?$AA@ 00000001800374a8     libucrt:lcidtoname_downlevel.obj
 0002:000054b8       ??_C@_1M@BBGHNHJP@?$AAz?$AAu?$AA?9?$AAz?$AAa?$AA?$AA@ 00000001800374b8     libucrt:lcidtoname_downlevel.obj
 0002:00006310       ??_C@_15EMKDOKLE@?$AAa?$AAr?$AA?$AA@ 0000000180038310     libucrt:lcidtoname_downlevel.obj
 0002:00006318       ??_C@_15KNPADPLH@?$AAb?$AAg?$AA?$AA@ 0000000180038318     libucrt:lcidtoname_downlevel.obj
 0002:00006320       ??_C@_15EDMHLDMO@?$AAc?$AAa?$AA?$AA@ 0000000180038320     libucrt:lcidtoname_downlevel.obj
 0002:00006328       ??_C@_1O@BPEAJADD@?$AAz?$AAh?$AA?9?$AAC?$AAH?$AAS?$AA?$AA@ 0000000180038328     libucrt:lcidtoname_downlevel.obj
 0002:00006338       ??_C@_15LJNHCMNK@?$AAc?$AAs?$AA?$AA@ 0000000180038338     libucrt:lcidtoname_downlevel.obj
 0002:00006340       ??_C@_15FOMCIDHG@?$AAd?$AAa?$AA?$AA@ 0000000180038340     libucrt:lcidtoname_downlevel.obj
 0002:00006348       ??_C@_15NBKABECB@?$AAd?$AAe?$AA?$AA@ 0000000180038348     libucrt:lcidtoname_downlevel.obj
 0002:00006350       ??_C@_15GHPEIIAO@?$AAe?$AAl?$AA?$AA@ 0000000180038350     libucrt:lcidtoname_downlevel.obj
 0002:00006358       ??_C@_15MNPNEAIF@?$AAe?$AAn?$AA?$AA@ 0000000180038358     libucrt:lcidtoname_downlevel.obj
 0002:00006360       ??_C@_15GPIOMPMH@?$AAe?$AAs?$AA?$AA@ 0000000180038360     libucrt:lcidtoname_downlevel.obj
 0002:00006368       ??_C@_15NGLOAKJC@?$AAf?$AAi?$AA?$AA@ 0000000180038368     libucrt:lcidtoname_downlevel.obj
 0002:00006370       ??_C@_15FBKGNKAM@?$AAf?$AAr?$AA?$AA@ 0000000180038370     libucrt:lcidtoname_downlevel.obj
 0002:00006378       ??_C@_15KGGCNEFK@?$AAh?$AAe?$AA?$AA@ 0000000180038378     libucrt:lcidtoname_downlevel.obj
 0002:00006380       ??_C@_15PGHLIDMF@?$AAh?$AAu?$AA?$AA@ 0000000180038380     libucrt:lcidtoname_downlevel.obj
 0002:00006388       ??_C@_15BIEMAPLM@?$AAi?$AAs?$AA?$AA@ 0000000180038388     libucrt:lcidtoname_downlevel.obj
 0002:00006390       ??_C@_15IFJLDHAF@?$AAi?$AAt?$AA?$AA@ 0000000180038390     libucrt:lcidtoname_downlevel.obj
 0002:00006398       ??_C@_15GEMIOCAG@?$AAj?$AAa?$AA?$AA@ 0000000180038398     libucrt:lcidtoname_downlevel.obj
 0002:000063a0       ??_C@_15EPELEGJA@?$AAk?$AAo?$AA?$AA@ 00000001800383a0     libucrt:lcidtoname_downlevel.obj
 0002:000063a8       ??_C@_15NDDHIMN@?$AAn?$AAl?$AA?$AA@ 00000001800383a8     libucrt:lcidtoname_downlevel.obj
 0002:000063b0       ??_C@_15BPIGNHCD@?$AAn?$AAo?$AA?$AA@ 00000001800383b0     libucrt:lcidtoname_downlevel.obj
 0002:000063b8       ??_C@_15DEOPBLCG@?$AAp?$AAl?$AA?$AA@ 00000001800383b8     libucrt:lcidtoname_downlevel.obj
 0002:000063c0       ??_C@_15KBECGEFG@?$AAp?$AAt?$AA?$AA@ 00000001800383c0     libucrt:lcidtoname_downlevel.obj
 0002:000063c8       ??_C@_15GLJCBFMD@?$AAr?$AAo?$AA?$AA@ 00000001800383c8     libucrt:lcidtoname_downlevel.obj
 0002:000063d0       ??_C@_15FEDGKCDI@?$AAr?$AAu?$AA?$AA@ 00000001800383d0     libucrt:lcidtoname_downlevel.obj
 0002:000063d8       ??_C@_15GLKMLLHM@?$AAh?$AAr?$AA?$AA@ 00000001800383d8     libucrt:lcidtoname_downlevel.obj
 0002:000063e0       ??_C@_15CPKMFBDB@?$AAs?$AAk?$AA?$AA@ 00000001800383e0     libucrt:lcidtoname_downlevel.obj
 0002:000063e8       ??_C@_15BAAIOGMK@?$AAs?$AAq?$AA?$AA@ 00000001800383e8     libucrt:lcidtoname_downlevel.obj
 0002:000063f0       ??_C@_15INNPNOHD@?$AAs?$AAv?$AA?$AA@ 00000001800383f0     libucrt:lcidtoname_downlevel.obj
 0002:000063f8       ??_C@_15CABMMOGH@?$AAt?$AAh?$AA?$AA@ 00000001800383f8     libucrt:lcidtoname_downlevel.obj
 0002:00006400       ??_C@_15BPLIHJJM@?$AAt?$AAr?$AA?$AA@ 0000000180038400     libucrt:lcidtoname_downlevel.obj
 0002:00006408       ??_C@_15NEOEKKDJ@?$AAu?$AAr?$AA?$AA@ 0000000180038408     libucrt:lcidtoname_downlevel.obj
 0002:00006410       ??_C@_15NFICGAJK@?$AAi?$AAd?$AA?$AA@ 0000000180038410     libucrt:lcidtoname_downlevel.obj
 0002:00006418       ??_C@_15PJPFLCCM@?$AAu?$AAk?$AA?$AA@ 0000000180038418     libucrt:lcidtoname_downlevel.obj
 0002:00006420       ??_C@_15HPJPHDM@?$AAb?$AAe?$AA?$AA@ 0000000180038420     libucrt:lcidtoname_downlevel.obj
 0002:00006428       ??_C@_15LCHLGJII@?$AAs?$AAl?$AA?$AA@ 0000000180038428     libucrt:lcidtoname_downlevel.obj
 0002:00006430       ??_C@_15PCFJPHHO@?$AAe?$AAt?$AA?$AA@ 0000000180038430     libucrt:lcidtoname_downlevel.obj
 0002:00006438       ??_C@_15HPFPGODN@?$AAl?$AAv?$AA?$AA@ 0000000180038438     libucrt:lcidtoname_downlevel.obj
 0002:00006440       ??_C@_15NFFGKGLG@?$AAl?$AAt?$AA?$AA@ 0000000180038440     libucrt:lcidtoname_downlevel.obj
 0002:00006448       ??_C@_15BDAKCCHN@?$AAf?$AAa?$AA?$AA@ 0000000180038448     libucrt:lcidtoname_downlevel.obj
 0002:00006450       ??_C@_15NFGIAIAJ@?$AAv?$AAi?$AA?$AA@ 0000000180038450     libucrt:lcidtoname_downlevel.obj
 0002:00006458       ??_C@_15LMKNDMHN@?$AAh?$AAy?$AA?$AA@ 0000000180038458     libucrt:lcidtoname_downlevel.obj
 0002:00006460       ??_C@_15IJBHMCFL@?$AAa?$AAz?$AA?$AA@ 0000000180038460     libucrt:lcidtoname_downlevel.obj
 0002:00006468       ??_C@_15EKOFJABL@?$AAe?$AAu?$AA?$AA@ 0000000180038468     libucrt:lcidtoname_downlevel.obj
 0002:00006470       ??_C@_15BGHADCNK@?$AAm?$AAk?$AA?$AA@ 0000000180038470     libucrt:lcidtoname_downlevel.obj
 0002:00006478       ??_C@_15JDNICKHM@?$AAa?$AAf?$AA?$AA@ 0000000180038478     libucrt:lcidtoname_downlevel.obj
 0002:00006480       ??_C@_15KPJEDBKD@?$AAk?$AAa?$AA?$AA@ 0000000180038480     libucrt:lcidtoname_downlevel.obj
 0002:00006488       ??_C@_15PDNFFFEO@?$AAf?$AAo?$AA?$AA@ 0000000180038488     libucrt:lcidtoname_downlevel.obj
 0002:00006490       ??_C@_15OMLEGLOC@?$AAh?$AAi?$AA?$AA@ 0000000180038490     libucrt:lcidtoname_downlevel.obj
 0002:00006498       ??_C@_15IDNNENKK@?$AAm?$AAs?$AA?$AA@ 0000000180038498     libucrt:lcidtoname_downlevel.obj
 0002:000064a0       ??_C@_15MACJNBMH@?$AAk?$AAk?$AA?$AA@ 00000001800384a0     libucrt:lcidtoname_downlevel.obj
 0002:000064a8       ??_C@_15DKDJEOND@?$AAk?$AAy?$AA?$AA@ 00000001800384a8     libucrt:lcidtoname_downlevel.obj
 0002:000064b0       ??_C@_15DFGDLJBG@?$AAs?$AAw?$AA?$AA@ 00000001800384b0     libucrt:lcidtoname_downlevel.obj
 0002:000064b8       ??_C@_15BBFAICNG@?$AAu?$AAz?$AA?$AA@ 00000001800384b8     libucrt:lcidtoname_downlevel.obj
 0002:000064c0       ??_C@_15DKNDCGEA@?$AAt?$AAt?$AA?$AA@ 00000001800384c0     libucrt:lcidtoname_downlevel.obj
 0002:000064c8       ??_C@_15MGIFMDPL@?$AAp?$AAa?$AA?$AA@ 00000001800384c8     libucrt:lcidtoname_downlevel.obj
 0002:000064d0       ??_C@_15HCNDBBA@?$AAg?$AAu?$AA?$AA@ 00000001800384d0     libucrt:lcidtoname_downlevel.obj
 0002:000064d8       ??_C@_15FNBEIBON@?$AAt?$AAa?$AA?$AA@ 00000001800384d8     libucrt:lcidtoname_downlevel.obj
 0002:000064e0       ??_C@_15NCHGBGLK@?$AAt?$AAe?$AA?$AA@ 00000001800384e0     libucrt:lcidtoname_downlevel.obj
 0002:000064e8       ??_C@_15PHPHCBPF@?$AAk?$AAn?$AA?$AA@ 00000001800384e8     libucrt:lcidtoname_downlevel.obj
 0002:000064f0       ??_C@_15DLGBCKMP@?$AAm?$AAr?$AA?$AA@ 00000001800384f0     libucrt:lcidtoname_downlevel.obj
 0002:000064f8       ??_C@_15EABBLBFF@?$AAs?$AAa?$AA?$AA@ 00000001800384f8     libucrt:lcidtoname_downlevel.obj
 0002:00006500       ??_C@_15CBKOMCOI@?$AAm?$AAn?$AA?$AA@ 0000000180038500     libucrt:lcidtoname_downlevel.obj
 0002:00006508       ??_C@_15CKDMCJAF@?$AAg?$AAl?$AA?$AA@ 0000000180038508     libucrt:lcidtoname_downlevel.obj
 0002:00006510       ??_C@_17CNJFBPG@?$AAk?$AAo?$AAk?$AA?$AA@ 0000000180038510     libucrt:lcidtoname_downlevel.obj
 0002:00006518       ??_C@_17FFBJICPL@?$AAs?$AAy?$AAr?$AA?$AA@ 0000000180038518     libucrt:lcidtoname_downlevel.obj
 0002:00006520       ??_C@_17KPNDCPAF@?$AAd?$AAi?$AAv?$AA?$AA@ 0000000180038520     libucrt:lcidtoname_downlevel.obj
 0002:00006528       ??_C@_11LOCGONAA@?$AA?$AA@ 0000000180038528     libucrt:lcidtoname_downlevel.obj
 0002:00006530       ??_C@_1M@OKAHONE@?$AAa?$AAr?$AA?9?$AAS?$AAA?$AA?$AA@ 0000000180038530     libucrt:lcidtoname_downlevel.obj
 0002:00006540       ??_C@_1M@FFFIGIGK@?$AAb?$AAg?$AA?9?$AAB?$AAG?$AA?$AA@ 0000000180038540     libucrt:lcidtoname_downlevel.obj
 0002:00006550       ?large_power_data@?1??multiply_by_power_of_ten@__crt_strtox@@YA_NAEAUbig_integer@2@I@Z@4QBIB 0000000180038550     libucrt:cfout.obj
 0002:00006e60       ?large_power_indices@?1??multiply_by_power_of_ten@__crt_strtox@@YA_NAEAUbig_integer@2@I@Z@4QBUunpack_index@?1??12@YA_N0I@Z@B 0000000180038e60     libucrt:cfout.obj
 0002:00006ef8       ?small_powers_of_ten@?1??multiply_by_power_of_ten@__crt_strtox@@YA_NAEAUbig_integer@2@I@Z@4QBIB 0000000180038ef8     libucrt:cfout.obj
 0002:00006f1c       ??_C@_05DNEBIAHO@1?$CDINF?$AA@ 0000000180038f1c     libucrt:cfout.obj
 0002:00006f24       ??_C@_06IMKFLFPG@1?$CDQNAN?$AA@ 0000000180038f24     libucrt:cfout.obj
 0002:00006f2c       ??_C@_06PGGFOGJG@1?$CDSNAN?$AA@ 0000000180038f2c     libucrt:cfout.obj
 0002:00006f34       ??_C@_05PHHOCPM@1?$CDIND?$AA@ 0000000180038f34     libucrt:cfout.obj
 0002:00006f3c       ??_C@_02CLFPBFFP@TZ?$AA@   0000000180038f3c     libucrt:tzset.obj
 0002:00006f40       _days                      0000000180038f40     libucrt:days.obj
 0002:00006f78       _lpdays                    0000000180038f78     libucrt:days.obj
 0002:00007210       ??_C@_1BA@BALFACEM@?$AAC?$AAO?$AAN?$AAO?$AAU?$AAT?$AA$?$AA?$AA@ 0000000180039210     libucrt:initcon.obj
 0002:00007220       __log10_256_lead           0000000180039220     libucrt:log10_256_lead_tail_table.obj
 0002:00007a30       __log10_256_tail           0000000180039a30     libucrt:log10_256_lead_tail_table.obj
 0002:00008240       __log_F_inv_qword          000000018003a240     libucrt:log_f_inv_qword_table.obj
 0002:00008a50       ??_C@_1BK@DBDEIDLH@?$AAK?$AAE?$AAR?$AAN?$AAE?$AAL?$AA3?$AA2?$AA?4?$AAD?$AAL?$AAL?$AA?$AA@ 000000018003aa50     DelayImp:delayhlp.obj
 0002:00008a70       ??_C@_0BI@OMNLIJDB@AcquireSRWLockExclusive?$AA@ 000000018003aa70     DelayImp:delayhlp.obj
 0002:00008a88       ??_C@_0BI@HMIEPCNJ@ReleaseSRWLockExclusive?$AA@ 000000018003aa88     DelayImp:delayhlp.obj
 0002:00008aa0       __pfnDliFailureHook2       000000018003aaa0     DelayImp:delayhk1.obj
 0002:00008ab0       _load_config_used          000000018003aab0     LIBCMT:loadcfg.obj
 0002:00008bb0       ??_C@_1DG@OKCGPKIB@?$AAp?$AAe?$AAr?$AAs?$AAi?$AAs?$AAt?$AAe?$AAn?$AAt?$AA?$CI?$AA?$CJ?$AA?4?$AAI?$AAs?$AAN?$AAe?$AAa?$AAr?$AAD?$AAe?$AAa?$AAt?$AAh?$AA?$CI?$AA?$CJ?$AA?$AA@ 000000018003abb0     Canvas.obj
 0002:00008be8       ??_C@_1CO@EGNPJLKI@?$AAp?$AAe?$AAr?$AAs?$AAi?$AAs?$AAt?$AAe?$AAn?$AAt?$AA?$CI?$AA?$CJ?$AA?4?$AAI?$AAs?$AAE?$AAm?$AAp?$AAt?$AAy?$AA?$CI?$AA?$CJ?$AA?$AA@ 000000018003abe8     Canvas.obj
 0002:00008c18       ??_C@_1DA@FBGAEOIO@?$AA?$CB?$AAp?$AAe?$AAr?$AAs?$AAi?$AAs?$AAt?$AAe?$AAn?$AAt?$AA?$CI?$AA?$CJ?$AA?4?$AAI?$AAs?$AAE?$AAm?$AAp?$AAt?$AAy?$AA?$CI?$AA?$CJ?$AA?$AA@ 000000018003ac18     Canvas.obj
 0002:00008c48       ??_C@_1CO@JCKLEFMA@?$AA?$CB?$AAp?$AAe?$AAr?$AAs?$AAi?$AAs?$AAt?$AAe?$AAn?$AAt?$AA?$CI?$AA?$CJ?$AA?4?$AAI?$AAs?$AAW?$AAe?$AAa?$AAk?$AA?$CI?$AA?$CJ?$AA?$AA@ 000000018003ac48     Canvas.obj
 0002:00008c78       ??_C@_1BE@GMLLOIPJ@?$AAr?$AAe?$AAf?$AAs?$AA_?$AA?5?$AA?$DO?$AA?5?$AA0?$AA?$AA@ 000000018003ac78     Canvas.obj
 0002:00008c90       ??_C@_1CC@GBFLAAPF@?$AAw?$AAr?$AAa?$AAp?$AA?9?$AA?$DO?$AAr?$AAe?$AAf?$AAs?$AA_?$AA?5?$AA?$DN?$AA?$DN?$AA?5?$AA0?$AA?$AA@ 000000018003ac90     Canvas.obj
 0002:00008cc0       ??_C@_1HM@LFOCHONG@?$AAc?$AA?3?$AA?2?$AAp?$AAr?$AAo?$AAj?$AAe?$AAc?$AAt?$AAs?$AA?2?$AAn?$AAo?$AAd?$AAe?$AA?9?$AAc?$AAa?$AAn?$AAv?$AAa?$AAs?$AA?9?$AAp?$AAr?$AAe?$AAb?$AAu?$AAi?$AAl?$AAt@ 000000018003acc0     Canvas.obj
 0002:00008d40       ??_C@_1GA@PFOOBIAG@?$AAl?$AAe?$AAn?$AAg?$AAt?$AAh?$AA?5?$AA?$DM?$AA?$DN?$AA?5?$AAi?$AAm?$AAp?$AA?3?$AA?3?$AAk?$AAM?$AAa?$AAx?$AAL?$AAe?$AAn?$AAg?$AAt?$AAh?$AA?5?$AA?$CG?$AA?$CG?$AA?5?$AA?$CC?$AAt?$AAo@ 000000018003ad40     Canvas.obj
 0002:00008da0       ??_C@_1FM@LOELJOFK@?$AAs?$AAi?$AAz?$AAe?$AA?5?$AA?$DM?$AA?$DN?$AA?5?$AAi?$AAm?$AAp?$AA?3?$AA?3?$AAk?$AAM?$AAa?$AAx?$AAL?$AAe?$AAn?$AAg?$AAt?$AAh?$AA?5?$AA?$CG?$AA?$CG?$AA?5?$AA?$CC?$AAt?$AAo?$AAo?$AA?5@ 000000018003ada0     Canvas.obj
 0002:00008e00       ??_C@_0BB@JPMJDPHD@nan?3makeCallback?$AA@ 000000018003ae00     Canvas.obj
 0002:00008e18       ??_C@_0BC@EBHDFLHM@nan?3Callback?3Call?$AA@ 000000018003ae18     Canvas.obj
 0002:00008e30       ??_C@_1JE@CIDMAKPN@?$AAc?$AA?3?$AA?2?$AAp?$AAr?$AAo?$AAj?$AAe?$AAc?$AAt?$AAs?$AA?2?$AAn?$AAo?$AAd?$AAe?$AA?9?$AAc?$AAa?$AAn?$AAv?$AAa?$AAs?$AA?9?$AAp?$AAr?$AAe?$AAb?$AAu?$AAi?$AAl?$AAt@ 000000018003ae30     Canvas.obj
 0002:00008ed0       ??_C@_1EC@MGGLMBLC@?$AAo?$AAb?$AAj?$AAe?$AAc?$AAt?$AA?9?$AA?$DO?$AAI?$AAn?$AAt?$AAe?$AAr?$AAn?$AAa?$AAl?$AAF?$AAi?$AAe?$AAl?$AAd?$AAC?$AAo?$AAu?$AAn?$AAt?$AA?$CI?$AA?$CJ?$AA?5?$AA?$DO?$AA?5?$AA0@ 000000018003aed0     Canvas.obj
 0002:00008f18       ??_C@_1DI@ELDBKNAK@?$AAw?$AAr?$AAa?$AAp?$AA?9?$AA?$DO?$AAh?$AAa?$AAn?$AAd?$AAl?$AAe?$AA_?$AA?4?$AAI?$AAs?$AAN?$AAe?$AAa?$AAr?$AAD?$AAe?$AAa?$AAt?$AAh?$AA?$CI?$AA?$CJ?$AA?$AA@ 000000018003af18     Canvas.obj
 0002:00008f50       ??_C@_06KCKKNHDE@1?46?434?$AA@ 000000018003af50     Canvas.obj
 0002:00008f58       ??_C@_06PBIJCONE@Canvas?$AA@ 000000018003af58     Canvas.obj
 0002:00008f60       ??_C@_08GOCDALDA@toBuffer?$AA@ 000000018003af60     Canvas.obj
 0002:00008f70       ??_C@_0O@IOKOGJGN@streamPNGSync?$AA@ 000000018003af70     Canvas.obj
 0002:00008f80       ??_C@_0O@OBICOFIG@streamPDFSync?$AA@ 000000018003af80     Canvas.obj
 0002:00008f90       ??_C@_0P@GMDNPKGK@streamJPEGSync?$AA@ 000000018003af90     Canvas.obj
 0002:00008fa0       ??_C@_04GPMDFGEJ@type?$AA@ 000000018003afa0     Canvas.obj
 0002:00008fa8       ??_C@_06LNMIFCNI@stride?$AA@ 000000018003afa8     Canvas.obj
 0002:00008fb0       ??_C@_05IGKADHGO@width?$AA@ 000000018003afb0     Canvas.obj
 0002:00008fb8       ??_C@_06LNLHEAAG@height?$AA@ 000000018003afb8     Canvas.obj
 0002:00008fc0       ??_C@_0P@DNOOAMCM@PNG_NO_FILTERS?$AA@ 000000018003afc0     Canvas.obj
 0002:00008fd0       ??_C@_0BA@NECJFJGB@PNG_FILTER_NONE?$AA@ 000000018003afd0     Canvas.obj
 0002:00008fe0       ??_C@_0P@ILKINAJE@PNG_FILTER_SUB?$AA@ 000000018003afe0     Canvas.obj
 0002:00008ff0       ??_C@_0O@PHEANGBB@PNG_FILTER_UP?$AA@ 000000018003aff0     Canvas.obj
 0002:00009000       ??_C@_0P@OIJAFJM@PNG_FILTER_AVG?$AA@ 000000018003b000     Canvas.obj
 0002:00009010       ??_C@_0BB@EOMICOFG@PNG_FILTER_PAETH?$AA@ 000000018003b010     Canvas.obj
 0002:00009028       ??_C@_0BA@HBOOLNBH@PNG_ALL_FILTERS?$AA@ 000000018003b028     Canvas.obj
 0002:00009038       ??_C@_0DD@NOKGMICM@Class?5constructors?5cannot?5be?5inv@ 000000018003b038     Canvas.obj
 0002:0000906c       ??_C@_03MJPNCPKC@pdf?$AA@  000000018003b06c     Canvas.obj
 0002:00009070       ??_C@_03NNPBMGBD@svg?$AA@  000000018003b070     Canvas.obj
 0002:00009074       ??_C@_05NGOMGBBD@image?$AA@ 000000018003b074     Canvas.obj
 0002:0000907c       ??_C@_03DGOGAGNC@raw?$AA@  000000018003b07c     Canvas.obj
 0002:00009080       ??_C@_01GBGANLPD@0?$AA@    000000018003b080     Canvas.obj
 0002:00009088       ??_C@_0DE@NKCMEFAA@Allowed?5compression?5levels?5lie?5i@ 000000018003b088     Canvas.obj
 0002:000090c0       ??_C@_0CE@KMCMNKHK@Compression?5level?5must?5be?5a?5numb@ 000000018003b0c0     Canvas.obj
 0002:000090e8       ??_C@_0BG@HPFBKLBE@Invalid?5filter?5value?4?$AA@ 000000018003b0e8     Canvas.obj
 0002:00009100       ??_C@_0BL@NEPODJIN@callback?5function?5required?$AA@ 000000018003b100     Canvas.obj
 0002:00009120       ??_C@_0BC@FANAGBIP@wrong?5canvas?5type?$AA@ 000000018003b120     Canvas.obj
 0002:00009138       ??_C@_0BF@GHANOAKO@buffer?5size?5required?$AA@ 000000018003b138     Canvas.obj
 0002:00009150       ??_C@_0BJ@PDCEPKC@quality?5setting?5required?$AA@ 000000018003b150     Canvas.obj
 0002:00009170       ??_C@_0BN@PPFPLGLE@progressive?5setting?5required?$AA@ 000000018003b170     Canvas.obj
 0002:00009190       ??_C@_1JC@FJBPEGBB@?$AAc?$AA?3?$AA?2?$AAp?$AAr?$AAo?$AAj?$AAe?$AAc?$AAt?$AAs?$AA?2?$AAn?$AAo?$AAd?$AAe?$AA?9?$AAc?$AAa?$AAn?$AAv?$AAa?$AAs?$AA?9?$AAp?$AAr?$AAe?$AAb?$AAu?$AAi?$AAl?$AAt@ 000000018003b190     Canvas.obj
 0002:00009228       ??_C@_1BC@KFAOGGDO@?$AA_?$AAc?$AAl?$AAo?$AAs?$AAu?$AAr?$AAe?$AA?$AA@ 000000018003b228     Canvas.obj
 0002:00009240       ??_C@_1DO@PEKPJEKO@?$AAs?$AAt?$AAa?$AAt?$AAu?$AAs?$AA?5?$AA?$DN?$AA?$DN?$AA?5?$AAC?$AAA?$AAI?$AAR?$AAO?$AA_?$AAS?$AAT?$AAA?$AAT?$AAU?$AAS?$AA_?$AAS?$AAU?$AAC?$AAC?$AAE?$AAS?$AAS?$AA?$AA@ 000000018003b240     Canvas.obj
 0002:00009280       ??_C@_1BC@OIIGNDNN@?$AA_?$AAs?$AAu?$AAr?$AAf?$AAa?$AAc?$AAe?$AA?$AA@ 000000018003b280     Canvas.obj
 0002:00009298       ??_C@_07JKKCBBMM@context?$AA@ 000000018003b298     Canvas.obj
 0002:000092a0       ??_C@_1CE@LNAGEONJ@?$AA?$CB?$AAo?$AAb?$AAj?$AAe?$AAc?$AAt?$AA?4?$AAI?$AAs?$AAE?$AAm?$AAp?$AAt?$AAy?$AA?$CI?$AA?$CJ?$AA?$AA@ 000000018003b2a0     Canvas.obj
 0002:000092c8       ??_7ObjectWrap@Nan@@6B@    000000018003b2c8     Canvas.obj
 0002:000092e0       ??_7Canvas@@6B@            000000018003b2e0     Canvas.obj
 0002:000092f8       ??_C@_0P@CKNMLMDB@CanvasGradient?$AA@ 000000018003b2f8     CanvasGradient.obj
 0002:00009308       ??_C@_0N@FFOKKILE@addColorStop?$AA@ 000000018003b308     CanvasGradient.obj
 0002:00009318       ??_C@_0BC@KNPMEBHA@invalid?5arguments?$AA@ 000000018003b318     CanvasGradient.obj
 0002:00009330       ??_C@_0BA@ELGKPKEI@offset?5required?$AA@ 000000018003b330     CanvasGradient.obj
 0002:00009340       ??_C@_0BG@HHHCEBEM@color?5string?5required?$AA@ 000000018003b340     CanvasGradient.obj
 0002:00009358       ??_C@_0BD@JKDEPLNJ@parse?5color?5failed?$AA@ 000000018003b358     CanvasGradient.obj
 0002:00009370       ??_7Gradient@@6B@          000000018003b370     CanvasGradient.obj
 0002:00009370       ??_7Pattern@@6B@           000000018003b370     CanvasPattern.obj
 0002:00009388       ??_C@_0O@KEPDKAFI@CanvasPattern?$AA@ 000000018003b388     CanvasPattern.obj
 0002:00009398       ??_C@_0CG@CKGIHBBA@Image?5given?5has?5not?5completed?5lo@ 000000018003b398     CanvasPattern.obj
 0002:000093c0       ??_C@_0BJ@NBALILEB@Image?5or?5Canvas?5expected?$AA@ 000000018003b3c0     CanvasPattern.obj
 0002:000093e0       ??_C@_07CIFAGBMG@unknown?$AA@ 000000018003b3e0     CanvasRenderingContext2d.obj
 0002:000093e8       ??_C@_0BJ@HOMNLOJF@CanvasRenderingContext2D?$AA@ 000000018003b3e8     CanvasRenderingContext2d.obj
 0002:00009408       ??_C@_09LANPKMCJ@drawImage?$AA@ 000000018003b408     CanvasRenderingContext2d.obj
 0002:00009418       ??_C@_0N@HMHAOANH@putImageData?$AA@ 000000018003b418     CanvasRenderingContext2d.obj
 0002:00009428       ??_C@_0N@LJBMKNKJ@getImageData?$AA@ 000000018003b428     CanvasRenderingContext2d.obj
 0002:00009438       ??_C@_07IEJLLIOD@addPage?$AA@ 000000018003b438     CanvasRenderingContext2d.obj
 0002:00009440       ??_C@_04EMMDIJJL@save?$AA@ 000000018003b440     CanvasRenderingContext2d.obj
 0002:00009448       ??_C@_07HICINA@restore?$AA@ 000000018003b448     CanvasRenderingContext2d.obj
 0002:00009450       ??_C@_06CEHMNFAL@rotate?$AA@ 000000018003b450     CanvasRenderingContext2d.obj
 0002:00009458       ??_C@_09ODNGOEIO@translate?$AA@ 000000018003b458     CanvasRenderingContext2d.obj
 0002:00009468       ??_C@_09IFONHNKG@transform?$AA@ 000000018003b468     CanvasRenderingContext2d.obj
 0002:00009478       ??_C@_0P@KBHJLFLN@resetTransform?$AA@ 000000018003b478     CanvasRenderingContext2d.obj
 0002:00009488       ??_C@_0O@MDNHBEAB@isPointInPath?$AA@ 000000018003b488     CanvasRenderingContext2d.obj
 0002:00009498       ??_C@_05MHMEBBGO@scale?$AA@ 000000018003b498     CanvasRenderingContext2d.obj
 0002:000094a0       ??_C@_04POIGMEJN@clip?$AA@ 000000018003b4a0     CanvasRenderingContext2d.obj
 0002:000094a8       ??_C@_04OBAECEGJ@fill?$AA@ 000000018003b4a8     CanvasRenderingContext2d.obj
 0002:000094b0       ??_C@_06JDPPEKDJ@stroke?$AA@ 000000018003b4b0     CanvasRenderingContext2d.obj
 0002:000094b8       ??_C@_08BKNBKKHP@fillText?$AA@ 000000018003b4b8     CanvasRenderingContext2d.obj
 0002:000094c8       ??_C@_0L@NKNGGLJB@strokeText?$AA@ 000000018003b4c8     CanvasRenderingContext2d.obj
 0002:000094d8       ??_C@_08IFOCBDEO@fillRect?$AA@ 000000018003b4d8     CanvasRenderingContext2d.obj
 0002:000094e8       ??_C@_0L@EFOFNCKA@strokeRect?$AA@ 000000018003b4e8     CanvasRenderingContext2d.obj
 0002:000094f8       ??_C@_09CADLENBP@clearRect?$AA@ 000000018003b4f8     CanvasRenderingContext2d.obj
 0002:00009504       ??_C@_04LHPFHFPH@rect?$AA@ 000000018003b504     CanvasRenderingContext2d.obj
 0002:00009510       ??_C@_0M@PDPLNFGN@measureText?$AA@ 000000018003b510     CanvasRenderingContext2d.obj
 0002:0000951c       ??_C@_06ICOKFDHB@moveTo?$AA@ 000000018003b51c     CanvasRenderingContext2d.obj
 0002:00009524       ??_C@_06KCFEGHJL@lineTo?$AA@ 000000018003b524     CanvasRenderingContext2d.obj
 0002:00009530       ??_C@_0O@PAEGDEKM@bezierCurveTo?$AA@ 000000018003b530     CanvasRenderingContext2d.obj
 0002:00009540       ??_C@_0BB@NNCDNEFE@quadraticCurveTo?$AA@ 000000018003b540     CanvasRenderingContext2d.obj
 0002:00009558       ??_C@_09GMDIDHBP@beginPath?$AA@ 000000018003b558     CanvasRenderingContext2d.obj
 0002:00009568       ??_C@_09FFNFMCIM@closePath?$AA@ 000000018003b568     CanvasRenderingContext2d.obj
 0002:00009574       ??_C@_03EEIEDENP@arc?$AA@  000000018003b574     CanvasRenderingContext2d.obj
 0002:00009578       ??_C@_05KOMEJIOF@arcTo?$AA@ 000000018003b578     CanvasRenderingContext2d.obj
 0002:00009580       ??_C@_0M@KIBHMOJH@setLineDash?$AA@ 000000018003b580     CanvasRenderingContext2d.obj
 0002:00009590       ??_C@_0M@KHAJBIBE@getLineDash?$AA@ 000000018003b590     CanvasRenderingContext2d.obj
 0002:000095a0       ??_C@_08GCBDMPHE@_setFont?$AA@ 000000018003b5a0     CanvasRenderingContext2d.obj
 0002:000095b0       ??_C@_0N@LKMPHAEE@_setFontFace?$AA@ 000000018003b5b0     CanvasRenderingContext2d.obj
 0002:000095c0       ??_C@_0O@LDAFEHIB@_setFillColor?$AA@ 000000018003b5c0     CanvasRenderingContext2d.obj
 0002:000095d0       ??_C@_0BA@KNEOHGAJ@_setStrokeColor?$AA@ 000000018003b5d0     CanvasRenderingContext2d.obj
 0002:000095e0       ??_C@_0BA@PBFLDAPN@_setFillPattern?$AA@ 000000018003b5e0     CanvasRenderingContext2d.obj
 0002:000095f0       ??_C@_0BC@FDNPDMMP@_setStrokePattern?$AA@ 000000018003b5f0     CanvasRenderingContext2d.obj
 0002:00009608       ??_C@_0BB@CFGDFFJO@_setTextBaseline?$AA@ 000000018003b608     CanvasRenderingContext2d.obj
 0002:00009620       ??_C@_0BC@FPEBGOFB@_setTextAlignment?$AA@ 000000018003b620     CanvasRenderingContext2d.obj
 0002:00009638       ??_C@_0P@HGKACBEG@patternQuality?$AA@ 000000018003b638     CanvasRenderingContext2d.obj
 0002:00009648       ??_C@_0BJ@KOAEPHEF@globalCompositeOperation?$AA@ 000000018003b648     CanvasRenderingContext2d.obj
 0002:00009668       ??_C@_0M@EJNLOLOE@globalAlpha?$AA@ 000000018003b668     CanvasRenderingContext2d.obj
 0002:00009678       ??_C@_0M@JPJLLJDB@shadowColor?$AA@ 000000018003b678     CanvasRenderingContext2d.obj
 0002:00009688       ??_C@_09EGMCAAKI@fillColor?$AA@ 000000018003b688     CanvasRenderingContext2d.obj
 0002:00009698       ??_C@_0M@BLAMIBG@strokeColor?$AA@ 000000018003b698     CanvasRenderingContext2d.obj
 0002:000096a8       ??_C@_0L@EFNIPLDK@miterLimit?$AA@ 000000018003b6a8     CanvasRenderingContext2d.obj
 0002:000096b8       ??_C@_09PELAPJEH@lineWidth?$AA@ 000000018003b6b8     CanvasRenderingContext2d.obj
 0002:000096c8       ??_C@_07IPBACFHB@lineCap?$AA@ 000000018003b6c8     CanvasRenderingContext2d.obj
 0002:000096d0       ??_C@_08CCMLJKBL@lineJoin?$AA@ 000000018003b6d0     CanvasRenderingContext2d.obj
 0002:000096e0       ??_C@_0P@NNEFDNMM@lineDashOffset?$AA@ 000000018003b6e0     CanvasRenderingContext2d.obj
 0002:000096f0       ??_C@_0O@FOAIOCIO@shadowOffsetX?$AA@ 000000018003b6f0     CanvasRenderingContext2d.obj
 0002:00009700       ??_C@_0O@EHBDNDMP@shadowOffsetY?$AA@ 000000018003b700     CanvasRenderingContext2d.obj
 0002:00009710       ??_C@_0L@FJBIPGOL@shadowBlur?$AA@ 000000018003b710     CanvasRenderingContext2d.obj
 0002:00009720       ??_C@_09BEIGEBLF@antialias?$AA@ 000000018003b720     CanvasRenderingContext2d.obj
 0002:00009730       ??_C@_0BA@GALDJJKL@textDrawingMode?$AA@ 000000018003b730     CanvasRenderingContext2d.obj
 0002:00009740       ??_C@_06EOIELIPE@filter?$AA@ 000000018003b740     CanvasRenderingContext2d.obj
 0002:00009748       ??_C@_0BJ@OLEJJKDH@CanvasRenderingContext2d?$AA@ 000000018003b748     CanvasRenderingContext2d.obj
 0002:00009768       ??_C@_07NOFPBGJH@evenodd?$AA@ 000000018003b768     CanvasRenderingContext2d.obj
 0002:00009770       ??_C@_0BA@IBFIJLCO@Canvas?5expected?$AA@ 000000018003b770     CanvasRenderingContext2d.obj
 0002:00009780       ??_C@_0CG@EHLCPGGB@only?5PDF?5canvases?5support?5?4nextP@ 000000018003b780     CanvasRenderingContext2d.obj
 0002:000097a8       ??_C@_0BD@DJPHEEKJ@ImageData?5expected?$AA@ 000000018003b7a8     CanvasRenderingContext2d.obj
 0002:000097c0       ??_C@_0CH@NDMGIAMG@IndexSizeError?3?5The?5source?5width@ 000000018003b7c0     CanvasRenderingContext2d.obj
 0002:000097e8       ??_C@_0CI@HDADGBDO@IndexSizeError?3?5The?5source?5heigh@ 000000018003b7e8     CanvasRenderingContext2d.obj
 0002:00009810       ??_C@_0M@OABMHCHE@source?9over?$AA@ 000000018003b810     CanvasRenderingContext2d.obj
 0002:00009820       ??_C@_0M@MKIEODMK@source?9atop?$AA@ 000000018003b820     CanvasRenderingContext2d.obj
 0002:00009830       ??_C@_09CMAEPNDN@source?9in?$AA@ 000000018003b830     CanvasRenderingContext2d.obj
 0002:00009840       ??_C@_0L@CGAPOHFD@source?9out?$AA@ 000000018003b840     CanvasRenderingContext2d.obj
 0002:0000984c       ??_C@_03COLCDPPJ@xor?$AA@  000000018003b84c     CanvasRenderingContext2d.obj
 0002:00009850       ??_C@_0BB@CPBJJEG@destination?9atop?$AA@ 000000018003b850     CanvasRenderingContext2d.obj
 0002:00009868       ??_C@_0P@GAHJLNBO@destination?9in?$AA@ 000000018003b868     CanvasRenderingContext2d.obj
 0002:00009878       ??_C@_0BA@IECEOLGB@destination?9out?$AA@ 000000018003b878     CanvasRenderingContext2d.obj
 0002:00009888       ??_C@_0BB@CIGJAIPI@destination?9over?$AA@ 000000018003b888     CanvasRenderingContext2d.obj
 0002:0000989c       ??_C@_05MEHLAELG@clear?$AA@ 000000018003b89c     CanvasRenderingContext2d.obj
 0002:000098a4       ??_C@_06OEKOLKIL@source?$AA@ 000000018003b8a4     CanvasRenderingContext2d.obj
 0002:000098ac       ??_C@_04EEHDLEKF@dest?$AA@ 000000018003b8ac     CanvasRenderingContext2d.obj
 0002:000098b4       ??_C@_04DPPOAFIB@over?$AA@ 000000018003b8b4     CanvasRenderingContext2d.obj
 0002:000098c0       ??_C@_08MEKLKAIJ@saturate?$AA@ 000000018003b8c0     CanvasRenderingContext2d.obj
 0002:000098d0       ??_C@_07OODLOHBD@lighten?$AA@ 000000018003b8d0     CanvasRenderingContext2d.obj
 0002:000098d8       ??_C@_03BDGOHNNK@add?$AA@  000000018003b8d8     CanvasRenderingContext2d.obj
 0002:000098dc       ??_C@_06OCOCEFJK@darker?$AA@ 000000018003b8dc     CanvasRenderingContext2d.obj
 0002:000098e8       ??_C@_08MMOCDOEL@multiply?$AA@ 000000018003b8e8     CanvasRenderingContext2d.obj
 0002:000098f4       ??_C@_06LPLGMLP@screen?$AA@ 000000018003b8f4     CanvasRenderingContext2d.obj
 0002:00009900       ??_C@_07BJNHBMF@overlay?$AA@ 000000018003b900     CanvasRenderingContext2d.obj
 0002:00009908       ??_C@_0L@CEKGHIKD@hard?9light?$AA@ 000000018003b908     CanvasRenderingContext2d.obj
 0002:00009918       ??_C@_0L@DKCPCJMJ@soft?9light?$AA@ 000000018003b918     CanvasRenderingContext2d.obj
 0002:00009928       ??_C@_07LGBGJPAP@hsl?9hue?$AA@ 000000018003b928     CanvasRenderingContext2d.obj
 0002:00009930       ??_C@_0P@HLIOCFIP@hsl?9saturation?$AA@ 000000018003b930     CanvasRenderingContext2d.obj
 0002:00009940       ??_C@_09IEDFIDAP@hsl?9color?$AA@ 000000018003b940     CanvasRenderingContext2d.obj
 0002:00009950       ??_C@_0P@HOBGGHID@hsl?9luminosity?$AA@ 000000018003b950     CanvasRenderingContext2d.obj
 0002:00009960       ??_C@_0M@HJIFAOGP@color?9dodge?$AA@ 000000018003b960     CanvasRenderingContext2d.obj
 0002:00009970       ??_C@_0L@BNODHIAO@color?9burn?$AA@ 000000018003b970     CanvasRenderingContext2d.obj
 0002:00009980       ??_C@_0L@CHCOIIBP@difference?$AA@ 000000018003b980     CanvasRenderingContext2d.obj
 0002:00009990       ??_C@_09GJPEMMGJ@exclusion?$AA@ 000000018003b990     CanvasRenderingContext2d.obj
 0002:0000999c       ??_C@_04LBNBHAJC@fast?$AA@ 000000018003b99c     CanvasRenderingContext2d.obj
 0002:000099a4       ??_C@_04DDJAGGFE@good?$AA@ 000000018003b9a4     CanvasRenderingContext2d.obj
 0002:000099ac       ??_C@_04MLDDEBAF@best?$AA@ 000000018003b9ac     CanvasRenderingContext2d.obj
 0002:000099b8       ??_C@_07NHJEPDMH@nearest?$AA@ 000000018003b9b8     CanvasRenderingContext2d.obj
 0002:000099c0       ??_C@_08LJMMPFJO@bilinear?$AA@ 000000018003b9c0     CanvasRenderingContext2d.obj
 0002:000099d0       ??_C@_07IEMLKEO@lighter?$AA@ 000000018003b9d0     CanvasRenderingContext2d.obj
 0002:000099d8       ??_C@_04CGFJFPFD@none?$AA@ 000000018003b9d8     CanvasRenderingContext2d.obj
 0002:000099e0       ??_C@_04GEBBKIAA@gray?$AA@ 000000018003b9e0     CanvasRenderingContext2d.obj
 0002:000099e8       ??_C@_08JOJOGLJH@subpixel?$AA@ 000000018003b9e8     CanvasRenderingContext2d.obj
 0002:000099f8       ??_C@_07DLHCIBDH@default?$AA@ 000000018003b9f8     CanvasRenderingContext2d.obj
 0002:00009a00       ??_C@_04LNEJFJGI@path?$AA@ 000000018003ba00     CanvasRenderingContext2d.obj
 0002:00009a08       ??_C@_05OIOMJNBL@glyph?$AA@ 000000018003ba08     CanvasRenderingContext2d.obj
 0002:00009a10       ??_C@_05JDNDNKBA@bevel?$AA@ 000000018003ba10     CanvasRenderingContext2d.obj
 0002:00009a18       ??_C@_05MIMAKCN@round?$AA@ 000000018003ba18     CanvasRenderingContext2d.obj
 0002:00009a20       ??_C@_05NJDNHCJA@miter?$AA@ 000000018003ba20     CanvasRenderingContext2d.obj
 0002:00009a28       ??_C@_06ICDKOIFG@square?$AA@ 000000018003ba28     CanvasRenderingContext2d.obj
 0002:00009a30       ??_C@_04JOGFAABP@butt?$AA@ 000000018003ba30     CanvasRenderingContext2d.obj
 0002:00009a38       ??_C@_0BN@MEBGIMHG@Gradient?5or?5Pattern?5expected?$AA@ 000000018003ba38     CanvasRenderingContext2d.obj
 0002:00009a58       ??_C@_0BM@CKBGKGDN@lineTo?$CI?$CJ?5x?5must?5be?5a?5number?$AA@ 000000018003ba58     CanvasRenderingContext2d.obj
 0002:00009a78       ??_C@_0BM@PNPECGGF@lineTo?$CI?$CJ?5y?5must?5be?5a?5number?$AA@ 000000018003ba78     CanvasRenderingContext2d.obj
 0002:00009a98       ??_C@_0BM@GIIBHACD@moveTo?$CI?$CJ?5x?5must?5be?5a?5number?$AA@ 000000018003ba98     CanvasRenderingContext2d.obj
 0002:00009ab8       ??_C@_0BM@LPGDPAHL@moveTo?$CI?$CJ?5y?5must?5be?5a?5number?$AA@ 000000018003bab8     CanvasRenderingContext2d.obj
 0002:00009ad8       ??_C@_0BL@ONBNOGJF@Expected?5object?5and?5number?$AA@ 000000018003bad8     CanvasRenderingContext2d.obj
 0002:00009af8       ??_C@_0BC@PPMPPJJD@FontFace?5expected?$AA@ 000000018003baf8     CanvasRenderingContext2d.obj
 0002:00009b0c       ??_C@_06DAHKLION@italic?$AA@ 000000018003bb0c     CanvasRenderingContext2d.obj
 0002:00009b18       ??_C@_07PNBIOHPA@oblique?$AA@ 000000018003bb18     CanvasRenderingContext2d.obj
 0002:00009b20       ??_C@_04PJDGFHHN@bold?$AA@ 000000018003bb20     CanvasRenderingContext2d.obj
 0002:00009b28       ??_C@_0BG@IGICBKHO@actualBoundingBoxLeft?$AA@ 000000018003bb28     CanvasRenderingContext2d.obj
 0002:00009b40       ??_C@_0BH@KNMENBEI@actualBoundingBoxRight?$AA@ 000000018003bb40     CanvasRenderingContext2d.obj
 0002:00009b58       ??_C@_0BI@NBNJEOJE@actualBoundingBoxAscent?$AA@ 000000018003bb58     CanvasRenderingContext2d.obj
 0002:00009b70       ??_C@_0BJ@LKCIMDON@actualBoundingBoxDescent?$AA@ 000000018003bb70     CanvasRenderingContext2d.obj
 0002:00009b90       ??_C@_0P@FGHEPLGI@emHeightAscent?$AA@ 000000018003bb90     CanvasRenderingContext2d.obj
 0002:00009ba0       ??_C@_0BA@OKENAGP@emHeightDescent?$AA@ 000000018003bba0     CanvasRenderingContext2d.obj
 0002:00009bb0       ??_C@_0BD@NGFBNEGE@alphabeticBaseline?$AA@ 000000018003bbb0     CanvasRenderingContext2d.obj
 0002:00009bc8       ??_C@_0BD@OLBABOEK@vector?$DMT?$DO?5too?5long?$AA@ 000000018003bbc8     CanvasRenderingContext2d.obj
 0002:00009be0       ??_7Context2d@@6B@         000000018003bbe0     CanvasRenderingContext2d.obj
 0002:00009bf8       ??_C@_0M@CEEDCJLA@transparent?$AA@ 000000018003bbf8     color.obj
 0002:00009c08       ??_C@_09GNHGKALJ@aliceblue?$AA@ 000000018003bc08     color.obj
 0002:00009c18       ??_C@_0N@OJFLMGEJ@antiquewhite?$AA@ 000000018003bc18     color.obj
 0002:00009c28       ??_C@_04GANAGBLL@aqua?$AA@ 000000018003bc28     color.obj
 0002:00009c30       ??_C@_0L@MOKEMMG@aquamarine?$AA@ 000000018003bc30     color.obj
 0002:00009c3c       ??_C@_05CNOJAJLP@azure?$AA@ 000000018003bc3c     color.obj
 0002:00009c44       ??_C@_05EJOPPCPO@beige?$AA@ 000000018003bc44     color.obj
 0002:00009c4c       ??_C@_06HGAAELGA@bisque?$AA@ 000000018003bc4c     color.obj
 0002:00009c54       ??_C@_05BIMBDNDC@black?$AA@ 000000018003bc54     color.obj
 0002:00009c60       ??_C@_0P@CMCBOAOE@blanchedalmond?$AA@ 000000018003bc60     color.obj
 0002:00009c70       ??_C@_04OBGPFBCN@blue?$AA@ 000000018003bc70     color.obj
 0002:00009c78       ??_C@_0L@LKLKALMM@blueviolet?$AA@ 000000018003bc78     color.obj
 0002:00009c84       ??_C@_05EBJGJMAL@brown?$AA@ 000000018003bc84     color.obj
 0002:00009c90       ??_C@_09JHLANABP@burlywood?$AA@ 000000018003bc90     color.obj
 0002:00009ca0       ??_C@_09KIJDGGAG@cadetblue?$AA@ 000000018003bca0     color.obj
 0002:00009cb0       ??_C@_0L@CHNAEACO@chartreuse?$AA@ 000000018003bcb0     color.obj
 0002:00009cc0       ??_C@_09BPADAHOC@chocolate?$AA@ 000000018003bcc0     color.obj
 0002:00009ccc       ??_C@_05JKFECOJP@coral?$AA@ 000000018003bccc     color.obj
 0002:00009cd8       ??_C@_0P@KLMOGGLK@cornflowerblue?$AA@ 000000018003bcd8     color.obj
 0002:00009ce8       ??_C@_08DECOJLB@cornsilk?$AA@ 000000018003bce8     color.obj
 0002:00009cf8       ??_C@_07DAGIGOOE@crimson?$AA@ 000000018003bcf8     color.obj
 0002:00009d00       ??_C@_04EDBDANFH@cyan?$AA@ 000000018003bd00     color.obj
 0002:00009d08       ??_C@_08MFEOPMII@darkblue?$AA@ 000000018003bd08     color.obj
 0002:00009d18       ??_C@_08GHDCKAPC@darkcyan?$AA@ 000000018003bd18     color.obj
 0002:00009d28       ??_C@_0O@GGJPBKNE@darkgoldenrod?$AA@ 000000018003bd28     color.obj
 0002:00009d38       ??_C@_08EADAAFKF@darkgray?$AA@ 000000018003bd38     color.obj
 0002:00009d48       ??_C@_09MHNMOMAI@darkgreen?$AA@ 000000018003bd48     color.obj
 0002:00009d58       ??_C@_08EHDJKNHJ@darkgrey?$AA@ 000000018003bd58     color.obj
 0002:00009d68       ??_C@_09FAPDIPMK@darkkhaki?$AA@ 000000018003bd68     color.obj
 0002:00009d78       ??_C@_0M@MEEFECHN@darkmagenta?$AA@ 000000018003bd78     color.obj
 0002:00009d88       ??_C@_0P@BGCLDNDK@darkolivegreen?$AA@ 000000018003bd88     color.obj
 0002:00009d98       ??_C@_0L@ICJJPBF@darkorange?$AA@ 000000018003bd98     color.obj
 0002:00009da8       ??_C@_0L@EEAHIPOC@darkorchid?$AA@ 000000018003bda8     color.obj
 0002:00009db8       ??_C@_07MFAOOMGP@darkred?$AA@ 000000018003bdb8     color.obj
 0002:00009dc0       ??_C@_0L@CKNHPKLG@darksalmon?$AA@ 000000018003bdc0     color.obj
 0002:00009dd0       ??_C@_0N@FBOCOPGH@darkseagreen?$AA@ 000000018003bdd0     color.obj
 0002:00009de0       ??_C@_0O@PABAFENG@darkslateblue?$AA@ 000000018003bde0     color.obj
 0002:00009df0       ??_C@_0O@HFGOKNPL@darkslategray?$AA@ 000000018003bdf0     color.obj
 0002:00009e00       ??_C@_0O@HCGHAFCH@darkslategrey?$AA@ 000000018003be00     color.obj
 0002:00009e10       ??_C@_0O@HKLGOIEA@darkturquoise?$AA@ 000000018003be10     color.obj
 0002:00009e20       ??_C@_0L@NGBKDFME@darkviolet?$AA@ 000000018003be20     color.obj
 0002:00009e30       ??_C@_08CJGCPHKF@deeppink?$AA@ 000000018003be30     color.obj
 0002:00009e40       ??_C@_0M@BGGBNDNG@deepskyblue?$AA@ 000000018003be40     color.obj
 0002:00009e50       ??_C@_07DJPEDLIH@dimgray?$AA@ 000000018003be50     color.obj
 0002:00009e58       ??_C@_07DOPNJDFL@dimgrey?$AA@ 000000018003be58     color.obj
 0002:00009e60       ??_C@_0L@MIOOBLBJ@dodgerblue?$AA@ 000000018003be60     color.obj
 0002:00009e70       ??_C@_09ELCPEDIM@firebrick?$AA@ 000000018003be70     color.obj
 0002:00009e80       ??_C@_0M@FFMCAIP@floralwhite?$AA@ 000000018003be80     color.obj
 0002:00009e90       ??_C@_0M@HBKAKFBN@forestgreen?$AA@ 000000018003be90     color.obj
 0002:00009ea0       ??_C@_07FHEBJCGF@fuchsia?$AA@ 000000018003bea0     color.obj
 0002:00009ea8       ??_C@_09MIGKOGAO@gainsboro?$AA@ 000000018003bea8     color.obj
 0002:00009eb8       ??_C@_0L@CELMEDAA@ghostwhite?$AA@ 000000018003beb8     color.obj
 0002:00009ec4       ??_C@_04DBNGNIAN@gold?$AA@ 000000018003bec4     color.obj
 0002:00009ed0       ??_C@_09KJDOAGJL@goldenrod?$AA@ 000000018003bed0     color.obj
 0002:00009edc       ??_C@_05GBEEJKMC@green?$AA@ 000000018003bedc     color.obj
 0002:00009ee8       ??_C@_0M@LFPLFELJ@greenyellow?$AA@ 000000018003bee8     color.obj
 0002:00009ef4       ??_C@_04GDBIAANM@grey?$AA@ 000000018003bef4     color.obj
 0002:00009f00       ??_C@_08BKNCNHLL@honeydew?$AA@ 000000018003bf00     color.obj
 0002:00009f10       ??_C@_07PCCOEED@hotpink?$AA@ 000000018003bf10     color.obj
 0002:00009f18       ??_C@_09IELIJPNO@indianred?$AA@ 000000018003bf18     color.obj
 0002:00009f24       ??_C@_06MLCCIEFE@indigo?$AA@ 000000018003bf24     color.obj
 0002:00009f2c       ??_C@_05NNJJIMHF@ivory?$AA@ 000000018003bf2c     color.obj
 0002:00009f34       ??_C@_05PGGLPJAA@khaki?$AA@ 000000018003bf34     color.obj
 0002:00009f40       ??_C@_08KJDCPJPL@lavender?$AA@ 000000018003bf40     color.obj
 0002:00009f50       ??_C@_0O@CCCMFNCK@lavenderblush?$AA@ 000000018003bf50     color.obj
 0002:00009f60       ??_C@_09MONDINDP@lawngreen?$AA@ 000000018003bf60     color.obj
 0002:00009f70       ??_C@_0N@ICDCAEHK@lemonchiffon?$AA@ 000000018003bf70     color.obj
 0002:00009f80       ??_C@_09NBIPJLA@lightblue?$AA@ 000000018003bf80     color.obj
 0002:00009f90       ??_C@_0L@BEAGLGMO@lightcoral?$AA@ 000000018003bf90     color.obj
 0002:00009fa0       ??_C@_09KPGEKFMK@lightcyan?$AA@ 000000018003bfa0     color.obj
 0002:00009fb0       ??_C@_0BF@PJADCIND@lightgoldenrodyellow?$AA@ 000000018003bfb0     color.obj
 0002:00009fc8       ??_C@_09IIGGAAJN@lightgray?$AA@ 000000018003bfc8     color.obj
 0002:00009fd8       ??_C@_0L@OPBGACJD@lightgreen?$AA@ 000000018003bfd8     color.obj
 0002:00009fe8       ??_C@_09IPGPKIEB@lightgrey?$AA@ 000000018003bfe8     color.obj
 0002:00009ff8       ??_C@_09KOBGKMHP@lightpink?$AA@ 000000018003bff8     color.obj
 0002:0000a008       ??_C@_0M@ENCCHKJE@lightsalmon?$AA@ 000000018003c008     color.obj
 0002:0000a018       ??_C@_0O@BLOIENJC@lightseagreen?$AA@ 000000018003c018     color.obj
 0002:0000a028       ??_C@_0N@JIFIFCAN@lightskyblue?$AA@ 000000018003c028     color.obj
 0002:0000a038       ??_C@_0P@LIPDKBMK@lightslategray?$AA@ 000000018003c038     color.obj
 0002:0000a048       ??_C@_0P@LPPKAJBG@lightslategrey?$AA@ 000000018003c048     color.obj
 0002:0000a058       ??_C@_0P@EIHJHAMG@lightsteelblue?$AA@ 000000018003c058     color.obj
 0002:0000a068       ??_C@_0M@FBHPKJLB@lightyellow?$AA@ 000000018003c068     color.obj
 0002:0000a074       ??_C@_04HLLEONLG@lime?$AA@ 000000018003c074     color.obj
 0002:0000a080       ??_C@_09JKHHFGDO@limegreen?$AA@ 000000018003c080     color.obj
 0002:0000a08c       ??_C@_05MLLCELJD@linen?$AA@ 000000018003c08c     color.obj
 0002:0000a098       ??_C@_07EMDGAPCI@magenta?$AA@ 000000018003c098     color.obj
 0002:0000a0a0       ??_C@_06BDPIEPJF@maroon?$AA@ 000000018003c0a0     color.obj
 0002:0000a0a8       ??_C@_0BB@HHCOFKIC@mediumaquamarine?$AA@ 000000018003c0a8     color.obj
 0002:0000a0c0       ??_C@_0L@CEFFILOH@mediumblue?$AA@ 000000018003c0c0     color.obj
 0002:0000a0d0       ??_C@_0N@GIADPNAO@mediumorchid?$AA@ 000000018003c0d0     color.obj
 0002:0000a0e0       ??_C@_0N@DDGNBDHJ@mediumpurple?$AA@ 000000018003c0e0     color.obj
 0002:0000a0f0       ??_C@_0P@BNCCGPJD@mediumseagreen?$AA@ 000000018003c0f0     color.obj
 0002:0000a100       ??_C@_0BA@EKIMKCFD@mediumslateblue?$AA@ 000000018003c100     color.obj
 0002:0000a110       ??_C@_0BC@POGDBPNO@mediumspringgreen?$AA@ 000000018003c110     color.obj
 0002:0000a128       ??_C@_0BA@MACKBOMF@mediumturquoise?$AA@ 000000018003c128     color.obj
 0002:0000a138       ??_C@_0BA@PNNCDMHM@mediumvioletred?$AA@ 000000018003c138     color.obj
 0002:0000a148       ??_C@_0N@PJDKAOHK@midnightblue?$AA@ 000000018003c148     color.obj
 0002:0000a158       ??_C@_09INCGBEJA@mintcream?$AA@ 000000018003c158     color.obj
 0002:0000a168       ??_C@_09HABDAMOF@mistyrose?$AA@ 000000018003c168     color.obj
 0002:0000a178       ??_C@_08OIIPPDDA@moccasin?$AA@ 000000018003c178     color.obj
 0002:0000a188       ??_C@_0M@OKLAMJCL@navajowhite?$AA@ 000000018003c188     color.obj
 0002:0000a194       ??_C@_04DCMEIHPF@navy?$AA@ 000000018003c194     color.obj
 0002:0000a1a0       ??_C@_07MBCGBJON@oldlace?$AA@ 000000018003c1a0     color.obj
 0002:0000a1a8       ??_C@_05OFIFEKBG@olive?$AA@ 000000018003c1a8     color.obj
 0002:0000a1b0       ??_C@_09CNLBGLAE@olivedrab?$AA@ 000000018003c1b0     color.obj
 0002:0000a1bc       ??_C@_06HDDOCMMN@orange?$AA@ 000000018003c1bc     color.obj
 0002:0000a1c8       ??_C@_09OPJMLMBK@orangered?$AA@ 000000018003c1c8     color.obj
 0002:0000a1d4       ??_C@_06DPBADMDK@orchid?$AA@ 000000018003c1d4     color.obj
 0002:0000a1e0       ??_C@_0O@KONOLMEH@palegoldenrod?$AA@ 000000018003c1e0     color.obj
 0002:0000a1f0       ??_C@_09NAJHJFNO@palegreen?$AA@ 000000018003c1f0     color.obj
 0002:0000a200       ??_C@_0O@LCPHEOND@paleturquoise?$AA@ 000000018003c200     color.obj
 0002:0000a210       ??_C@_0O@IPAPGMGK@palevioletred?$AA@ 000000018003c210     color.obj
 0002:0000a220       ??_C@_0L@NPJMDDDD@papayawhip?$AA@ 000000018003c220     color.obj
 0002:0000a230       ??_C@_09GELOGGEC@peachpuff?$AA@ 000000018003c230     color.obj
 0002:0000a23c       ??_C@_04MJMKNOJB@peru?$AA@ 000000018003c23c     color.obj
 0002:0000a244       ??_C@_04ECGBAEOC@pink?$AA@ 000000018003c244     color.obj
 0002:0000a24c       ??_C@_04DDJGBPMH@plum?$AA@ 000000018003c24c     color.obj
 0002:0000a258       ??_C@_0L@MNADNFAH@powderblue?$AA@ 000000018003c258     color.obj
 0002:0000a264       ??_C@_06GEHONCEN@purple?$AA@ 000000018003c264     color.obj
 0002:0000a270       ??_C@_0O@JGOBAAIL@rebeccapurple?$AA@ 000000018003c270     color.obj
 0002:0000a280       ??_C@_03FAAAOPJM@red?$AA@  000000018003c280     color.obj
 0002:0000a288       ??_C@_09DJJHENIF@rosybrown?$AA@ 000000018003c288     color.obj
 0002:0000a298       ??_C@_09FEEJNHFN@royalblue?$AA@ 000000018003c298     color.obj
 0002:0000a2a8       ??_C@_0M@MOEGEDCP@saddlebrown?$AA@ 000000018003c2a8     color.obj
 0002:0000a2b4       ??_C@_06FBMAEJGO@salmon?$AA@ 000000018003c2b4     color.obj
 0002:0000a2c0       ??_C@_0L@HLMGLGHH@sandybrown?$AA@ 000000018003c2c0     color.obj
 0002:0000a2d0       ??_C@_08EKGLDJFB@seagreen?$AA@ 000000018003c2d0     color.obj
 0002:0000a2e0       ??_C@_08MFJLKPPC@seashell?$AA@ 000000018003c2e0     color.obj
 0002:0000a2ec       ??_C@_06CEGMHAGE@sienna?$AA@ 000000018003c2ec     color.obj
 0002:0000a2f4       ??_C@_06NBGLMDBG@silver?$AA@ 000000018003c2f4     color.obj
 0002:0000a300       ??_C@_07MFCMKLDM@skyblue?$AA@ 000000018003c300     color.obj
 0002:0000a308       ??_C@_09DPLBEIJJ@slateblue?$AA@ 000000018003c308     color.obj
 0002:0000a318       ??_C@_09LKMPLBLE@slategray?$AA@ 000000018003c318     color.obj
 0002:0000a328       ??_C@_09LNMGBJGI@slategrey?$AA@ 000000018003c328     color.obj
 0002:0000a334       ??_C@_04HPKDHBOB@snow?$AA@ 000000018003c334     color.obj
 0002:0000a340       ??_C@_0M@IPKJFOEB@springgreen?$AA@ 000000018003c340     color.obj
 0002:0000a350       ??_C@_09EKEFGALI@steelblue?$AA@ 000000018003c350     color.obj
 0002:0000a35c       ??_C@_03IIINPABG@tan?$AA@  000000018003c35c     color.obj
 0002:0000a360       ??_C@_04LJCKMMGA@teal?$AA@ 000000018003c360     color.obj
 0002:0000a368       ??_C@_07CGANODJO@thistle?$AA@ 000000018003c368     color.obj
 0002:0000a370       ??_C@_06NALDPNEI@tomato?$AA@ 000000018003c370     color.obj
 0002:0000a378       ??_C@_09LFBHPEAP@turquoise?$AA@ 000000018003c378     color.obj
 0002:0000a384       ??_C@_06KNANIGBM@violet?$AA@ 000000018003c384     color.obj
 0002:0000a38c       ??_C@_05PPOGEFHN@wheat?$AA@ 000000018003c38c     color.obj
 0002:0000a394       ??_C@_05PMAELIEO@white?$AA@ 000000018003c394     color.obj
 0002:0000a3a0       ??_C@_0L@FDFMBGNF@whitesmoke?$AA@ 000000018003c3a0     color.obj
 0002:0000a3ac       ??_C@_06ENJNJKEL@yellow?$AA@ 000000018003c3ac     color.obj
 0002:0000a3b8       ??_C@_0M@GCLLLGON@yellowgreen?$AA@ 000000018003c3b8     color.obj
 0002:0000a3c8       ??_C@_0O@CAFKCKKM@?$CD?$CF?42x?$CF?42x?$CF?42x?$AA@ 000000018003c3c8     color.obj
 0002:0000a3d8       ??_C@_0BH@IMKFBGII@rgba?$CI?$CFd?0?5?$CFd?0?5?$CFd?0?5?$CF?42f?$CJ?$AA@ 000000018003c3d8     color.obj
 0002:0000a3f0       ??_C@_04KDAMFBD@rgb?$CI?$AA@ 000000018003c3f0     color.obj
 0002:0000a3f8       ??_C@_05KGKCGJPO@rgba?$CI?$AA@ 000000018003c3f8     color.obj
 0002:0000a400       ??_C@_05HBFAAOHC@hsla?$CI?$AA@ 000000018003c400     color.obj
 0002:0000a408       ??_C@_04PFIFKHPC@hsl?$CI?$AA@ 000000018003c408     color.obj
 0002:0000a410       ??_C@_04CLILDBFP@rgba?$AA@ 000000018003c410     color.obj
 0002:0000a418       ??_C@_03FNOJMHE@rgb?$AA@   000000018003c418     color.obj
 0002:0000a41c       ??_C@_04NEDOFDLO@hsla?$AA@ 000000018003c41c     color.obj
 0002:0000a424       ??_C@_03LPNGANKN@hsl?$AA@  000000018003c424     color.obj
 0002:0000ad90       __pfnDliNotifyHook2        000000018003cd90     win_delay_load_hook.obj
 0002:0000ad98       ??_C@_00CNPNBAHC@?$AA@     000000018003cd98     Image.obj
 0002:0000ad9c       ??_C@_05NBEAGECF@Image?$AA@ 000000018003cd9c     Image.obj
 0002:0000ada8       ??_C@_08IPNIAGNA@complete?$AA@ 000000018003cda8     Image.obj
 0002:0000adb4       ??_C@_06FKJAAAAK@onload?$AA@ 000000018003cdb4     Image.obj
 0002:0000adc0       ??_C@_07MAAHHAB@onerror?$AA@ 000000018003cdc0     Image.obj
 0002:0000adc8       ??_C@_08ELMFDEKI@dataMode?$AA@ 000000018003cdc8     Image.obj
 0002:0000add8       ??_C@_0L@ICMMJJAL@MODE_IMAGE?$AA@ 000000018003cdd8     Image.obj
 0002:0000ade8       ??_C@_09IDBFNFDI@MODE_MIME?$AA@ 000000018003cde8     Image.obj
 0002:0000adf8       ??_C@_0L@PJKHLKFB@image?1jpeg?$AA@ 000000018003cdf8     Image.obj
 0002:0000ae04       ??_C@_02JDPG@rb?$AA@       000000018003ce04     Image.obj
 0002:0000ae08       ??_7Image@@6B@             000000018003ce08     Image.obj
 0002:0000ae20       ??_C@_09NIGIGFDC@ImageData?$AA@ 000000018003ce20     ImageData.obj
 0002:0000ae30       ??_C@_0BK@BFELGOEH@The?5source?5width?5is?5zero?4?$AA@ 000000018003ce30     ImageData.obj
 0002:0000ae50       ??_C@_0BL@EMOEEHOI@The?5source?5height?5is?5zero?4?$AA@ 000000018003ce50     ImageData.obj
 0002:0000ae70       ??_C@_0CH@IEOMAMPI@The?5input?5data?5has?5a?5zero?5byte?5l@ 000000018003ce70     ImageData.obj
 0002:0000ae98       ??_C@_0DD@ECEPEMHG@The?5input?5data?5byte?5length?5is?5no@ 000000018003ce98     ImageData.obj
 0002:0000aed0       ??_C@_0DN@JBNNAEFP@The?5input?5data?5byte?5length?5is?5no@ 000000018003ced0     ImageData.obj
 0002:0000af10       ??_C@_0EB@FFMBNCCC@The?5input?5data?5byte?5length?5is?5no@ 000000018003cf10     ImageData.obj
 0002:0000af60       ??_C@_0EB@JCAHACPK@Expected?5?$CIUint8ClampedArray?0?5wid@ 000000018003cf60     ImageData.obj
 0002:0000afa4       ??_C@_04PJOLNDGD@data?$AA@ 000000018003cfa4     ImageData.obj
 0002:0000afb0       ??_7ImageData@@6B@         000000018003cfb0     ImageData.obj
 0002:0000afc8       ??_C@_0N@OGDOEBIM@cairoVersion?$AA@ 000000018003cfc8     init.obj
 0002:0000afd8       ??_C@_02DPKJAMEF@?$CFd?$AA@ 000000018003cfd8     init.obj
 0002:0000afe0       ??_C@_0M@PLCFBBDI@jpegVersion?$AA@ 000000018003cfe0     init.obj
 0002:0000aff0       ??_C@_08FOJKHHJA@?$CFd?4?$CFd?4?$CFd?$AA@ 000000018003cff0     init.obj
 0002:0000b000       ??_C@_0L@KDJIMHFH@gifVersion?$AA@ 000000018003d000     init.obj
 0002:0000b010       ??_C@_0BA@MCPGPJBI@freetypeVersion?$AA@ 000000018003d010     init.obj
 0002:0000b020       ??_C@_0EH@JAMFHGJB@c?3?2projects?2node?9canvas?9prebuilt@ 000000018003d020     init.obj
 0002:0000b068       ??_C@_06DODEBHEI@canvas?$AA@ 000000018003d068     init.obj
 0002:0000b070       ??_C@_08PALNIMLA@FontFace?$AA@ 000000018003d070     FontFace.obj
 0002:0000b080       ??_C@_0DE@JEMLHPNJ@Wrong?5argument?5types?5passed?5to?5F@ 000000018003d080     FontFace.obj
 0002:0000b0b8       ??_C@_0BH@FCBFHPGO@Could?5not?5load?5library?$AA@ 000000018003d0b8     FontFace.obj
 0002:0000b0d0       ??_C@_0BJ@DDLJKDBF@Could?5not?5load?5font?5file?$AA@ 000000018003d0d0     FontFace.obj
 0002:0000b0f0       ??_C@_0CK@BHCCEIFB@Failed?5to?5setup?5cairo?5font?5face?5@ 000000018003d0f0     FontFace.obj
 0002:0000b120       ??_7FontFace@@6B@          000000018003d120     FontFace.obj
 0002:0000b138       ??_C@_08HCOMDCCD@iojs?4exe?$AA@ 000000018003d138     win_delay_load_hook.obj
 0002:0000b148       ??_C@_08JDDNMFDB@node?4exe?$AA@ 000000018003d148     win_delay_load_hook.obj
 0002:0000b518       __real@3dcccccd            000000018003d518     color.obj
 0002:0000b51c       __real@3f000000            000000018003d51c     CanvasRenderingContext2d.obj
 0002:0000b520       __real@3f13cd36            000000018003d520     CanvasRenderingContext2d.obj
 0002:0000b524       __real@3f800000            000000018003d524     color.obj
 0002:0000b528       __real@3fe0000000000000    000000018003d528     CanvasRenderingContext2d.obj
 0002:0000b530       __real@3fe5555555555555    000000018003d530     CanvasRenderingContext2d.obj
 0002:0000b538       __real@3ff0000000000000    000000018003d538     CanvasRenderingContext2d.obj
 0002:0000b540       __real@3ff6666666666666    000000018003d540     CanvasRenderingContext2d.obj
 0002:0000b548       __real@40000000            000000018003d548     color.obj
 0002:0000b550       __real@4000000000000000    000000018003d550     Image.obj
 0002:0000b558       __real@400921fb54442d18    000000018003d558     CanvasRenderingContext2d.obj
 0002:0000b560       __real@401921fb54442d18    000000018003d560     CanvasRenderingContext2d.obj
 0002:0000b568       __real@40400000            000000018003d568     color.obj
 0002:0000b570       __real@406fe00000000000    000000018003d570     color.obj
 0002:0000b578       __real@40800000            000000018003d578     color.obj
 0002:0000b580       __real@40b0000000000000    000000018003d580     Canvas.obj
 0002:0000b588       __real@40c00000            000000018003d588     color.obj
 0002:0000b58c       __real@41200000            000000018003d58c     color.obj
 0002:0000b590       __real@42c80000            000000018003d590     color.obj
 0002:0000b594       __real@437f0000            000000018003d594     color.obj
 0002:0000b598       __real@43b40000            000000018003d598     color.obj
 0002:0000b59c       __real@477fff00            000000018003d59c     CanvasRenderingContext2d.obj
 0002:0000b5a0       __real@7ff0000000000000    000000018003d5a0     CanvasRenderingContext2d.obj
 0002:0000b5a8       __real@bff0000000000000    000000018003d5a8     Canvas.obj
 0002:0000b5b0       __real@c0c00000            000000018003d5b0     color.obj
 0002:0000b5c0       __xmm@3ff00000000000000000000000000000 000000018003d5c0     CanvasRenderingContext2d.obj
 0002:0000b5d0       __xmm@80000000000000008000000000000000 000000018003d5d0     CanvasRenderingContext2d.obj
 0002:0000b5e0       __xmm@80000000800000008000000080000000 000000018003d5e0     CanvasRenderingContext2d.obj
 0002:0000ba50       __real@3c91a62633145c07    000000018003da50     libucrt:acos.obj
 0002:0000ba58       __real@3f0951665d321061    000000018003da58     libucrt:acos.obj
 0002:0000ba60       __real@3f51e5f887a62135    000000018003da60     libucrt:acos.obj
 0002:0000ba68       __real@3fac28d390c29690    000000018003da68     libucrt:acos.obj
 0002:0000ba70       __real@3fbb1a422982ce76    000000018003da70     libucrt:acos.obj
 0002:0000ba78       __real@3fcd1e4180029834    000000018003da78     libucrt:acos.obj
 0002:0000ba80       __real@3fd1a2bec1b7ef59    000000018003da80     libucrt:acos.obj
 0002:0000ba88       __real@3fdc7b297e269eac    000000018003da88     libucrt:acos.obj
 0002:0000ba90       __real@3fee324ab418f78d    000000018003da90     libucrt:acos.obj
 0002:0000ba98       __real@3ff5d6b12001f228    000000018003da98     libucrt:acos.obj
 0002:0000baa0       __real@3ff921fb54442d18    000000018003daa0     libucrt:acos.obj
 0002:0000baa8       __real@40062021571dccfc    000000018003daa8     libucrt:acos.obj
 0002:0000bab0       __real@400a4646f903cdea    000000018003dab0     libucrt:acos.obj
 0002:0000bab8       ??_C@_05FFFCHCED@acosf?$AA@ 000000018003dab8     libucrt:acosf.obj
 0002:0000bac0       __real@3b81ce6b            000000018003dac0     libucrt:acosf.obj
 0002:0000bac4       __real@3d678bdd            000000018003dac4     libucrt:acosf.obj
 0002:0000bac8       __real@3e3c94dc            000000018003dac8     libucrt:acosf.obj
 0002:0000bacc       __real@3f561f0d            000000018003dacc     libucrt:acosf.obj
 0002:0000bad0       __real@3f8d6fa5            000000018003dad0     libucrt:acosf.obj
 0002:0000bad4       __real@3fc90fdb            000000018003dad4     libucrt:acosf.obj
 0002:0000bad8       __real@40490fdb            000000018003dad8     libucrt:acosf.obj
 0002:0000badc       __real@bc5b3fe1            000000018003dadc     libucrt:acosf.obj
 0002:0000bae0       __real@bf800000            000000018003dae0     libucrt:acosf.obj
 0002:0000bae4       ??_C@_05OOAOEJGP@fmodf?$AA@ 000000018003dae4     libucrt:fmodf.obj
 0002:0000baec       ??_C@_05KGFAIMPG@sqrtf?$AA@ 000000018003daec     libucrt:sqrtf.obj
 0002:0000bfb0       __L_2_by_pi_bits           000000018003dfb0     libucrt:l2_by_pi_bits.obj
 0002:0000c0c0       ??_R4exception@std@@6B@    000000018003e0c0     libcpmt:xthrow.obj
 0002:0000c0e8       ??_R3exception@std@@8      000000018003e0e8     libcpmt:xthrow.obj
 0002:0000c100       ??_R2exception@std@@8      000000018003e100     libcpmt:xthrow.obj
 0002:0000c110       ??_R1A@?0A@EA@exception@std@@8 000000018003e110     libcpmt:xthrow.obj
 0002:0000c138       ??_R4bad_alloc@std@@6B@    000000018003e138     libcpmt:xthrow.obj
 0002:0000c160       ??_R3bad_alloc@std@@8      000000018003e160     libcpmt:xthrow.obj
 0002:0000c178       ??_R2bad_alloc@std@@8      000000018003e178     libcpmt:xthrow.obj
 0002:0000c190       ??_R1A@?0A@EA@bad_alloc@std@@8 000000018003e190     libcpmt:xthrow.obj
 0002:0000c1b8       ??_R4logic_error@std@@6B@  000000018003e1b8     libcpmt:xthrow.obj
 0002:0000c1e0       ??_R3logic_error@std@@8    000000018003e1e0     libcpmt:xthrow.obj
 0002:0000c1f8       ??_R2logic_error@std@@8    000000018003e1f8     libcpmt:xthrow.obj
 0002:0000c210       ??_R1A@?0A@EA@logic_error@std@@8 000000018003e210     libcpmt:xthrow.obj
 0002:0000c238       ??_R4length_error@std@@6B@ 000000018003e238     libcpmt:xthrow.obj
 0002:0000c260       ??_R3length_error@std@@8   000000018003e260     libcpmt:xthrow.obj
 0002:0000c278       ??_R2length_error@std@@8   000000018003e278     libcpmt:xthrow.obj
 0002:0000c298       ??_R1A@?0A@EA@length_error@std@@8 000000018003e298     libcpmt:xthrow.obj
 0002:0000c2c0       ??_R4type_info@@6B@        000000018003e2c0     LIBCMT:std_type_info_static.obj
 0002:0000c2e8       ??_R3type_info@@8          000000018003e2e8     LIBCMT:std_type_info_static.obj
 0002:0000c300       ??_R2type_info@@8          000000018003e300     LIBCMT:std_type_info_static.obj
 0002:0000c310       ??_R1A@?0A@EA@type_info@@8 000000018003e310     LIBCMT:std_type_info_static.obj
 0002:0000c338       ??_R4bad_array_new_length@std@@6B@ 000000018003e338     LIBCMT:throw_bad_alloc.obj
 0002:0000c360       ??_R3bad_array_new_length@std@@8 000000018003e360     LIBCMT:throw_bad_alloc.obj
 0002:0000c378       ??_R2bad_array_new_length@std@@8 000000018003e378     LIBCMT:throw_bad_alloc.obj
 0002:0000c398       ??_R1A@?0A@EA@bad_array_new_length@std@@8 000000018003e398     LIBCMT:throw_bad_alloc.obj
 0002:0000c3c0       ??_R4bad_exception@std@@6B@ 000000018003e3c0     libvcruntime:frame.obj
 0002:0000c3e8       ??_R3bad_exception@std@@8  000000018003e3e8     libvcruntime:frame.obj
 0002:0000c400       ??_R2bad_exception@std@@8  000000018003e400     libvcruntime:frame.obj
 0002:0000c418       ??_R1A@?0A@EA@bad_exception@std@@8 000000018003e418     libvcruntime:frame.obj
 0002:0000c848       __rtc_iaa                  000000018003e848     LIBCMT:_initsect_.obj
 0002:0000c850       __rtc_izz                  000000018003e850     LIBCMT:_initsect_.obj
 0002:0000c858       __rtc_taa                  000000018003e858     LIBCMT:_initsect_.obj
 0002:0000c860       __rtc_tzz                  000000018003e860     LIBCMT:_initsect_.obj
 0002:0000f9a0       _TI2?AVbad_alloc@std@@     00000001800419a0     libcpmt:xthrow.obj
 0002:0000f9c0       _CTA2?AVbad_alloc@std@@    00000001800419c0     libcpmt:xthrow.obj
 0002:0000f9d8       _CT??_R0?AVbad_alloc@std@@@8??0bad_alloc@std@@QEAA@AEBV01@@Z24 00000001800419d8     libcpmt:xthrow.obj
 0002:0000fa00       _CT??_R0?AVexception@std@@@8??0exception@std@@QEAA@AEBV01@@Z24 0000000180041a00     libcpmt:xthrow.obj
 0002:0000fa28       _CT??_R0?AVlogic_error@std@@@8??0logic_error@std@@QEAA@AEBV01@@Z24 0000000180041a28     libcpmt:xthrow.obj
 0002:0000fa50       _TI3?AVlength_error@std@@  0000000180041a50     libcpmt:xthrow.obj
 0002:0000fa70       _CTA3?AVlength_error@std@@ 0000000180041a70     libcpmt:xthrow.obj
 0002:0000fa90       _CT??_R0?AVlength_error@std@@@8??0length_error@std@@QEAA@AEBV01@@Z24 0000000180041a90     libcpmt:xthrow.obj
 0002:0000fab8       _TI3?AVbad_array_new_length@std@@ 0000000180041ab8     LIBCMT:throw_bad_alloc.obj
 0002:0000fad8       _CTA3?AVbad_array_new_length@std@@ 0000000180041ad8     LIBCMT:throw_bad_alloc.obj
 0002:0000faf8       _CT??_R0?AVbad_array_new_length@std@@@8??0bad_array_new_length@std@@QEAA@AEBV01@@Z24 0000000180041af8     LIBCMT:throw_bad_alloc.obj
 0002:0000fb20       _TI2?AVbad_exception@std@@ 0000000180041b20     libvcruntime:frame.obj
 0002:0000fb40       _CTA2?AVbad_exception@std@@ 0000000180041b40     libvcruntime:frame.obj
 0002:0000fb58       _CT??_R0?AVbad_exception@std@@@8??0bad_exception@std@@QEAA@AEBV01@@Z24 0000000180041b58     libvcruntime:frame.obj
 0002:0000fb7c       __DELAY_IMPORT_DESCRIPTOR_node_exe 0000000180041b7c     node:node.exe
 0002:0000fb9c       __NULL_DELAY_IMPORT_DESCRIPTOR 0000000180041b9c     node:node.exe
 0002:0000fec8       \177node_NULL_THUNK_DATA_DLN 0000000180041ec8     node:node.exe
 0002:000117b8       \177node_NULL_THUNK_DATA_DLB 00000001800437b8     node:node.exe
 0002:00011b10       __IMPORT_DESCRIPTOR_KERNEL32 0000000180043b10     kernel32:KERNEL32.dll
 0002:00011b24       _head_C__msys64_mingw64_lib_libcairo_2_lib 0000000180043b24     libcairo-2:deqeh.o
 0002:00011b38       _head_C__msys64_mingw64_lib_libpng16_16_lib 0000000180043b38     libpng16-16:daofh.o
 0002:00011b4c       _head_C__msys64_mingw64_lib_libjpeg_8_lib 0000000180043b4c     libjpeg-8:dsfeh.o
 0002:00011b60       _head_C__msys64_mingw64_lib_libgif_7_lib 0000000180043b60     libgif-7:dmsch.o
 0002:00011b74       _head_C__msys64_mingw64_lib_libfreetype_6_lib 0000000180043b74     libfreetype-6:dwbbh.o
 0002:00011b88       __NULL_IMPORT_DESCRIPTOR   0000000180043b88     kernel32:KERNEL32.dll
 0002:000137ec       __C__msys64_mingw64_lib_libcairo_2_lib_iname 00000001800457ec     libcairo-2:deqet.o
 0002:00013844       __C__msys64_mingw64_lib_libpng16_16_lib_iname 0000000180045844     libpng16-16:daoft.o
 0002:0001389c       __C__msys64_mingw64_lib_libjpeg_8_lib_iname 000000018004589c     libjpeg-8:dsfet.o
 0002:000138b8       __C__msys64_mingw64_lib_libgif_7_lib_iname 00000001800458b8     libgif-7:dmsct.o
 0002:000138d4       __C__msys64_mingw64_lib_libfreetype_6_lib_iname 00000001800458d4     libfreetype-6:dwbbt.o
 0003:00000000       __scrt_native_dllmain_reason 0000000180046000     LIBCMT:utility.obj
 0003:00000008       __security_cookie          0000000180046008     LIBCMT:gs_cookie.obj
 0003:00000010       __security_cookie_complement 0000000180046010     LIBCMT:gs_cookie.obj
 0003:00000018       __isa_available            0000000180046018     LIBCMT:_cpu_disp_.obj
 0003:0000001c       __isa_enabled              000000018004601c     LIBCMT:_cpu_disp_.obj
 0003:00000020       __memcpy_nt_iters          0000000180046020     LIBCMT:_cpu_disp_.obj
 0003:00000040       _iob                       0000000180046040     libucrt:_file.obj
 0003:00000148       __abort_behavior           0000000180046148     libucrt:abort.obj
 0003:00000160       __badioinfo                0000000180046160     libucrt:ioinit.obj
 0003:000001a0       __acrt_initial_locale_data 00000001800461a0     libucrt:nlsdata.obj
 0003:000002f8       __acrt_initial_locale_pointers 00000001800462f8     libucrt:nlsdata.obj
 0003:00000308       __acrt_wide_c_locale_string 0000000180046308     libucrt:nlsdata.obj
 0003:00000310       _lookuptrailbytes          0000000180046310     libucrt:read.obj
 0003:00000410       __acrt_initial_multibyte_data 0000000180046410     libucrt:mbctype.obj
 0003:00000950       _pwctype                   0000000180046950     libucrt:ctype.obj
 0003:0000095c       __globallocalestatus       000000018004695c     libucrt:glstatus.obj
 0003:00000960       __acrt_lconv_c             0000000180046960     libucrt:localeconv.obj
 0003:000009f8       __acrt_lconv_static_decimal 00000001800469f8     libucrt:localeconv.obj
 0003:000009fc       __acrt_lconv_static_W_decimal 00000001800469fc     libucrt:localeconv.obj
 0003:00000ac0       _fltused                   0000000180046ac0     LIBCMT:fltused.obj
 0003:00000b10       ?_initLibrary@FontFace@@0_NA 0000000180046b10     FontFace.obj
 0003:00000b20       ??_R0?AVbad_alloc@std@@@8  0000000180046b20     libcpmt:xthrow.obj
 0003:00000b48       ??_R0?AVexception@std@@@8  0000000180046b48     libcpmt:xthrow.obj
 0003:00000b70       ??_R0?AVlogic_error@std@@@8 0000000180046b70     libcpmt:xthrow.obj
 0003:00000b98       ??_R0?AVlength_error@std@@@8 0000000180046b98     libcpmt:xthrow.obj
 0003:00000bc0       ??_R0?AVtype_info@@@8      0000000180046bc0     LIBCMT:std_type_info_static.obj
 0003:00000be0       ??_R0?AVbad_array_new_length@std@@@8 0000000180046be0     LIBCMT:throw_bad_alloc.obj
 0003:00000c10       ??_R0?AVbad_exception@std@@@8 0000000180046c10     libvcruntime:frame.obj
 0003:00000c38       __imp_uv_queue_work        0000000180046c38     node:node.exe
 0003:00000c40       __imp_?Global@Context@v8@@QEAA?AV?$Local@VObject@v8@@@2@XZ 0000000180046c40     node:node.exe
 0003:00000c48       __imp_?Value@External@v8@@QEBAPEAXXZ 0000000180046c48     node:node.exe
 0003:00000c50       __imp_?New@External@v8@@SA?AV?$Local@VExternal@v8@@@2@PEAVIsolate@2@PEAX@Z 0000000180046c50     node:node.exe
 0003:00000c58       __imp_?NewFromUnsigned@Integer@v8@@SA?AV?$Local@VInteger@v8@@@2@PEAVIsolate@2@I@Z 0000000180046c58     node:node.exe
 0003:00000c60       __imp_?New@Signature@v8@@SA?AV?$Local@VSignature@v8@@@2@PEAVIsolate@2@V?$Local@VFunctionTemplate@v8@@@2@@Z 0000000180046c60     node:node.exe
 0003:00000c68       __imp_?CheckMemoryPressure@Isolate@v8@@AEAAXXZ 0000000180046c68     node:node.exe
 0003:00000c70       __imp_?ReportExternalAllocationLimitReached@Isolate@v8@@AEAAXXZ 0000000180046c70     node:node.exe
 0003:00000c78       __imp_?ThrowException@Isolate@v8@@QEAA?AV?$Local@VValue@v8@@@2@V32@@Z 0000000180046c78     node:node.exe
 0003:00000c80       __imp_?GetCurrentContext@Isolate@v8@@QEAA?AV?$Local@VContext@v8@@@2@XZ 0000000180046c80     node:node.exe
 0003:00000c88       __imp_?GetCurrent@Isolate@v8@@SAPEAV12@XZ 0000000180046c88     node:node.exe
 0003:00000c90       __imp_?CreateHandle@HandleScope@v8@@KAPEAPEAVObject@internal@2@PEAVIsolate@42@PEAV342@@Z 0000000180046c90     node:node.exe
 0003:00000c98       __imp_?CreateHandle@HandleScope@v8@@CAPEAPEAVObject@internal@2@PEAVHeapObject@42@PEAV342@@Z 0000000180046c98     node:node.exe
 0003:00000ca0       __imp_??1HandleScope@v8@@QEAA@XZ 0000000180046ca0     node:node.exe
 0003:00000ca8       __imp_??0HandleScope@v8@@QEAA@PEAVIsolate@1@@Z 0000000180046ca8     node:node.exe
 0003:00000cb0       __imp_?Set@Template@v8@@QEAAXV?$Local@VName@v8@@@2@V?$Local@VData@v8@@@2@W4PropertyAttribute@2@@Z 0000000180046cb0     node:node.exe
 0003:00000cb8       __imp_?Error@Exception@v8@@SA?AV?$Local@VValue@v8@@@2@V?$Local@VString@v8@@@2@@Z 0000000180046cb8     node:node.exe
 0003:00000cc0       __imp_?TypeError@Exception@v8@@SA?AV?$Local@VValue@v8@@@2@V?$Local@VString@v8@@@2@@Z 0000000180046cc0     node:node.exe
 0003:00000cc8       __imp_?RangeError@Exception@v8@@SA?AV?$Local@VValue@v8@@@2@V?$Local@VString@v8@@@2@@Z 0000000180046cc8     node:node.exe
 0003:00000cd0       __imp_?SetClassName@FunctionTemplate@v8@@QEAAXV?$Local@VString@v8@@@2@@Z 0000000180046cd0     node:node.exe
 0003:00000cd8       __imp_?PrototypeTemplate@FunctionTemplate@v8@@QEAA?AV?$Local@VObjectTemplate@v8@@@2@XZ 0000000180046cd8     node:node.exe
 0003:00000ce0       __imp_?InstanceTemplate@FunctionTemplate@v8@@QEAA?AV?$Local@VObjectTemplate@v8@@@2@XZ 0000000180046ce0     node:node.exe
 0003:00000ce8       __imp_?GetFunction@FunctionTemplate@v8@@QEAA?AV?$Local@VFunction@v8@@@2@XZ 0000000180046ce8     node:node.exe
 0003:00000cf0       __imp_?New@FunctionTemplate@v8@@SA?AV?$Local@VFunctionTemplate@v8@@@2@PEAVIsolate@2@P6AXAEBV?$FunctionCallbackInfo@VValue@v8@@@2@@ZV?$Local@VValue@v8@@@2@V?$Local@VSignature@v8@@@2@HW4ConstructorBehavior@2@W4SideEffectType@2@@Z 0000000180046cf0     node:node.exe
 0003:00000cf8       __imp_?ToLocalEmpty@V8@v8@@CAXXZ 0000000180046cf8     node:node.exe
 0003:00000d00       __imp_?ClearWeak@V8@v8@@CAPEAXPEAPEAVObject@internal@2@@Z 0000000180046d00     node:node.exe
 0003:00000d08       __imp_?MakeWeak@V8@v8@@CAXPEAPEAVObject@internal@2@PEAXP6AXAEBV?$WeakCallbackInfo@X@2@@ZW4WeakCallbackType@2@@Z 0000000180046d08     node:node.exe
 0003:00000d10       __imp_?DisposeGlobal@V8@v8@@CAXPEAPEAVObject@internal@2@@Z 0000000180046d10     node:node.exe
 0003:00000d18       __imp_?GlobalizeReference@V8@v8@@CAPEAPEAVObject@internal@2@PEAVIsolate@42@PEAPEAV342@@Z 0000000180046d18     node:node.exe
 0003:00000d20       __imp_?StrictEquals@Value@v8@@QEBA_NV?$Local@VValue@v8@@@2@@Z 0000000180046d20     node:node.exe
 0003:00000d28       __imp_?Uint32Value@Value@v8@@QEBAIXZ 0000000180046d28     node:node.exe
 0003:00000d30       __imp_?NumberValue@Value@v8@@QEBANXZ 0000000180046d30     node:node.exe
 0003:00000d38       __imp_?BooleanValue@Value@v8@@QEBA_NXZ 0000000180046d38     node:node.exe
 0003:00000d40       __imp_?ToUint32@Value@v8@@QEBA?AV?$MaybeLocal@VUint32@v8@@@2@V?$Local@VContext@v8@@@2@@Z 0000000180046d40     node:node.exe
 0003:00000d48       __imp_?IsUint32@Value@v8@@QEBA_NXZ 0000000180046d48     node:node.exe
 0003:00000d50       __imp_?IsNumber@Value@v8@@QEBA_NXZ 0000000180046d50     node:node.exe
 0003:00000d58       __imp_?IsBoolean@Value@v8@@QEBA_NXZ 0000000180046d58     node:node.exe
 0003:00000d60       __imp_?IsFunction@Value@v8@@QEBA_NXZ 0000000180046d60     node:node.exe
 0003:00000d68       __imp_?ReThrow@TryCatch@v8@@QEAA?AV?$Local@VValue@v8@@@2@XZ 0000000180046d68     node:node.exe
 0003:00000d70       __imp_?HasCaught@TryCatch@v8@@QEBA_NXZ 0000000180046d70     node:node.exe
 0003:00000d78       __imp_??1TryCatch@v8@@QEAA@XZ 0000000180046d78     node:node.exe
 0003:00000d80       __imp_??0TryCatch@v8@@QEAA@PEAVIsolate@1@@Z 0000000180046d80     node:node.exe
 0003:00000d88       __imp_?Escape@EscapableHandleScope@v8@@AEAAPEAPEAVObject@internal@2@PEAPEAV342@@Z 0000000180046d88     node:node.exe
 0003:00000d90       __imp_??0EscapableHandleScope@v8@@QEAA@PEAVIsolate@1@@Z 0000000180046d90     node:node.exe
 0003:00000d98       __imp_??1Utf8Value@String@v8@@QEAA@XZ 0000000180046d98     node:node.exe
 0003:00000da0       __imp_??0Utf8Value@String@v8@@QEAA@V?$Local@VValue@v8@@@2@@Z 0000000180046da0     node:node.exe
 0003:00000da8       __imp_?NewFromUtf8@String@v8@@SA?AV?$MaybeLocal@VString@v8@@@2@PEAVIsolate@2@PEBDW4NewStringType@2@H@Z 0000000180046da8     node:node.exe
 0003:00000db0       __imp_?New@Number@v8@@SA?AV?$Local@VNumber@v8@@@2@PEAVIsolate@2@N@Z 0000000180046db0     node:node.exe
 0003:00000db8       __imp_?SlowGetAlignedPointerFromInternalField@Object@v8@@AEAAPEAXH@Z 0000000180046db8     node:node.exe
 0003:00000dc0       __imp_?SlowGetInternalField@Object@v8@@AEAA?AV?$Local@VValue@v8@@@2@H@Z 0000000180046dc0     node:node.exe
 0003:00000dc8       __imp_?New@Object@v8@@SA?AV?$Local@VObject@v8@@@2@PEAVIsolate@2@@Z 0000000180046dc8     node:node.exe
 0003:00000dd0       __imp_?SetAlignedPointerInInternalField@Object@v8@@QEAAXHPEAX@Z 0000000180046dd0     node:node.exe
 0003:00000dd8       __imp_?SetInternalField@Object@v8@@QEAAXHV?$Local@VValue@v8@@@2@@Z 0000000180046dd8     node:node.exe
 0003:00000de0       __imp_?InternalFieldCount@Object@v8@@QEAAHXZ 0000000180046de0     node:node.exe
 0003:00000de8       __imp_?Get@Object@v8@@QEAA?AV?$Local@VValue@v8@@@2@V32@@Z 0000000180046de8     node:node.exe
 0003:00000df0       __imp_?Set@Object@v8@@QEAA?AV?$Maybe@_N@2@V?$Local@VContext@v8@@@2@V?$Local@VValue@v8@@@2@1@Z 0000000180046df0     node:node.exe
 0003:00000df8       __imp_?Call@Function@v8@@QEAA?AV?$MaybeLocal@VValue@v8@@@2@V?$Local@VContext@v8@@@2@V?$Local@VValue@v8@@@2@HQEAV52@@Z 0000000180046df8     node:node.exe
 0003:00000e00       __imp_?SetInternalFieldCount@ObjectTemplate@v8@@QEAAXH@Z 0000000180046e00     node:node.exe
 0003:00000e08       __imp_?SetAccessor@ObjectTemplate@v8@@QEAAXV?$Local@VName@v8@@@2@P6AX0AEBV?$PropertyCallbackInfo@VValue@v8@@@2@@ZP6AX0V?$Local@VValue@v8@@@2@AEBV?$PropertyCallbackInfo@X@2@@Z3W4AccessControl@2@W4PropertyAttribute@2@V?$Local@VAccessorSignature@v8@@@2@@Z 0000000180046e08     node:node.exe
 0003:00000e10       __imp_?NewInstance@ObjectTemplate@v8@@QEAA?AV?$MaybeLocal@VObject@v8@@@2@V?$Local@VContext@v8@@@2@@Z 0000000180046e10     node:node.exe
 0003:00000e18       __imp_?New@ObjectTemplate@v8@@SA?AV?$Local@VObjectTemplate@v8@@@2@PEAVIsolate@2@V?$Local@VFunctionTemplate@v8@@@2@@Z 0000000180046e18     node:node.exe
 0003:00000e20       __imp_?EmitAsyncDestroy@node@@YAXPEAVIsolate@v8@@Uasync_context@1@@Z 0000000180046e20     node:node.exe
 0003:00000e28       __imp_?New@Buffer@node@@YA?AV?$MaybeLocal@VObject@v8@@@v8@@PEAVIsolate@4@PEAD_KP6AX1PEAX@Z3@Z 0000000180046e28     node:node.exe
 0003:00000e30       __imp_?New@Buffer@node@@YA?AV?$MaybeLocal@VObject@v8@@@v8@@PEAVIsolate@4@PEAD_K@Z 0000000180046e30     node:node.exe
 0003:00000e38       __imp_?Data@Buffer@node@@YAPEADV?$Local@VObject@v8@@@v8@@@Z 0000000180046e38     node:node.exe
 0003:00000e40       __imp_?Copy@Buffer@node@@YA?AV?$MaybeLocal@VObject@v8@@@v8@@PEAVIsolate@4@PEBD_K@Z 0000000180046e40     node:node.exe
 0003:00000e48       __imp_?MakeCallback@node@@YA?AV?$MaybeLocal@VValue@v8@@@v8@@PEAVIsolate@3@V?$Local@VObject@v8@@@3@V?$Local@VFunction@v8@@@3@HPEAV?$Local@VValue@v8@@@3@Uasync_context@1@@Z 0000000180046e48     node:node.exe
 0003:00000e50       __imp_?EmitAsyncInit@node@@YA?AUasync_context@1@PEAVIsolate@v8@@V?$Local@VObject@v8@@@4@V?$Local@VString@v8@@@4@N@Z 0000000180046e50     node:node.exe
 0003:00000e58       __imp_uv_default_loop      0000000180046e58     node:node.exe
 0003:00000e60       __imp_?ToObject@Value@v8@@QEBA?AV?$Local@VObject@v8@@@2@XZ 0000000180046e60     node:node.exe
 0003:00000e68       __imp_??1EscapableHandleScope@v8@@QEAA@XZ 0000000180046e68     node:node.exe
 0003:00000e70       __imp_?HasInstance@FunctionTemplate@v8@@QEAA_NV?$Local@VValue@v8@@@2@@Z 0000000180046e70     node:node.exe
 0003:00000e78       __imp_?New@Uint8ClampedArray@v8@@SA?AV?$Local@VUint8ClampedArray@v8@@@2@V?$Local@VArrayBuffer@v8@@@2@_K1@Z 0000000180046e78     node:node.exe
 0003:00000e80       __imp_?New@Integer@v8@@SA?AV?$Local@VInteger@v8@@@2@PEAVIsolate@2@H@Z 0000000180046e80     node:node.exe
 0003:00000e88       __imp_?ByteLength@ArrayBufferView@v8@@QEAA_KXZ 0000000180046e88     node:node.exe
 0003:00000e90       __imp_?ByteOffset@ArrayBufferView@v8@@QEAA_KXZ 0000000180046e90     node:node.exe
 0003:00000e98       __imp_?Buffer@ArrayBufferView@v8@@QEAA?AV?$Local@VArrayBuffer@v8@@@2@XZ 0000000180046e98     node:node.exe
 0003:00000ea0       __imp_?New@Array@v8@@SA?AV?$Local@VArray@v8@@@2@PEAVIsolate@2@H@Z 0000000180046ea0     node:node.exe
 0003:00000ea8       __imp_?Length@Array@v8@@QEBAIXZ 0000000180046ea8     node:node.exe
 0003:00000eb0       __imp_?GetFunction@FunctionTemplate@v8@@QEAA?AV?$MaybeLocal@VFunction@v8@@@2@V?$Local@VContext@v8@@@2@@Z 0000000180046eb0     node:node.exe
 0003:00000eb8       __imp_?GetContents@ArrayBuffer@v8@@QEAA?AVContents@12@XZ 0000000180046eb8     node:node.exe
 0003:00000ec0       __imp_?New@ArrayBuffer@v8@@SA?AV?$Local@VArrayBuffer@v8@@@2@PEAVIsolate@2@_K@Z 0000000180046ec0     node:node.exe
 0003:00000ec8       __imp_?Int32Value@Value@v8@@QEBAHXZ 0000000180046ec8     node:node.exe
 0003:00000ed0       __imp_?ToInt32@Value@v8@@QEBA?AV?$MaybeLocal@VInt32@v8@@@2@V?$Local@VContext@v8@@@2@@Z 0000000180046ed0     node:node.exe
 0003:00000ed8       __imp_?IsArrayBufferView@Value@v8@@QEBA_NXZ 0000000180046ed8     node:node.exe
 0003:00000ee0       __imp_?IsInt32@Value@v8@@QEBA_NXZ 0000000180046ee0     node:node.exe
 0003:00000ee8       __imp_?IsObject@Value@v8@@QEBA_NXZ 0000000180046ee8     node:node.exe
 0003:00000ef0       __imp_?IsArray@Value@v8@@QEBA_NXZ 0000000180046ef0     node:node.exe
 0003:00000ef8       __imp_?Get@Object@v8@@QEAA?AV?$Local@VValue@v8@@@2@I@Z 0000000180046ef8     node:node.exe
 0003:00000f00       __imp_?Set@Object@v8@@QEAA_NV?$Local@VValue@v8@@@2@0@Z 0000000180046f00     node:node.exe
 0003:00000f08       __imp_?NewInstance@Function@v8@@QEBA?AV?$MaybeLocal@VObject@v8@@@2@V?$Local@VContext@v8@@@2@HQEAV?$Local@VValue@v8@@@2@@Z 0000000180046f08     node:node.exe
 0003:00000f10       __imp_?ToString@Value@v8@@QEBA?AV?$Local@VString@v8@@@2@XZ 0000000180046f10     node:node.exe
 0003:00000f18       __imp_?HasInstance@Buffer@node@@YA_NV?$Local@VValue@v8@@@v8@@@Z 0000000180046f18     node:node.exe
 0003:00000f20       __imp_?Length@Buffer@node@@YA_KV?$Local@VObject@v8@@@v8@@@Z 0000000180046f20     node:node.exe
 0003:00000f28       __imp_?Length@TypedArray@v8@@QEAA_KXZ 0000000180046f28     node:node.exe
 0003:00000f30       __imp_?IsUint8ClampedArray@Value@v8@@QEBA_NXZ 0000000180046f30     node:node.exe
 0003:00000f38       __imp_node_module_register 0000000180046f38     node:node.exe
 0003:00000f40       \177node_NULL_THUNK_DATA_DLA 0000000180046f40     node:node.exe
 0003:00000f50       __hmod__node_exe           0000000180046f50     node:node.exe
 0003:00000f94       __scrt_current_native_startup_state 0000000180046f94     LIBCMT:utility.obj
 0003:00000f98       __scrt_native_startup_lock 0000000180046f98     LIBCMT:utility.obj
 0003:00001520       __favor                    0000000180047520     LIBCMT:_cpu_disp_.obj
 0003:00001524       __scrt_debugger_hook_flag  0000000180047524     LIBCMT:utility_desktop.obj
 0003:00001530       ?__type_info_root_node@@3U__type_info_node@@A 0000000180047530     LIBCMT:tncleanup.obj
 0003:00001540       ?_OptionsStorage@?1??__local_stdio_scanf_options@@9@4_KA 0000000180047540     LIBCMT:default_local_stdio_options.obj
 0003:00001548       ?__WinRTOutOfMemoryExceptionCallback@@3P6APEAXXZEA 0000000180047548     libvcruntime:ehhelpers.obj
 0003:00001638       __pPurecall                0000000180047638     libvcruntime:purevirt_data.obj
 0003:00001640       ?pArgList@UnDecorator@@0PEAVReplicator@@EA 0000000180047640     libvcruntime:undname.obj
 0003:00001648       ?pZNameList@UnDecorator@@0PEAVReplicator@@EA 0000000180047648     libvcruntime:undname.obj
 0003:00001650       ?pTemplateArgList@UnDecorator@@0PEAVReplicator@@EA 0000000180047650     libvcruntime:undname.obj
 0003:00001658       ?gName@UnDecorator@@0PEBDEB 0000000180047658     libvcruntime:undname.obj
 0003:00001660       ?name@UnDecorator@@0PEBDEB 0000000180047660     libvcruntime:undname.obj
 0003:00001668       ?disableFlags@UnDecorator@@0KA 0000000180047668     libvcruntime:undname.obj
 0003:0000166c       ?fExplicitTemplateParams@UnDecorator@@0_NA 000000018004766c     libvcruntime:undname.obj
 0003:0000166d       ?fGetTemplateArgumentList@UnDecorator@@0_NA 000000018004766d     libvcruntime:undname.obj
 0003:00001670       ?m_pGetParameter@UnDecorator@@0P6APEADJ@ZEA 0000000180047670     libvcruntime:undname.obj
 0003:00001678       ?m_CHPENameOffset@UnDecorator@@0KA 0000000180047678     libvcruntime:undname.obj
 0003:0000167c       ?m_recursionLevel@UnDecorator@@0KA 000000018004767c     libvcruntime:undname.obj
 0003:000016b0       _nstream                   00000001800476b0     libucrt:_file.obj
 0003:000016b8       __piob                     00000001800476b8     libucrt:_file.obj
 0003:000016c0       _cflush                    00000001800476c0     libucrt:_file.obj
 0003:000016e0       ?c_exit_complete@?1???R<lambda_6e4b09c48022b2350581041d5f6b0c4c>@@QEBA@XZ@4_NA 00000001800476e0     libucrt:exit.obj
 0003:000017f8       _environ_table             00000001800477f8     libucrt:environment_initialization.obj
 0003:00001800       _wenviron_table            0000000180047800     libucrt:environment_initialization.obj
 0003:00001808       __dcrt_initial_wide_environment 0000000180047808     libucrt:environment_initialization.obj
 0003:00001810       __dcrt_initial_narrow_environment 0000000180047810     libucrt:environment_initialization.obj
 0003:00001818       __acrt_atexit_table        0000000180047818     libucrt:onexit.obj
 0003:00001830       __acrt_at_quick_exit_table 0000000180047830     libucrt:onexit.obj
 0003:00001a20       __pioinfo                  0000000180047a20     libucrt:ioinit.obj
 0003:00001e20       _nhandle                   0000000180047e20     libucrt:ioinit.obj
 0003:00001e30       __acrt_stdout_buffer       0000000180047e30     libucrt:_sftbuf.obj
 0003:00001e38       __acrt_stderr_buffer       0000000180047e38     libucrt:_sftbuf.obj
 0003:00001e40       __acrt_locale_changed_data 0000000180047e40     libucrt:wsetlocale.obj
 0003:00001e48       __acrt_current_locale_data 0000000180047e48     libucrt:nlsdata.obj
 0003:00002090       __acrt_current_multibyte_data 0000000180048090     libucrt:mbctype.obj
 0003:00002098       _mbctype                   0000000180048098     libucrt:mbctype.obj
 0003:000020a0       _mbcasemap                 00000001800480a0     libucrt:mbctype.obj
 0003:000020b0       __argc                     00000001800480b0     libucrt:argv_data.obj
 0003:000020b8       __argv                     00000001800480b8     libucrt:argv_data.obj
 0003:000020c0       __wargv                    00000001800480c0     libucrt:argv_data.obj
 0003:000020c8       _acmdln                    00000001800480c8     libucrt:argv_data.obj
 0003:000020d0       _wcmdln                    00000001800480d0     libucrt:argv_data.obj
 0003:000020d8       _pgmptr                    00000001800480d8     libucrt:argv_data.obj
 0003:000020e0       __acrt_heap                00000001800480e0     libucrt:heap_handle.obj
 0003:000020f4       __acrt_lconv_static_null   00000001800480f4     libucrt:localeconv.obj
 0003:000020f8       __acrt_lconv_static_W_null 00000001800480f8     libucrt:localeconv.obj
 0003:000020fc       _commode                   00000001800480fc     libucrt:ncommode.obj
 0003:00002100       ?_timezone@@3V?$dual_state_global@J@__crt_state_management@@A 0000000180048100     libucrt:timeset.obj
 0003:00002104       ?_daylight@@3V?$dual_state_global@H@__crt_state_management@@A 0000000180048104     libucrt:timeset.obj
 0003:00002108       ?_dstbias@@3V?$dual_state_global@J@__crt_state_management@@A 0000000180048108     libucrt:timeset.obj
 0003:000021e0       _umaskval                  00000001800481e0     libucrt:umask.obj
 0003:000021e4       __fma3_is_available        00000001800481e4     libucrt:fma3_available.obj
 0003:000021e8       __use_fma3_lib             00000001800481e8     libucrt:fma3_available.obj
 0003:000021ec       _fmode                     00000001800481ec     libucrt:txtmode.obj
 0003:000021f0       ?DloadKernel32@@3PEAUHINSTANCE__@@EA 00000001800481f0     DelayImp:delayhlp.obj
 0003:000021f8       ?DloadAcquireSRWLockExclusive@@3P6AXPEA_K@ZEA 00000001800481f8     DelayImp:delayhlp.obj
 0003:00002200       ?DloadReleaseSRWLockExclusive@@3P6AXPEA_K@ZEA 0000000180048200     DelayImp:delayhlp.obj
 0003:00002208       ?DloadSrwLock@@3_KA        0000000180048208     DelayImp:delayhlp.obj
 0003:00002210       ?DloadSectionLockCount@@3KA 0000000180048210     DelayImp:delayhlp.obj
 0003:00002214       ?DloadSectionOldProtection@@3KA 0000000180048214     DelayImp:delayhlp.obj
 0003:00002218       ?DloadSectionCommitPermanent@@3KA 0000000180048218     DelayImp:delayhlp.obj
 0003:00002220       ?_OptionsStorage@?1??__local_stdio_printf_options@@9@4_KA 0000000180048220     color.obj
 0003:00002228       ?library@@3PEAUFT_LibraryRec_@@EA 0000000180048228     FontFace.obj
 0003:00002230       ?constructor@Canvas@@2V?$Persistent@VFunctionTemplate@v8@@V?$NonCopyablePersistentTraits@VFunctionTemplate@v8@@@2@@Nan@@A 0000000180048230     Canvas.obj
 0003:00002238       ?constructor@Gradient@@2V?$Persistent@VFunctionTemplate@v8@@V?$NonCopyablePersistentTraits@VFunctionTemplate@v8@@@2@@Nan@@A 0000000180048238     CanvasGradient.obj
 0003:00002240       ?constructor@Pattern@@2V?$Persistent@VFunctionTemplate@v8@@V?$NonCopyablePersistentTraits@VFunctionTemplate@v8@@@2@@Nan@@A 0000000180048240     CanvasPattern.obj
 0003:00002248       ?constructor@Context2d@@2V?$Persistent@VFunctionTemplate@v8@@V?$NonCopyablePersistentTraits@VFunctionTemplate@v8@@@2@@Nan@@A 0000000180048248     CanvasRenderingContext2d.obj
 0003:00002250       ?constructor@Image@@2V?$Persistent@VFunctionTemplate@v8@@V?$NonCopyablePersistentTraits@VFunctionTemplate@v8@@@2@@Nan@@A 0000000180048250     Image.obj
 0003:00002258       ?constructor@ImageData@@2V?$Persistent@VFunctionTemplate@v8@@V?$NonCopyablePersistentTraits@VFunctionTemplate@v8@@@2@@Nan@@A 0000000180048258     ImageData.obj
 0003:00002260       ?constructor@FontFace@@2V?$Persistent@VFunctionTemplate@v8@@V?$NonCopyablePersistentTraits@VFunctionTemplate@v8@@@2@@Nan@@A 0000000180048260     FontFace.obj
 0003:00002270       __dyn_tls_init_callback    0000000180048270     <common>
 0003:00002278       __scrt_ucrt_dll_is_in_use  0000000180048278     <common>

 entry point at        0001:0001355c

 Static symbols

 0000:fffb2000       .debug$S                   0000000180000000     kernel32:KERNEL32.dll
 0000:fffb2000       .debug$S                   0000000180000000     node:node.exe
 0000:fffb2000       .debug$S                   0000000180000000     kernel32:KERNEL32.dll
 0000:fffb2000       .debug$S                   0000000180000000     node:node.exe
 0000:fffb2000       .debug$S                   0000000180000000     node:node.exe
 0000:fffb2000       .debug$S                   0000000180000000     node:node.exe
 0000:fffb2000       .debug$S                   0000000180000000     node:node.exe
 0000:fffb2000       .debug$S                   0000000180000000     node:node.exe
 0000:fffb2000       .debug$S                   0000000180000000     node:node.exe
 0000:fffb2000       .debug$S                   0000000180000000     node:node.exe
 0000:fffb2000       .debug$S                   0000000180000000     node:node.exe
 0000:fffb2000       .debug$S                   0000000180000000     node:node.exe
 0000:fffb2000       .debug$S                   0000000180000000     node:node.exe
 0000:fffb2000       .debug$S                   0000000180000000     node:node.exe
 0000:fffb2000       .debug$S                   0000000180000000     node:node.exe
 0000:fffb2000       .debug$S                   0000000180000000     node:node.exe
 0000:fffb2000       .debug$S                   0000000180000000     node:node.exe
 0000:fffb2000       .debug$S                   0000000180000000     node:node.exe
 0000:fffb2000       .debug$S                   0000000180000000     node:node.exe
 0000:fffb2000       .debug$S                   0000000180000000     node:node.exe
 0000:fffb2000       .debug$S                   0000000180000000     node:node.exe
 0000:fffb2000       .debug$S                   0000000180000000     node:node.exe
 0000:fffb2000       .debug$S                   0000000180000000     node:node.exe
 0000:fffb2000       .debug$S                   0000000180000000     node:node.exe
 0000:fffb2000       .debug$S                   0000000180000000     node:node.exe
 0000:fffb2000       .debug$S                   0000000180000000     node:node.exe
 0000:fffb2000       .debug$S                   0000000180000000     node:node.exe
 0000:fffb2000       .debug$S                   0000000180000000     node:node.exe
 0000:fffb2000       .debug$S                   0000000180000000     node:node.exe
 0000:fffb2000       .debug$S                   0000000180000000     node:node.exe
 0000:fffb2000       .debug$S                   0000000180000000     node:node.exe
 0000:fffb2000       .debug$S                   0000000180000000     node:node.exe
 0000:fffb2000       .debug$S                   0000000180000000     node:node.exe
 0000:fffb2000       .debug$S                   0000000180000000     node:node.exe
 0000:fffb2000       .debug$S                   0000000180000000     node:node.exe
 0000:fffb2000       .debug$S                   0000000180000000     node:node.exe
 0000:fffb2000       .debug$S                   0000000180000000     node:node.exe
 0000:fffb2000       .debug$S                   0000000180000000     kernel32:KERNEL32.dll
 0000:fffb2000       .debug$S                   0000000180000000     node:node.exe
 0000:fffb2000       .debug$S                   0000000180000000     node:node.exe
 0000:fffb2000       .debug$S                   0000000180000000     node:node.exe
 0000:fffb2000       .debug$S                   0000000180000000     node:node.exe
 0000:fffb2000       .debug$S                   0000000180000000     node:node.exe
 0000:fffb2000       .debug$S                   0000000180000000     node:node.exe
 0000:fffb2000       .debug$S                   0000000180000000     node:node.exe
 0000:fffb2000       .debug$S                   0000000180000000     node:node.exe
 0000:fffb2000       .debug$S                   0000000180000000     node:node.exe
 0000:fffb2000       .debug$S                   0000000180000000     node:node.exe
 0000:fffb2000       .debug$S                   0000000180000000     node:node.exe
 0000:fffb2000       .debug$S                   0000000180000000     node:node.exe
 0000:fffb2000       .debug$S                   0000000180000000     node:node.exe
 0000:fffb2000       .debug$S                   0000000180000000     kernel32:KERNEL32.dll
 0000:fffb2000       .debug$S                   0000000180000000     node:node.exe
 0000:fffb2000       .debug$S                   0000000180000000     kernel32:KERNEL32.dll
 0000:fffb2000       .debug$S                   0000000180000000     kernel32:KERNEL32.dll
 0000:fffb2000       .debug$S                   0000000180000000     node:node.exe
 0000:fffb2000       .debug$S                   0000000180000000     node:node.exe
 0000:fffb2000       .debug$S                   0000000180000000     node:node.exe
 0000:fffb2000       .debug$S                   0000000180000000     node:node.exe
 0000:fffb2000       .debug$S                   0000000180000000     node:node.exe
 0000:fffb2000       .debug$S                   0000000180000000     node:node.exe
 0000:fffb2000       .debug$S                   0000000180000000     node:node.exe
 0000:fffb2000       .debug$S                   0000000180000000     node:node.exe
 0000:fffb2000       .debug$S                   0000000180000000     node:node.exe
 0000:fffb2000       .debug$S                   0000000180000000     node:node.exe
 0000:fffb2000       .debug$S                   0000000180000000     node:node.exe
 0000:fffb2000       .debug$S                   0000000180000000     node:node.exe
 0000:fffb2000       .debug$S                   0000000180000000     node:node.exe
 0000:fffb2000       .debug$S                   0000000180000000     node:node.exe
 0000:fffb2000       .debug$S                   0000000180000000     node:node.exe
 0000:fffb2000       .debug$S                   0000000180000000     node:node.exe
 0000:fffb2000       .debug$S                   0000000180000000     node:node.exe
 0000:fffb2000       .debug$S                   0000000180000000     node:node.exe
 0000:fffb2000       .debug$S                   0000000180000000     node:node.exe
 0000:fffb2000       .debug$S                   0000000180000000     node:node.exe
 0000:fffb2000       .debug$S                   0000000180000000     node:node.exe
 0000:fffb2000       .debug$S                   0000000180000000     node:node.exe
 0000:fffb2000       .debug$S                   0000000180000000     node:node.exe
 0000:fffb2000       .debug$S                   0000000180000000     node:node.exe
 0000:fffb2000       .debug$S                   0000000180000000     node:node.exe
 0000:fffb2000       .debug$S                   0000000180000000     node:node.exe
 0000:fffb2000       .debug$S                   0000000180000000     node:node.exe
 0000:fffb2000       .debug$S                   0000000180000000     node:node.exe
 0000:fffb2000       .debug$S                   0000000180000000     node:node.exe
 0000:fffb2000       .debug$S                   0000000180000000     node:node.exe
 0000:fffb2000       .debug$S                   0000000180000000     node:node.exe
 0000:fffb2000       .debug$S                   0000000180000000     node:node.exe
 0000:fffb2000       .debug$S                   0000000180000000     node:node.exe
 0000:fffb2000       .debug$S                   0000000180000000     node:node.exe
 0000:fffb2000       .debug$S                   0000000180000000     kernel32:KERNEL32.dll
 0000:fffb2000       .debug$S                   0000000180000000     node:node.exe
 0000:fffb2000       .debug$S                   0000000180000000     node:node.exe
 0000:fffb2000       .debug$S                   0000000180000000     node:node.exe
 0000:fffb2000       .debug$S                   0000000180000000     node:node.exe
 0000:fffb2000       .debug$S                   0000000180000000     node:node.exe
 0000:fffb2000       .debug$S                   0000000180000000     node:node.exe
 0000:fffb2000       .debug$S                   0000000180000000     node:node.exe
 0000:fffb2000       .debug$S                   0000000180000000     node:node.exe
 0000:fffb2000       .debug$S                   0000000180000000     node:node.exe
 0000:fffb2000       .debug$S                   0000000180000000     kernel32:KERNEL32.dll
 0000:fffb2000       .debug$S                   0000000180000000     node:node.exe
 0000:fffb2000       .debug$S                   0000000180000000     node:node.exe
 0000:fffb2000       .debug$S                   0000000180000000     node:node.exe
 0000:fffb2000       .debug$S                   0000000180000000     node:node.exe
 0000:fffb2000       .debug$S                   0000000180000000     node:node.exe
 0000:fffb2000       .debug$S                   0000000180000000     kernel32:KERNEL32.dll
 0000:fffb2000       .debug$S                   0000000180000000     node:node.exe
 0000:fffb2000       .debug$S                   0000000180000000     node:node.exe
 0000:fffb2000       .debug$S                   0000000180000000     node:node.exe
 0000:fffb2000       .debug$S                   0000000180000000     node:node.exe
 0000:fffb2000       .debug$S                   0000000180000000     node:node.exe
 0000:fffb2000       .debug$S                   0000000180000000     node:node.exe
 0000:fffb2000       .debug$S                   0000000180000000     node:node.exe
 0000:fffb2000       .debug$S                   0000000180000000     node:node.exe
 0000:fffb2000       .debug$S                   0000000180000000     node:node.exe
 0000:fffb2000       .debug$S                   0000000180000000     node:node.exe
 0000:fffb2000       .debug$S                   0000000180000000     node:node.exe
 0000:fffb2000       .debug$S                   0000000180000000     node:node.exe
 0000:fffb2000       .debug$S                   0000000180000000     kernel32:KERNEL32.dll
 0000:fffb2000       .debug$S                   0000000180000000     kernel32:KERNEL32.dll
 0000:fffb2000       .debug$S                   0000000180000000     kernel32:KERNEL32.dll
 0000:fffb2000       .debug$S                   0000000180000000     node:node.exe
 0000:fffb2000       .debug$S                   0000000180000000     node:node.exe
 0000:fffb2000       .debug$S                   0000000180000000     node:node.exe
 0000:fffb2000       .debug$S                   0000000180000000     node:node.exe
 0000:fffb2000       .debug$S                   0000000180000000     node:node.exe
 0000:fffb2000       .debug$S                   0000000180000000     kernel32:KERNEL32.dll
 0000:fffb2000       .debug$S                   0000000180000000     kernel32:KERNEL32.dll
 0000:fffb2000       .debug$S                   0000000180000000     kernel32:KERNEL32.dll
 0000:fffb2000       .debug$S                   0000000180000000     node:node.exe
 0000:fffb2000       .debug$S                   0000000180000000     node:node.exe
 0000:fffb2000       .debug$S                   0000000180000000     node:node.exe
 0000:fffb2000       .debug$S                   0000000180000000     kernel32:KERNEL32.dll
 0000:fffb2000       .debug$S                   0000000180000000     kernel32:KERNEL32.dll
 0000:fffb2000       .debug$S                   0000000180000000     kernel32:KERNEL32.dll
 0000:fffb2000       .debug$S                   0000000180000000     kernel32:KERNEL32.dll
 0000:fffb2000       .debug$S                   0000000180000000     kernel32:KERNEL32.dll
 0000:fffb2000       .debug$S                   0000000180000000     kernel32:KERNEL32.dll
 0000:fffb2000       .debug$S                   0000000180000000     kernel32:KERNEL32.dll
 0000:fffb2000       .debug$S                   0000000180000000     kernel32:KERNEL32.dll
 0000:fffb2000       .debug$S                   0000000180000000     kernel32:KERNEL32.dll
 0000:fffb2000       .debug$S                   0000000180000000     kernel32:KERNEL32.dll
 0000:fffb2000       .debug$S                   0000000180000000     kernel32:KERNEL32.dll
 0000:fffb2000       .debug$S                   0000000180000000     kernel32:KERNEL32.dll
 0000:fffb2000       .debug$S                   0000000180000000     kernel32:KERNEL32.dll
 0000:fffb2000       .debug$S                   0000000180000000     kernel32:KERNEL32.dll
 0000:fffb2000       .debug$S                   0000000180000000     kernel32:KERNEL32.dll
 0000:fffb2000       .debug$S                   0000000180000000     kernel32:KERNEL32.dll
 0000:fffb2000       .debug$S                   0000000180000000     kernel32:KERNEL32.dll
 0000:fffb2000       .debug$S                   0000000180000000     kernel32:KERNEL32.dll
 0000:fffb2000       .debug$S                   0000000180000000     kernel32:KERNEL32.dll
 0000:fffb2000       .debug$S                   0000000180000000     kernel32:KERNEL32.dll
 0000:fffb2000       .debug$S                   0000000180000000     kernel32:KERNEL32.dll
 0000:fffb2000       .debug$S                   0000000180000000     kernel32:KERNEL32.dll
 0000:fffb2000       .debug$S                   0000000180000000     kernel32:KERNEL32.dll
 0000:fffb2000       .debug$S                   0000000180000000     kernel32:KERNEL32.dll
 0000:fffb2000       .debug$S                   0000000180000000     kernel32:KERNEL32.dll
 0000:fffb2000       .debug$S                   0000000180000000     kernel32:KERNEL32.dll
 0000:fffb2000       .debug$S                   0000000180000000     kernel32:KERNEL32.dll
 0000:fffb2000       .debug$S                   0000000180000000     kernel32:KERNEL32.dll
 0000:fffb2000       .debug$S                   0000000180000000     kernel32:KERNEL32.dll
 0000:fffb2000       .debug$S                   0000000180000000     kernel32:KERNEL32.dll
 0000:fffb2000       .debug$S                   0000000180000000     kernel32:KERNEL32.dll
 0000:fffb2000       .debug$S                   0000000180000000     kernel32:KERNEL32.dll
 0000:fffb2000       .debug$S                   0000000180000000     kernel32:KERNEL32.dll
 0000:fffb2000       .debug$S                   0000000180000000     kernel32:KERNEL32.dll
 0000:fffb2000       .debug$S                   0000000180000000     kernel32:KERNEL32.dll
 0000:fffb2000       .debug$S                   0000000180000000     kernel32:KERNEL32.dll
 0000:fffb2000       .debug$S                   0000000180000000     kernel32:KERNEL32.dll
 0000:fffb2000       .debug$S                   0000000180000000     kernel32:KERNEL32.dll
 0000:fffb2000       .debug$S                   0000000180000000     kernel32:KERNEL32.dll
 0000:fffb2000       .debug$S                   0000000180000000     kernel32:KERNEL32.dll
 0000:fffb2000       .debug$S                   0000000180000000     kernel32:KERNEL32.dll
 0000:fffb2000       .debug$S                   0000000180000000     kernel32:KERNEL32.dll
 0000:fffb2000       .debug$S                   0000000180000000     kernel32:KERNEL32.dll
 0000:fffb2000       .debug$S                   0000000180000000     kernel32:KERNEL32.dll
 0000:fffb2000       .debug$S                   0000000180000000     kernel32:KERNEL32.dll
 0000:fffb2000       .debug$S                   0000000180000000     kernel32:KERNEL32.dll
 0000:fffb2000       .debug$S                   0000000180000000     kernel32:KERNEL32.dll
 0000:fffb2000       .debug$S                   0000000180000000     kernel32:KERNEL32.dll
 0000:fffb2000       .debug$S                   0000000180000000     kernel32:KERNEL32.dll
 0000:fffb2000       .debug$S                   0000000180000000     kernel32:KERNEL32.dll
 0000:fffb2000       .debug$S                   0000000180000000     kernel32:KERNEL32.dll
 0000:fffb2000       .debug$S                   0000000180000000     canvas.exp
 0000:fffb2000       .debug$S                   0000000180000000     kernel32:KERNEL32.dll
 0000:fffb2000       .debug$S                   0000000180000000     kernel32:KERNEL32.dll
 0000:fffb2000       .debug$S                   0000000180000000     kernel32:KERNEL32.dll
 0000:fffb2000       .debug$S                   0000000180000000     kernel32:KERNEL32.dll
 0000:fffb2000       .debug$S                   0000000180000000     kernel32:KERNEL32.dll
 0000:fffb2000       .debug$S                   0000000180000000     kernel32:KERNEL32.dll
 0000:fffb2000       .debug$S                   0000000180000000     kernel32:KERNEL32.dll
 0000:fffb2000       .debug$S                   0000000180000000     kernel32:KERNEL32.dll
 0000:fffb2000       .debug$S                   0000000180000000     kernel32:KERNEL32.dll
 0000:fffb2000       .debug$S                   0000000180000000     kernel32:KERNEL32.dll
 0000:fffb2000       .debug$S                   0000000180000000     kernel32:KERNEL32.dll
 0000:fffb2000       .debug$S                   0000000180000000     kernel32:KERNEL32.dll
 0000:fffb2000       .debug$S                   0000000180000000     kernel32:KERNEL32.dll
 0000:fffb2000       .debug$S                   0000000180000000     kernel32:KERNEL32.dll
 0000:fffb2000       .debug$S                   0000000180000000     kernel32:KERNEL32.dll
 0000:fffb2000       .debug$S                   0000000180000000     kernel32:KERNEL32.dll
 0000:fffb2000       .debug$S                   0000000180000000     kernel32:KERNEL32.dll
 0000:fffb2000       .debug$S                   0000000180000000     kernel32:KERNEL32.dll
 0000:fffb2000       .debug$S                   0000000180000000     kernel32:KERNEL32.dll
 0000:fffb2000       .debug$S                   0000000180000000     kernel32:KERNEL32.dll
 0000:fffb2000       .debug$S                   0000000180000000     kernel32:KERNEL32.dll
 0000:fffb2000       .debug$S                   0000000180000000     kernel32:KERNEL32.dll
 0000:fffb2000       .debug$S                   0000000180000000     kernel32:KERNEL32.dll
 0000:fffb2000       .debug$S                   0000000180000000     kernel32:KERNEL32.dll
 0000:fffb2000       .debug$S                   0000000180000000     kernel32:KERNEL32.dll
 0000:fffb2000       .debug$S                   0000000180000000     kernel32:KERNEL32.dll
 0000:fffb2000       .debug$S                   0000000180000000     kernel32:KERNEL32.dll
 0000:fffb2000       .debug$S                   0000000180000000     kernel32:KERNEL32.dll
 0000:fffb2000       .debug$S                   0000000180000000     kernel32:KERNEL32.dll
 0000:fffb2000       .debug$S                   0000000180000000     kernel32:KERNEL32.dll
 0000:fffb2000       .debug$S                   0000000180000000     kernel32:KERNEL32.dll
 0000:fffb2000       .debug$S                   0000000180000000     kernel32:KERNEL32.dll
 0000:fffb2000       .debug$S                   0000000180000000     kernel32:KERNEL32.dll
 0000:fffb2000       .debug$S                   0000000180000000     kernel32:KERNEL32.dll
 0000:fffb2000       .debug$S                   0000000180000000     kernel32:KERNEL32.dll
 0000:fffb2000       .debug$S                   0000000180000000     kernel32:KERNEL32.dll
 0000:fffb2000       .debug$S                   0000000180000000     kernel32:KERNEL32.dll
 0001:00000000       .text                      0000000180001000     libcairo-2:deqes00303.o
 0001:00000008       .text                      0000000180001008     libcairo-2:deqes00104.o
 0001:00000010       .text                      0000000180001010     libcairo-2:deqes00102.o
 0001:00000018       .text                      0000000180001018     libcairo-2:deqes00014.o
 0001:00000020       .text                      0000000180001020     libcairo-2:deqes00304.o
 0001:00000028       .text                      0000000180001028     libcairo-2:deqes00101.o
 0001:00000030       .text                      0000000180001030     libcairo-2:deqes00178.o
 0001:00000038       .text                      0000000180001038     libcairo-2:deqes00103.o
 0001:00000040       .text                      0000000180001040     libcairo-2:deqes00174.o
 0001:00000048       .text                      0000000180001048     libcairo-2:deqes00097.o
 0001:00000050       .text                      0000000180001050     libcairo-2:deqes00294.o
 0001:00000058       .text                      0000000180001058     libcairo-2:deqes00305.o
 0001:00000060       .text                      0000000180001060     libcairo-2:deqes00343.o
 0001:00000068       .text                      0000000180001068     libcairo-2:deqes00336.o
 0001:00000070       .text                      0000000180001070     libcairo-2:deqes00105.o
 0001:00000078       .text                      0000000180001078     libcairo-2:deqes00011.o
 0001:00000080       .text                      0000000180001080     libcairo-2:deqes00144.o
 0001:00000088       .text                      0000000180001088     libcairo-2:deqes00148.o
 0001:00000090       .text                      0000000180001090     libcairo-2:deqes00146.o
 0001:00000098       .text                      0000000180001098     libcairo-2:deqes00152.o
 0001:000000a0       .text                      00000001800010a0     libcairo-2:deqes00145.o
 0001:000000a8       .text                      00000001800010a8     libcairo-2:deqes00141.o
 0001:000000b0       .text                      00000001800010b0     libcairo-2:deqes00107.o
 0001:000000b8       .text                      00000001800010b8     libcairo-2:deqes00268.o
 0001:000000c0       .text                      00000001800010c0     libcairo-2:deqes00281.o
 0001:000000c8       .text                      00000001800010c8     libcairo-2:deqes00319.o
 0001:000000d0       .text                      00000001800010d0     libcairo-2:deqes00241.o
 0001:000000d8       .text                      00000001800010d8     libcairo-2:deqes00082.o
 0001:000000e0       .text                      00000001800010e0     libcairo-2:deqes00002.o
 0001:000000e8       .text                      00000001800010e8     libcairo-2:deqes00297.o
 0001:000000f0       .text                      00000001800010f0     libcairo-2:deqes00209.o
 0001:000000f8       .text                      00000001800010f8     libcairo-2:deqes00277.o
 0001:00000100       .text                      0000000180001100     libcairo-2:deqes00156.o
 0001:00000108       .text                      0000000180001108     libcairo-2:deqes00286.o
 0001:00000110       .text                      0000000180001110     libcairo-2:deqes00035.o
 0001:00000118       .text                      0000000180001118     libcairo-2:deqes00276.o
 0001:00000120       .text                      0000000180001120     libcairo-2:deqes00087.o
 0001:00000128       .text                      0000000180001128     libcairo-2:deqes00111.o
 0001:00000130       .text                      0000000180001130     libcairo-2:deqes00167.o
 0001:00000138       .text                      0000000180001138     libcairo-2:deqes00036.o
 0001:00000140       .text                      0000000180001140     libcairo-2:deqes00290.o
 0001:00000148       .text                      0000000180001148     libcairo-2:deqes00239.o
 0001:00000150       .text                      0000000180001150     libcairo-2:deqes00038.o
 0001:00000158       .text                      0000000180001158     libcairo-2:deqes00109.o
 0001:00000160       .text                      0000000180001160     libcairo-2:deqes00271.o
 0001:00000168       .text                      0000000180001168     libcairo-2:deqes00139.o
 0001:00000170       .text                      0000000180001170     libcairo-2:deqes00194.o
 0001:00000178       .text                      0000000180001178     libcairo-2:deqes00295.o
 0001:00000180       .text                      0000000180001180     libcairo-2:deqes00136.o
 0001:00000188       .text                      0000000180001188     libcairo-2:deqes00079.o
 0001:00000190       .text                      0000000180001190     libcairo-2:deqes00166.o
 0001:00000198       .text                      0000000180001198     libcairo-2:deqes00084.o
 0001:000001a0       .text                      00000001800011a0     libcairo-2:deqes00357.o
 0001:000001a8       .text                      00000001800011a8     libcairo-2:deqes00003.o
 0001:000001b0       .text                      00000001800011b0     libcairo-2:deqes00070.o
 0001:000001b8       .text                      00000001800011b8     libcairo-2:deqes00285.o
 0001:000001c0       .text                      00000001800011c0     libcairo-2:deqes00010.o
 0001:000001c8       .text                      00000001800011c8     libcairo-2:deqes00283.o
 0001:000001d0       .text                      00000001800011d0     libcairo-2:deqes00242.o
 0001:000001d8       .text                      00000001800011d8     libcairo-2:deqes00374.o
 0001:000001e0       .text                      00000001800011e0     libcairo-2:deqes00291.o
 0001:000001e8       .text                      00000001800011e8     libcairo-2:deqes00318.o
 0001:000001f0       .text                      00000001800011f0     libcairo-2:deqes00275.o
 0001:000001f8       .text                      00000001800011f8     libcairo-2:deqes00037.o
 0001:00000200       .text                      0000000180001200     libcairo-2:deqes00272.o
 0001:00000208       .text                      0000000180001208     libcairo-2:deqes00240.o
 0001:00000210       .text                      0000000180001210     libcairo-2:deqes00296.o
 0001:00000218       .text                      0000000180001218     libcairo-2:deqes00112.o
 0001:00000220       .text                      0000000180001220     libcairo-2:deqes00356.o
 0001:00000228       .text                      0000000180001228     libcairo-2:deqes00182.o
 0001:00000230       .text                      0000000180001230     libcairo-2:deqes00072.o
 0001:00000238       .text                      0000000180001238     libcairo-2:deqes00083.o
 0001:00000240       .text                      0000000180001240     libcairo-2:deqes00000.o
 0001:00000248       .text                      0000000180001248     libcairo-2:deqes00137.o
 0001:00000250       .text                      0000000180001250     libcairo-2:deqes00096.o
 0001:00000258       .text                      0000000180001258     libcairo-2:deqes00080.o
 0001:00000260       .text                      0000000180001260     libcairo-2:deqes00108.o
 0001:00000268       .text                      0000000180001268     libcairo-2:deqes00140.o
 0001:00000270       .text                      0000000180001270     libcairo-2:deqes00269.o
 0001:00000278       .text                      0000000180001278     libcairo-2:deqes00073.o
 0001:00000280       .text                      0000000180001280     libcairo-2:deqes00270.o
 0001:00000288       .text                      0000000180001288     libcairo-2:deqes00362.o
 0001:00000290       .text                      0000000180001290     libcairo-2:deqes00006.o
 0001:00000298       .text                      0000000180001298     libcairo-2:deqes00001.o
 0001:000002a0       .text                      00000001800012a0     libcairo-2:deqes00081.o
 0001:000002a8       .text                      00000001800012a8     libcairo-2:deqes00005.o
 0001:000002b0       .text                      00000001800012b0     libcairo-2:deqes00278.o
 0001:000002b8       .text                      00000001800012b8     libcairo-2:deqes00280.o
 0001:000002c0       .text                      00000001800012c0     libcairo-2:deqes00071.o
 0001:000002c8       .text                      00000001800012c8     libcairo-2:deqes00363.o
 0001:000002d0       .text                      00000001800012d0     libcairo-2:deqes00012.o
 0001:000002d8       .text                      00000001800012d8     libcairo-2:deqes00061.o
 0001:000002e0       .text                      00000001800012e0     libcairo-2:deqes00099.o
 0001:000002e8       .text                      00000001800012e8     libcairo-2:deqes00100.o
 0001:000002f0       .text                      00000001800012f0     libcairo-2:deqes00098.o
 0001:000002f8       .text                      00000001800012f8     libcairo-2:deqes00333.o
 0001:00000300       .text                      0000000180001300     libcairo-2:deqes00376.o
 0001:00000308       .text                      0000000180001308     libcairo-2:deqes00062.o
 0001:00000310       .text                      0000000180001310     libcairo-2:deqes00044.o
 0001:00000318       .text                      0000000180001318     libcairo-2:deqes00039.o
 0001:00000320       .text                      0000000180001320     libcairo-2:deqes00043.o
 0001:00000330       .text                      0000000180001330     libpng16-16:daofs00019.o
 0001:00000338       .text                      0000000180001338     libpng16-16:daofs00155.o
 0001:00000340       .text                      0000000180001340     libpng16-16:daofs00247.o
 0001:00000348       .text                      0000000180001348     libpng16-16:daofs00198.o
 0001:00000350       .text                      0000000180001350     libpng16-16:daofs00058.o
 0001:00000358       .text                      0000000180001358     libpng16-16:daofs00260.o
 0001:00000360       .text                      0000000180001360     libpng16-16:daofs00206.o
 0001:00000368       .text                      0000000180001368     libpng16-16:daofs00259.o
 0001:00000370       .text                      0000000180001370     libpng16-16:daofs00044.o
 0001:00000378       .text                      0000000180001378     libpng16-16:daofs00181.o
 0001:00000380       .text                      0000000180001380     libpng16-16:daofs00168.o
 0001:00000388       .text                      0000000180001388     libpng16-16:daofs00149.o
 0001:00000390       .text                      0000000180001390     libpng16-16:daofs00245.o
 0001:00000398       .text                      0000000180001398     libpng16-16:daofs00011.o
 0001:000003a0       .text                      00000001800013a0     libpng16-16:daofs00180.o
 0001:000003a8       .text                      00000001800013a8     libpng16-16:daofs00255.o
 0001:000003b0       .text                      00000001800013b0     libpng16-16:daofs00020.o
 0001:000003b8       .text                      00000001800013b8     libpng16-16:daofs00015.o
 0001:000003c0       .text                      00000001800013c0     libjpeg-8:dsfes00106.o
 0001:000003c8       .text                      00000001800013c8     libjpeg-8:dsfes00105.o
 0001:000003d0       .text                      00000001800013d0     libjpeg-8:dsfes00031.o
 0001:000003d8       .text                      00000001800013d8     libjpeg-8:dsfes00111.o
 0001:000003e0       .text                      00000001800013e0     libjpeg-8:dsfes00049.o
 0001:000003e8       .text                      00000001800013e8     libjpeg-8:dsfes00102.o
 0001:000003f0       .text                      00000001800013f0     libjpeg-8:dsfes00055.o
 0001:000003f8       .text                      00000001800013f8     libjpeg-8:dsfes00121.o
 0001:00000400       .text                      0000000180001400     libjpeg-8:dsfes00108.o
 0001:00000408       .text                      0000000180001408     libjpeg-8:dsfes00032.o
 0001:00000410       .text                      0000000180001410     libjpeg-8:dsfes00050.o
 0001:00000418       .text                      0000000180001418     libjpeg-8:dsfes00096.o
 0001:00000420       .text                      0000000180001420     libjpeg-8:dsfes00109.o
 0001:00000428       .text                      0000000180001428     libjpeg-8:dsfes00114.o
 0001:00000430       .text                      0000000180001430     libjpeg-8:dsfes00056.o
 0001:00000438       .text                      0000000180001438     libjpeg-8:dsfes00035.o
 0001:00000440       .text                      0000000180001440     libjpeg-8:dsfes00089.o
 0001:00000448       .text                      0000000180001448     libjpeg-8:dsfes00098.o
 0001:00000450       .text                      0000000180001450     libgif-7:dmscs00012.o
 0001:00000458       .text                      0000000180001458     libgif-7:dmscs00016.o
 0001:00000460       .text                      0000000180001460     libgif-7:dmscs00000.o
 0001:00000470       .text                      0000000180001470     libfreetype-6:dwbbs00121.o
 0001:00000478       .text                      0000000180001478     libfreetype-6:dwbbs00033.o
 0001:00000480       .text                      0000000180001480     libfreetype-6:dwbbs00103.o
 0001:00000490       ??__E?constructor@Canvas@@2V?$Persistent@VFunctionTemplate@v8@@V?$NonCopyablePersistentTraits@VFunctionTemplate@v8@@@2@@Nan@@A@@YAXXZ 0000000180001490 f   Canvas.obj
 0001:000004b0       ??__E?constructor@Gradient@@2V?$Persistent@VFunctionTemplate@v8@@V?$NonCopyablePersistentTraits@VFunctionTemplate@v8@@@2@@Nan@@A@@YAXXZ 00000001800014b0 f   CanvasGradient.obj
 0001:000004d0       ??__E?constructor@Pattern@@2V?$Persistent@VFunctionTemplate@v8@@V?$NonCopyablePersistentTraits@VFunctionTemplate@v8@@@2@@Nan@@A@@YAXXZ 00000001800014d0 f   CanvasPattern.obj
 0001:000004f0       ??__E?constructor@Context2d@@2V?$Persistent@VFunctionTemplate@v8@@V?$NonCopyablePersistentTraits@VFunctionTemplate@v8@@@2@@Nan@@A@@YAXXZ 00000001800014f0 f   CanvasRenderingContext2d.obj
 0001:00000510       ??__E?constructor@Image@@2V?$Persistent@VFunctionTemplate@v8@@V?$NonCopyablePersistentTraits@VFunctionTemplate@v8@@@2@@Nan@@A@@YAXXZ 0000000180001510 f   Image.obj
 0001:00000530       ??__E?constructor@ImageData@@2V?$Persistent@VFunctionTemplate@v8@@V?$NonCopyablePersistentTraits@VFunctionTemplate@v8@@@2@@Nan@@A@@YAXXZ 0000000180001530 f   ImageData.obj
 0001:00000550       ??__E?constructor@FontFace@@2V?$Persistent@VFunctionTemplate@v8@@V?$NonCopyablePersistentTraits@VFunctionTemplate@v8@@@2@@Nan@@A@@YAXXZ 0000000180001550 f   FontFace.obj
 0001:00000570       ?FunctionCallbackWrapper@imp@Nan@@YAXAEBV?$FunctionCallbackInfo@VValue@v8@@@v8@@@Z 0000000180001570 f   Canvas.obj
 0001:00000650       ?GetterCallbackWrapper@imp@Nan@@YAXV?$Local@VName@v8@@@v8@@AEBV?$PropertyCallbackInfo@VValue@v8@@@4@@Z 0000000180001650 f   Canvas.obj
 0001:00000740       ?SetterCallbackWrapper@imp@Nan@@YAXV?$Local@VName@v8@@@v8@@V?$Local@VValue@v8@@@4@AEBV?$PropertyCallbackInfo@X@4@@Z 0000000180001740 f   Canvas.obj
 0001:00001600       ?canvas_png_flush@@YAXPEAUpng_struct_def@@@Z 0000000180002600 f   Canvas.obj
 0001:00001610       ?canvas_convert_data_to_bytes@@YAXPEAUpng_struct_def@@PEAUpng_row_info_struct@@PEAE@Z 0000000180002610 f   Canvas.obj
 0001:00001650       ?canvas_unpremultiply_data@@YAXPEAUpng_struct_def@@PEAUpng_row_info_struct@@PEAE@Z 0000000180002650 f   Canvas.obj
 0001:00001710       ?canvas_write_png@@YA?AW4_cairo_status@@PEAU_cairo_surface@@P6AXPEAUpng_struct_def@@PEAE_K@ZPEAX@Z 0000000180002710 f   Canvas.obj
 0001:00001a40       ?canvas_stream_write_func@@YAXPEAUpng_struct_def@@PEAE_K@Z 0000000180002a40 f   Canvas.obj
 0001:00002e60       ?toBuffer@@YA?AW4_cairo_status@@PEAXPEBEI@Z 0000000180003e60 f   Canvas.obj
 0001:000038e0       ?streamPNG@@YA?AW4_cairo_status@@PEAXPEBEI@Z 00000001800048e0 f   Canvas.obj
 0001:00008f24       $LN77                      0000000180009f24     CanvasRenderingContext2d.obj
 0001:0000e9b0       ?h@@YAHD@Z                 000000018000f9b0 f   color.obj
 0001:0000e9ec       $LN9                       000000018000f9ec     color.obj
 0001:0000e9fc       $LN8                       000000018000f9fc     color.obj
 0001:0000ea40       ?rgba_from_hsla@@YAHMMMM@Z 000000018000fa40 f   color.obj
 0001:0000ecf0       ?rgba_from_rgb_string@@YAHPEBDPEAF@Z 000000018000fcf0 f   color.obj
 0001:0000ef20       ?rgba_from_rgba_string@@YAHPEBDPEAF@Z 000000018000ff20 f   color.obj
 0001:0000f1e0       ?rgba_from_hsla_string@@YAHPEBDPEAF@Z 00000001800101e0 f   color.obj
 0001:0000f430       ?rgba_from_hsl_string@@YAHPEBDPEAF@Z 0000000180010430 f   color.obj
 0001:0000f850       ??$parse_css_number@M@@YA_NPEAPEBDPEAM@Z 0000000180010850 f   color.obj
 0001:000123b0       _register_canvas           00000001800133b0 f   init.obj
 0001:00012660       ?load_exe_hook@@YAP6A_JXZIPEAUDelayLoadInfo@@@Z 0000000180013660 f   win_delay_load_hook.obj
 0001:00012db0       $$000000                   0000000180013db0     LIBCMT:_amdsecgs_.obj
 0001:00013218       ?dllmain_crt_dispatch@@YAHQEAUHINSTANCE__@@KQEAX@Z 0000000180014218 f   LIBCMT:dll_dllmain.obj
 0001:00013268       ?dllmain_crt_process_attach@@YAHQEAUHINSTANCE__@@QEAX@Z 0000000180014268 f   LIBCMT:dll_dllmain.obj
 0001:00013384       ?dllmain_crt_process_detach@@YAH_N@Z 0000000180014384 f   LIBCMT:dll_dllmain.obj
 0001:00013414       ?dllmain_dispatch@@YAHQEAUHINSTANCE__@@KQEAX@Z 0000000180014414 f   LIBCMT:dll_dllmain.obj
 0001:00013780       capture_current_context    0000000180014780 f   LIBCMT:gs_report.obj
 0001:000137f0       capture_previous_context   00000001800147f0 f   LIBCMT:gs_report.obj
 0001:00014b40       $$000000                   0000000180015b40     libvcruntime:memset.obj
 0001:00014c3c       MsetTab                    0000000180015c3c     libvcruntime:memset.obj
 0001:00015080       ?CatchIt@@YAXPEAUEHExceptionRecord@@PEA_KPEAU_CONTEXT@@PEAU_xDISPATCHER_CONTEXT@@PEBU_s_FuncInfo@@PEBU_s_HandlerType@@PEBU_s_CatchableType@@PEBU_s_TryBlockMapEntry@@H1EE@Z 0000000180016080 f   libvcruntime:frame.obj
 0001:00015144       ?ExFilterRethrow@@YAHPEAU_EXCEPTION_POINTERS@@PEAUEHExceptionRecord@@PEAH@Z 0000000180016144 f   libvcruntime:frame.obj
 0001:000151cc       ?FindHandler@@YAXPEAUEHExceptionRecord@@PEA_KPEAU_CONTEXT@@PEAU_xDISPATCHER_CONTEXT@@PEBU_s_FuncInfo@@EH1@Z 00000001800161cc f   libvcruntime:frame.obj
 0001:0001569c       ?FindHandlerForForeignException@@YAXPEAUEHExceptionRecord@@PEA_KPEAU_CONTEXT@@PEAU_xDISPATCHER_CONTEXT@@PEBU_s_FuncInfo@@HH1@Z 000000018001669c f   libvcruntime:frame.obj
 0001:000158f4       ?IsInExceptionSpec@@YAEPEAUEHExceptionRecord@@PEBU_s_ESTypeList@@@Z 00000001800168f4 f   libvcruntime:frame.obj
 0001:000164b8       ?try_get_function@@YAPEAXW4function_id@?A0xbfbae6a7@@QEBDQEBW4module_id@2@2@Z 00000001800174b8 f   libvcruntime:winapi_downlevel.obj
 0001:00016920       $$000000                   0000000180017920     libvcruntime:_jmpuwind_.obj
 0001:000169a0       $$000000                   00000001800179a0     libvcruntime:memcpy.obj
 0001:00016a47       MoveSmall                  0000000180017a47     libvcruntime:memcpy.obj
 0001:00016e00       $$000000                   0000000180017e00     libvcruntime:handlers.obj
 0001:00016e6c       ??$common_assert_to_message_box@_W@@YAXQEB_W0IQEAX@Z 0000000180017e6c f   libucrt:assert.obj
 0001:00016f30       ??$common_assert_to_message_box_build_string@_W@@YAXQEA_W_KQEB_W2IQEAX@Z 0000000180017f30 f   libucrt:assert.obj
 0001:000176f0       ??$common_assert_to_stderr@_W@@YAXQEB_W0I@Z 00000001800186f0 f   libucrt:assert.obj
 0001:00017860       ?get_assert_format@@YAPEB_W_W@Z 0000000180018860 f   libucrt:assert.obj
 0001:00017e38       ??$?RV<lambda_0d412022a4b28cc8a401ea49574e8ae6>@@AEAV<lambda_a775ed57af18ba8e4d5dc780aa9068fe>@@V<lambda_975a71a6baa488a08f4e15f6b0339b9e>@@@?$__crt_seh_guarded_call@H@@QEAAH$$QEAV<lambda_0d412022a4b28cc8a401ea49574e8ae6>@@AEAV<lambda_a775ed57af18ba8e4d5dc780aa9068fe>@@$$QEAV<lambda_975a71a6baa488a08f4e15f6b0339b9e>@@@Z 0000000180018e38 f   libucrt:output.obj
 0001:00017e78       ??$common_vsprintf@Vstandard_base@__crt_stdio_output@@D@@YAH_KQEAD0QEBDQEAU__crt_locale_pointers@@1@Z 0000000180018e78 f   libucrt:output.obj
 0001:00018044       ??$common_vsprintf@Vstandard_base@__crt_stdio_output@@_W@@YAH_KQEA_W0QEB_WQEAU__crt_locale_pointers@@QEAD@Z 0000000180019044 f   libucrt:output.obj
 0001:000187e8       ??R<lambda_a775ed57af18ba8e4d5dc780aa9068fe>@@QEBAHXZ 00000001800197e8 f   libucrt:output.obj
 0001:0001b218       ??$common_ftell@J@@YAJV__crt_stdio_stream@@@Z 000000018001c218 f   libucrt:ftell.obj
 0001:0001b288       ??$common_ftell_nolock@_J@@YA_JV__crt_stdio_stream@@@Z 000000018001c288 f   libucrt:ftell.obj
 0001:0001b3c4       ?common_ftell_read_mode_nolock@@YA_JV__crt_stdio_stream@@_J1@Z 000000018001c3c4 f   libucrt:ftell.obj
 0001:0001b510       ?common_ftell_translated_utf8_nolock@@YA_JV__crt_stdio_stream@@_J@Z 000000018001c510 f   libucrt:ftell.obj
 0001:0001b68c       ?count_newline_bytes@@YA_JQEBD0W4__crt_lowio_text_mode@@@Z 000000018001c68c f   libucrt:ftell.obj
 0001:0001b728       ??$common_fsopen@D@@YAPEAU_iobuf@@QEBD0H@Z 000000018001c728 f   libucrt:fopen.obj
 0001:0001b8d4       ?common_fseek@@YAHV__crt_stdio_stream@@_JH@Z 000000018001c8d4 f   libucrt:fseek.obj
 0001:0001b940       ?common_fseek_binary_mode_read_only_fast_track_nolock@@YA_NV__crt_stdio_stream@@_JH@Z 000000018001c940 f   libucrt:fseek.obj
 0001:0001ba20       ?common_fseek_nolock@@YAHV__crt_stdio_stream@@_JH@Z 000000018001ca20 f   libucrt:fseek.obj
 0001:0001be50       ??$?RV<lambda_3a04bfe258a31910a526c90b4d849d20>@@AEAV<lambda_1b3ad63c02abf531fe15530b52bade31>@@V<lambda_1755787d260f86bf828f8bf7552b2658>@@@?$__crt_seh_guarded_call@H@@QEAAH$$QEAV<lambda_3a04bfe258a31910a526c90b4d849d20>@@AEAV<lambda_1b3ad63c02abf531fe15530b52bade31>@@$$QEAV<lambda_1755787d260f86bf828f8bf7552b2658>@@@Z 000000018001ce50 f   libucrt:stat.obj
 0001:0001bf10       ??$common_stat_handle_file_opened@U_stat64i32@@@@YA_NQEB_WHQEAXAEAU_stat64i32@@@Z 000000018001cf10 f   libucrt:stat.obj
 0001:0001c0b4       ??$convert_filetime_to_time_t@_J@@YA_JU_FILETIME@@_J@Z 000000018001d0b4 f   libucrt:stat.obj
 0001:0001c14c       ?convert_to_stat_mode@@YAGHQEB_W@Z 000000018001d14c f   libucrt:stat.obj
 0001:0001c288       ?get_drive_number_from_path@@YA_NQEB_WAEAH@Z 000000018001d288 f   libucrt:stat.obj
 0001:0001c730       ??$?RV<lambda_d80eeec6fff315bfe5c115232f3240e3>@@AEAV<lambda_6e4b09c48022b2350581041d5f6b0c4c>@@V<lambda_2358e3775559c9db80273638284d5e45>@@@?$__crt_seh_guarded_call@X@@QEAAX$$QEAV<lambda_d80eeec6fff315bfe5c115232f3240e3>@@AEAV<lambda_6e4b09c48022b2350581041d5f6b0c4c>@@$$QEAV<lambda_2358e3775559c9db80273638284d5e45>@@@Z 000000018001d730 f   libucrt:exit.obj
 0001:0001c768       ??R<lambda_6e4b09c48022b2350581041d5f6b0c4c>@@QEBA@XZ 000000018001d768 f   libucrt:exit.obj
 0001:0001c840       ?atexit_exception_filter@@YAHK@Z 000000018001d840 f   libucrt:exit.obj
 0001:0001c84c       ?common_exit@@YAXHW4_crt_exit_cleanup_mode@@W4_crt_exit_return_mode@@@Z 000000018001d84c f   libucrt:exit.obj
 0001:0001c908       ?exit_or_terminate_process@@YAXI@Z 000000018001d908 f   libucrt:exit.obj
 0001:0001c954       ?try_cor_exit_process@@YAXI@Z 000000018001d954 f   libucrt:exit.obj
 0001:0001c9dc       ??$parse_command_line@D@@YAXPEADPEAPEAD0PEA_K2@Z 000000018001d9dc f   libucrt:argv_parsing.obj
 0001:0001cd80       ??$common_initialize_environment_nolock@D@@YAHXZ 000000018001dd80 f   libucrt:environment_initialization.obj
 0001:0001cdec       ??$create_environment@D@@YAQEAPEADQEAD@Z 000000018001ddec f   libucrt:environment_initialization.obj
 0001:0001cef8       ??$free_environment@D@@YAXQEAPEAD@Z 000000018001def8 f   libucrt:environment_initialization.obj
 0001:0001cef8       ??$free_environment@_W@@YAXQEAPEA_W@Z 000000018001def8 f   libucrt:environment_initialization.obj
 0001:0001cf3c       ??$initialize_environment_by_cloning_nolock@D@@YAHXZ 000000018001df3c f   libucrt:environment_initialization.obj
 0001:0001d010       ??$uninitialize_environment_internal@D@@YAXAEAPEAPEAD@Z 000000018001e010 f   libucrt:environment_initialization.obj
 0001:0001d02c       ??$uninitialize_environment_internal@_W@@YAXAEAPEAPEA_W@Z 000000018001e02c f   libucrt:environment_initialization.obj
 0001:0001d0c4       ??$?RV<lambda_7777bce6b2f8c936911f934f8298dc43>@@AEAV<lambda_f03950bc5685219e0bcd2087efbe011e>@@V<lambda_3883c3dff614d5e0c5f61bb1ac94921c>@@@?$__crt_seh_guarded_call@H@@QEAAH$$QEAV<lambda_7777bce6b2f8c936911f934f8298dc43>@@AEAV<lambda_f03950bc5685219e0bcd2087efbe011e>@@$$QEAV<lambda_3883c3dff614d5e0c5f61bb1ac94921c>@@@Z 000000018001e0c4 f   libucrt:onexit.obj
 0001:0001d100       ??$?RV<lambda_8369fcb7c4df1e85de37618bd2b85f07>@@AEAV<lambda_a10e4b102d4a2c3aac6f4f48bbdf488f>@@V<lambda_5b7707bd6d7a0c4713179f36c7fd995d>@@@?$__crt_seh_guarded_call@H@@QEAAH$$QEAV<lambda_8369fcb7c4df1e85de37618bd2b85f07>@@AEAV<lambda_a10e4b102d4a2c3aac6f4f48bbdf488f>@@$$QEAV<lambda_5b7707bd6d7a0c4713179f36c7fd995d>@@@Z 000000018001e100 f   libucrt:onexit.obj
 0001:0001d13c       ??R<lambda_a10e4b102d4a2c3aac6f4f48bbdf488f>@@QEBAHXZ 000000018001e13c f   libucrt:onexit.obj
 0001:0001d300       ??R<lambda_f03950bc5685219e0bcd2087efbe011e>@@QEBAHXZ 000000018001e300 f   libucrt:onexit.obj
 0001:0001d520       initialize_global_variables 000000018001e520 f   libucrt:initialization.obj
 0001:0001d534       initialize_c               000000018001e534 f   libucrt:initialization.obj
 0001:0001d558       initialize_global_state_isolation 000000018001e558 f   libucrt:initialization.obj
 0001:0001d558       uninitialize_c             000000018001e558 f   libucrt:initialization.obj
 0001:0001d558       report_memory_leaks        000000018001e558 f   libucrt:initialization.obj
 0001:0001d558       uninitialize_global_state_isolation 000000018001e558 f   libucrt:initialization.obj
 0001:0001d558       initialize_environment     000000018001e558 f   libucrt:initialization.obj
 0001:0001d55c       uninitialize_environment   000000018001e55c f   libucrt:initialization.obj
 0001:0001d56c       initialize_pointers        000000018001e56c f   libucrt:initialization.obj
 0001:0001d5c0       uninitialize_vcruntime     000000018001e5c0 f   libucrt:initialization.obj
 0001:0001d5c8       uninitialize_allocated_memory 000000018001e5c8 f   libucrt:initialization.obj
 0001:0001d608       uninitialize_allocated_io_buffers 000000018001e608 f   libucrt:initialization.obj
 0001:0001e450       $$000000                   000000018001f450     libucrt:strncmp.obj
 0001:0001e63c       ??$common_xtox@K_W@@YAHKQEA_W_KI_N@Z 000000018001f63c f   libucrt:xtoa.obj
 0001:0001e6e4       ??$common_xtox_s@K_W@@YAHKQEA_W_KI_N@Z 000000018001f6e4 f   libucrt:xtoa.obj
 0001:0001ea3c       ??$?RV<lambda_842d9ff0dc9ef11c61343bbaebe7f885>@@AEAV<lambda_c5860995281e5c4ce005b3de8f5874ee>@@V<lambda_d90129c13df834fdcbf8d2b88dafcf2d>@@@?$__crt_seh_guarded_call@X@@QEAAX$$QEAV<lambda_842d9ff0dc9ef11c61343bbaebe7f885>@@AEAV<lambda_c5860995281e5c4ce005b3de8f5874ee>@@$$QEAV<lambda_d90129c13df834fdcbf8d2b88dafcf2d>@@@Z 000000018001fa3c f   libucrt:fflush.obj
 0001:0001ead8       ??$?RV<lambda_886d6c58226a84441f68b9f2b8217b83>@@AEAV<lambda_ab61a845afdef5b7c387490eaf3616ee>@@V<lambda_f7f22ab5edc0698d5f6905b0d3f44752>@@@?$__crt_seh_guarded_call@X@@QEAAX$$QEAV<lambda_886d6c58226a84441f68b9f2b8217b83>@@AEAV<lambda_ab61a845afdef5b7c387490eaf3616ee>@@$$QEAV<lambda_f7f22ab5edc0698d5f6905b0d3f44752>@@@Z 000000018001fad8 f   libucrt:fflush.obj
 0001:0001ebc0       ??$?RV<lambda_c376a267cfb53b6959b3b692ec76b120>@@AEAV<lambda_9a32fed5bf61b6b509b2d3f6003082a1>@@V<lambda_572fbb9fa0ab338edf41edfd4b5fcc8d>@@@?$__crt_seh_guarded_call@H@@QEAAH$$QEAV<lambda_c376a267cfb53b6959b3b692ec76b120>@@AEAV<lambda_9a32fed5bf61b6b509b2d3f6003082a1>@@$$QEAV<lambda_572fbb9fa0ab338edf41edfd4b5fcc8d>@@@Z 000000018001fbc0 f   libucrt:fflush.obj
 0001:0001ec00       ?common_flush_all@@YAH_N@Z 000000018001fc00 f   libucrt:fflush.obj
 0001:0001ed98       ??$?RV<lambda_84ec643ea9557e2f7dc01bb0e9624395>@@AEAV<lambda_ca71763b3c0644891230e4f79ea54fa6>@@V<lambda_439a761618c59b0600e24586724d733b>@@@?$__crt_seh_guarded_call@H@@QEAAH$$QEAV<lambda_84ec643ea9557e2f7dc01bb0e9624395>@@AEAV<lambda_ca71763b3c0644891230e4f79ea54fa6>@@$$QEAV<lambda_439a761618c59b0600e24586724d733b>@@@Z 000000018001fd98 f   libucrt:setvbuf.obj
 0001:0001edd8       ??R<lambda_ca71763b3c0644891230e4f79ea54fa6>@@QEBAHXZ 000000018001fdd8 f   libucrt:setvbuf.obj
 0001:0001ef64       ??$?RV<lambda_450d765d439847d4c735a33c368b5fc0>@@AEAV<lambda_44731a7d0e6d81c3e6aa82d741081786>@@V<lambda_601a2a7da3b7a96e9554ac7215c4b07c>@@@?$__crt_seh_guarded_call@P6AXH@Z@@QEAAP6AXH@Z$$QEAV<lambda_450d765d439847d4c735a33c368b5fc0>@@AEAV<lambda_44731a7d0e6d81c3e6aa82d741081786>@@$$QEAV<lambda_601a2a7da3b7a96e9554ac7215c4b07c>@@@Z 000000018001ff64 f   libucrt:signal.obj
 0001:0001f270       _call_matherr              0000000180020270 f   libucrt:libm_error.obj
 0001:0001f2d8       _exception_enabled         00000001800202d8 f   libucrt:libm_error.obj
 0001:0001f61c       ??$?RV<lambda_0ae27a3a962d80f24befdcbee591983d>@@AEAV<lambda_8d0ee55de4b1038c4002e0adecdf1839>@@V<lambda_dc504788e8f1664fe9b84e20bfb512f2>@@@?$__crt_seh_guarded_call@X@@QEAAX$$QEAV<lambda_0ae27a3a962d80f24befdcbee591983d>@@AEAV<lambda_8d0ee55de4b1038c4002e0adecdf1839>@@$$QEAV<lambda_dc504788e8f1664fe9b84e20bfb512f2>@@@Z 000000018002061c f   libucrt:per_thread_data.obj
 0001:0001f65c       ??$?RV<lambda_2d41944a1d46af3157314b8a01080d33>@@AEAV<lambda_8f455de75cd7d7f24b4096f044d8b9e6>@@V<lambda_aa500f224e6afead328df44964fe2772>@@@?$__crt_seh_guarded_call@X@@QEAAX$$QEAV<lambda_2d41944a1d46af3157314b8a01080d33>@@AEAV<lambda_8f455de75cd7d7f24b4096f044d8b9e6>@@$$QEAV<lambda_aa500f224e6afead328df44964fe2772>@@@Z 000000018002065c f   libucrt:per_thread_data.obj
 0001:0001f69c       ??$?RV<lambda_aa87e3671a710a21b5dc78c0bdf72e11>@@AEAV<lambda_92619d2358a28f41a33ba319515a20b9>@@V<lambda_6992ecaafeb10aed2b74cb1fae11a551>@@@?$__crt_seh_guarded_call@X@@QEAAX$$QEAV<lambda_aa87e3671a710a21b5dc78c0bdf72e11>@@AEAV<lambda_92619d2358a28f41a33ba319515a20b9>@@$$QEAV<lambda_6992ecaafeb10aed2b74cb1fae11a551>@@@Z 000000018002069c f   libucrt:per_thread_data.obj
 0001:0001f6e4       ??$?RV<lambda_f2e299630e499de9f9a165e60fcd3db5>@@AEAV<lambda_2ae9d31cdba2644fcbeaf08da7c24588>@@V<lambda_40d01ff24d0e7b3814fdbdcee8eab3c7>@@@?$__crt_seh_guarded_call@X@@QEAAX$$QEAV<lambda_f2e299630e499de9f9a165e60fcd3db5>@@AEAV<lambda_2ae9d31cdba2644fcbeaf08da7c24588>@@$$QEAV<lambda_40d01ff24d0e7b3814fdbdcee8eab3c7>@@@Z 00000001800206e4 f   libucrt:per_thread_data.obj
 0001:0001f744       ?construct_ptd_array@@YAXQEAU__acrt_ptd@@@Z 0000000180020744 f   libucrt:per_thread_data.obj
 0001:0001f814       ?destroy_fls@@YAXPEAX@Z    0000000180020814 f   libucrt:per_thread_data.obj
 0001:0001f834       ?destroy_ptd_array@@YAXQEAU__acrt_ptd@@@Z 0000000180020834 f   libucrt:per_thread_data.obj
 0001:0001f92c       ?replace_current_thread_locale_nolock@@YAXQEAU__acrt_ptd@@QEAU__crt_locale_data@@@Z 000000018002092c f   libucrt:per_thread_data.obj
 0001:0001fc7c       ?try_get_function@@YAPEAXW4function_id@?A0x391cf84c@@QEBDQEBW4module_id@2@2@Z 0000000180020c7c f   libucrt:winapi_thunks.obj
 0001:000206c8       ?initialize_inherited_file_handles_nolock@@YAXXZ 00000001800216c8 f   libucrt:ioinit.obj
 0001:000207b4       ?initialize_stdio_handles_nolock@@YAXXZ 00000001800217b4 f   libucrt:ioinit.obj
 0001:000209a0       ?internal_isupper_l@@YA_NHQEAU__crt_locale_pointers@@@Z 00000001800219a0 f   libucrt:tolower_toupper.obj
 0001:00021204       ?fp_format_a@@YAHQEBNPEAD_KQEAD2H_NIQEAU__crt_locale_pointers@@@Z 0000000180022204 f   libucrt:cvt.obj
 0001:00021558       ?fp_format_e@@YAHQEBNQEAD_K12H_NIQEAU__crt_locale_pointers@@@Z 0000000180022558 f   libucrt:cvt.obj
 0001:00021634       ?fp_format_e_internal@@YAHQEAD_KH_NIQEAU_strflt@@2QEAU__crt_locale_pointers@@@Z 0000000180022634 f   libucrt:cvt.obj
 0001:00021808       ?fp_format_f_internal@@YAHQEAD_KHQEAU_strflt@@_NQEAU__crt_locale_pointers@@@Z 0000000180022808 f   libucrt:cvt.obj
 0001:00021950       ?fp_format_g@@YAHQEBNQEAD_K12H_NIQEAU__crt_locale_pointers@@@Z 0000000180022950 f   libucrt:cvt.obj
 0001:00021a84       ?fp_format_nan_or_infinity@@YAHW4__acrt_fp_class@@_NPEAD_K1@Z 0000000180022a84 f   libucrt:cvt.obj
 0001:000220fc       ??$?RV<lambda_410d79af7f07d98d83a3f525b3859a53>@@AEAV<lambda_3e16ef9562a7dcce91392c22ab16ea36>@@V<lambda_38119f0e861e05405d8a144b9b982f0a>@@@?$__crt_seh_guarded_call@X@@QEAAX$$QEAV<lambda_410d79af7f07d98d83a3f525b3859a53>@@AEAV<lambda_3e16ef9562a7dcce91392c22ab16ea36>@@$$QEAV<lambda_38119f0e861e05405d8a144b9b982f0a>@@@Z 00000001800230fc f   libucrt:wsetlocale.obj
 0001:000221a8       ??$common_lseek@_J@@YA_JH_JH@Z 00000001800231a8 f   libucrt:lseek.obj
 0001:00022298       ??$common_lseek_nolock@_J@@YA_JH_JH@Z 0000000180023298 f   libucrt:lseek.obj
 0001:00022344       ??$translate_text_mode_nolock@D@@YAHHQEAD_K@Z 0000000180023344 f   libucrt:read.obj
 0001:00022500       ??$translate_text_mode_nolock@_W@@YAHHQEA_W_K@Z 0000000180023500 f   libucrt:read.obj
 0001:00022738       ?translate_ansi_or_utf8_nolock@@YAHHQEAD_KQEA_W1@Z 0000000180023738 f   libucrt:read.obj
 0001:00022efc       ?find_or_allocate_unused_stream_nolock@@YA?AV__crt_stdio_stream@@XZ 0000000180023efc f   libucrt:stream.obj
 0001:00023330       ??$?RV<lambda_751a882b2c74d4b022dec766aa51a29a>@@AEAV<lambda_628dfdc04ba53c8bfc02c9951375f3f5>@@V<lambda_f6c7be5f7998530c34de24c7437d6b54>@@@?$__crt_seh_guarded_call@H@@QEAAH$$QEAV<lambda_751a882b2c74d4b022dec766aa51a29a>@@AEAV<lambda_628dfdc04ba53c8bfc02c9951375f3f5>@@$$QEAV<lambda_f6c7be5f7998530c34de24c7437d6b54>@@@Z 0000000180024330 f   libucrt:close.obj
 0001:00023f18       ??$common_loctotime_t@_J@@YA_JHHHHHHH@Z 0000000180024f18 f   libucrt:loctotime.obj
 0001:00024344       ?<lambda_invoker_cdecl>@<lambda_c2303d2482d7c3675ea2e24c4cfb6115>@@CAHPEBX0@Z 0000000180025344 f   libucrt:argv_wildcards.obj
 0001:00024358       ??$common_expand_argv_wildcards@D@@YAHQEAPEADQEAPEAPEAD@Z 0000000180025358 f   libucrt:argv_wildcards.obj
 0001:00024564       ??$copy_and_add_argument_to_buffer@D@@YAHQEBD0_KAEAV?$argument_list@D@?A0x5f5c8891@@@Z 0000000180025564 f   libucrt:argv_wildcards.obj
 0001:000246fc       ??$expand_argument_wildcards@D@@YAHQEAD0AEAV?$argument_list@D@?A0x5f5c8891@@@Z 00000001800256fc f   libucrt:argv_wildcards.obj
 0001:000248b0       ??$?RV<lambda_efdfa57d1f175319df784efa44bb7b81>@@AEAV<lambda_5f0a4c1567f8adc6734073e5d1e1b35c>@@V<lambda_2e8a7d3640ea6ccb4c2413664c2db6fd>@@@?$__crt_seh_guarded_call@X@@QEAAX$$QEAV<lambda_efdfa57d1f175319df784efa44bb7b81>@@AEAV<lambda_5f0a4c1567f8adc6734073e5d1e1b35c>@@$$QEAV<lambda_2e8a7d3640ea6ccb4c2413664c2db6fd>@@@Z 00000001800258b0 f   libucrt:mbctype.obj
 0001:00024a84       ?getSystemCP@@YAHH@Z       0000000180025a84 f   libucrt:mbctype.obj
 0001:00024b04       ?setSBCS@@YAXPEAU__crt_multibyte_data@@@Z 0000000180025b04 f   libucrt:mbctype.obj
 0001:00024b94       ?setSBUpLow@@YAXPEAU__crt_multibyte_data@@@Z 0000000180025b94 f   libucrt:mbctype.obj
 0001:00024d74       ?setmbcp_internal@@YAHH_NQEAU__acrt_ptd@@QEAPEAU__crt_multibyte_data@@@Z 0000000180025d74 f   libucrt:mbctype.obj
 0001:00024f38       ?update_thread_multibyte_data_internal@@YAPEAU__crt_multibyte_data@@QEAU__acrt_ptd@@QEAPEAU1@@Z 0000000180025f38 f   libucrt:mbctype.obj
 0001:0002532c       ?x_ismbbtype_l@@YAHPEAU__crt_locale_pointers@@IHH@Z 000000018002632c f   libucrt:ismbbyte.obj
 0001:000254e4       ??$common_set_variable_in_environment_nolock@D@@YAHQEADH@Z 00000001800264e4 f   libucrt:setenv.obj
 0001:00025804       ??$copy_environment@D@@YAPEAPEADQEAPEAD@Z 0000000180026804 f   libucrt:setenv.obj
 0001:00025c8c       ??$?RV<lambda_a37b2b86f63e897a80ea819b0eb08c01>@@AEAV<lambda_38ce7e780aa69e748d6df282ebc68efe>@@V<lambda_99fb1378e971ab6e7edea83e3a7a83a2>@@@?$__crt_seh_guarded_call@H@@QEAAH$$QEAV<lambda_a37b2b86f63e897a80ea819b0eb08c01>@@AEAV<lambda_38ce7e780aa69e748d6df282ebc68efe>@@$$QEAV<lambda_99fb1378e971ab6e7edea83e3a7a83a2>@@@Z 0000000180026c8c f   libucrt:commit.obj
 0001:00025dac       ?write_double_translated_ansi_nolock@@YA?AUwrite_result@?A0x17268360@@HQEBDI@Z 0000000180026dac f   libucrt:write.obj
 0001:00025fd0       ?write_text_ansi_nolock@@YA?AUwrite_result@?A0x17268360@@HQEBDI@Z 0000000180026fd0 f   libucrt:write.obj
 0001:000260d4       ?write_text_utf16le_nolock@@YA?AUwrite_result@?A0x17268360@@HQEBDI@Z 00000001800270d4 f   libucrt:write.obj
 0001:000261f0       ?write_text_utf8_nolock@@YA?AUwrite_result@?A0x17268360@@HQEBDI@Z 00000001800271f0 f   libucrt:write.obj
 0001:00026ffc       ?GetTableIndexFromLocaleName@@YAHPEB_W@Z 0000000180027ffc f   libucrt:lcidtoname_downlevel.obj
 0001:0002713c       ?__acrt_LCMapStringA_stat@@YAHPEAU__crt_locale_pointers@@PEB_WKPEBDHPEADHHH@Z 000000018002813c f   libucrt:lcmapstringa.obj
 0001:00028dd8       memcpy_s                   0000000180029dd8 f   libucrt:cfout.obj
 0001:00028e60       ??$write_buffer_nolock@D@@YA_NDV__crt_stdio_stream@@@Z 0000000180029e60 f   libucrt:_flsbuf.obj
 0001:00028f40       ??$write_buffer_nolock@_W@@YA_N_WV__crt_stdio_stream@@@Z 0000000180029f40 f   libucrt:_flsbuf.obj
 0001:000293d0       ?free_crt_array_internal@@YAXQEAPEBX_K@Z 000000018002a3d0 f   libucrt:inittime.obj
 0001:00029844       ??$common_sopen_dispatch@D@@YAHQEBDHHHQEAHH@Z 000000018002a844 f   libucrt:open.obj
 0001:00029908       ?configure_text_mode@@YAHHUfile_options@?A0xa9d50aae@@HAEAW4__crt_lowio_text_mode@@@Z 000000018002a908 f   libucrt:open.obj
 0001:00029b9c       ?decode_options@@YA?AUfile_options@?A0xa9d50aae@@HHH@Z 000000018002ab9c f   libucrt:open.obj
 0001:00029da4       ?truncate_ctrl_z_if_present@@YAHH@Z 000000018002ada4 f   libucrt:open.obj
 0001:0002a534       ?_isindst_nolock@@YAHQEAUtm@@@Z 000000018002b534 f   libucrt:tzset.obj
 0001:0002a850       ?cvtdate@@YAXW4transition_type@?A0x7639d0b4@@W4date_type@2@HHHHHHHHH@Z 000000018002b850 f   libucrt:tzset.obj
 0001:0002aa58       ?tzset_from_environment_nolock@@YAXPEAD@Z 000000018002ba58 f   libucrt:tzset.obj
 0001:0002acbc       ?tzset_from_system_nolock@@YAXXZ 000000018002bcbc f   libucrt:tzset.obj
 0001:0002ae90       ?tzset_nolock@@YAXXZ       000000018002be90 f   libucrt:tzset.obj
 0001:0002b494       fallbackMethod             000000018002c494 f   libucrt:strpbrk.obj
 0001:0002b864       $LN78                      000000018002c864     libucrt:strpbrk.obj
 0001:0002b8a0       $LN77                      000000018002c8a0     libucrt:strpbrk.obj
 0001:0002b8e0       $LN76                      000000018002c8e0     libucrt:strpbrk.obj
 0001:0002b9b8       ?initialize_multibyte@@YAHXZ 000000018002c9b8 f   libucrt:multibyte_initializer.obj
 0001:0002bb70       $$000000                   000000018002cb70     libucrt:fpsr.obj
 0001:0002bd70       $$000000                   000000018002cd70     libucrt:log10.obj
 0001:0002c630       ??$common_getenv_nolock@D@@YAPEADQEBD@Z 000000018002d630 f   libucrt:getenv.obj
 0001:0002c6b8       ??$common_getenv_s@D@@YAHQEA_KQEAD_KQEBD@Z 000000018002d6b8 f   libucrt:getenv.obj
 0001:0002c7b8       ?InternalCompareStringA@@YAHPEAU__crt_locale_pointers@@PEB_WKPEBDH2HH@Z 000000018002d7b8 f   libucrt:comparestringa.obj
 0001:0002d0f0       _log_special_common        000000018002e0f0 f   libucrt:log_special.obj
 0001:0002d990       $$000000                   000000018002e990     LIBCMT:_chkstk_.obj
 0001:0002dc00       $$000000                   000000018002ec00     libvcruntime:memcmp.obj
 0001:0002e6b0       $$000000                   000000018002f6b0     libucrt:strcmp.obj
 0001:0002e730       $$000000                   000000018002f730     libucrt:tan.obj
 0001:0002ecf0       _tan_piby4                 000000018002fcf0 f   libucrt:tan.obj
 0001:0002eec8       _sincos_special            000000018002fec8 f   libucrt:sincos_special.obj
 0001:0002ef80       $$000000                   000000018002ff80     libucrt:remainder_piby2_forfma3.obj
 0001:0002f1f0       $$000000                   00000001800301f0     libucrt:remainder_piby2_forasm.obj
 0001:0002f540       $$000000                   0000000180030540     LIBCMT:_guard_dispatch_.obj
 0001:0002f560       $$000000                   0000000180030560     LIBCMT:_rfgfailure_.obj
 0001:0002f620       $$000000                   0000000180030620     libvcruntime:_longjmp_.obj
 0001:0002f720       $$000000                   0000000180030720     libvcruntime:_setjmp_.obj
 0001:0002f7e0       ?dtor$0@?0??New@?$Factory@VFunctionTemplate@v8@@@imp@Nan@@SA?AV?$Local@VFunctionTemplate@v8@@@v8@@P6AXAEBV?$FunctionCallbackInfo@VValue@v8@@@3@@ZV?$Local@VValue@v8@@@5@V?$Local@VSignature@v8@@@5@@Z@4HA 00000001800307e0 f   Canvas.obj
 0001:0002f7ee       ?dtor$1@?0??New@?$Factory@VFunctionTemplate@v8@@@imp@Nan@@SA?AV?$Local@VFunctionTemplate@v8@@@v8@@P6AXAEBV?$FunctionCallbackInfo@VValue@v8@@@3@@ZV?$Local@VValue@v8@@@5@V?$Local@VSignature@v8@@@5@@Z@4HA 00000001800307ee f   Canvas.obj
 0001:0002f800       ?dtor$0@?0??SetPrototypeMethod@Nan@@YAXV?$Local@VFunctionTemplate@v8@@@v8@@PEBDP6AXAEBV?$FunctionCallbackInfo@VValue@v8@@@1@@Z@Z@4HA 0000000180030800 f   Canvas.obj
 0001:0002f800       ?dtor$0@?0??resurface@Canvas@@QEAAXV?$Local@VObject@v8@@@v8@@@Z@4HA 0000000180030800 f   Canvas.obj
 0001:0002f800       ?dtor$0@?0??ThrowRangeError@Nan@@YAXPEBD@Z@4HA 0000000180030800 f   Canvas.obj
 0001:0002f800       ?dtor$0@?0??ThrowError@Nan@@YAXPEBD@Z@4HA 0000000180030800 f   CanvasPattern.obj
 0001:0002f800       ?dtor$0@?0??ThrowTypeError@Nan@@YAXPEBD@Z@4HA 0000000180030800 f   Canvas.obj
 0001:0002f810       ?dtor$0@?0??MakeCallback@Nan@@YA?AV?$Local@VValue@v8@@@v8@@V?$Local@VObject@v8@@@3@V?$Local@VFunction@v8@@@3@HPEAV23@@Z@4HA 0000000180030810 f   Canvas.obj
 0001:0002f820       ?dtor$0@?0??Call@Callback@Nan@@QEBA?AV?$Local@VValue@v8@@@v8@@HQEAV34@@Z@4HA 0000000180030820 f   Canvas.obj
 0001:0002f82e       ?dtor$1@?0??Call@Callback@Nan@@QEBA?AV?$Local@VValue@v8@@@v8@@HQEAV34@@Z@4HA 000000018003082e f   Canvas.obj
 0001:0002f83a       ?dtor$2@?0??Call@Callback@Nan@@QEBA?AV?$Local@VValue@v8@@@v8@@HQEAV34@@Z@4HA 000000018003083a f   Canvas.obj
 0001:0002f850       ?dtor$0@?0??SetAccessor@Nan@@YAXV?$Local@VObjectTemplate@v8@@@v8@@V?$Local@VString@v8@@@3@P6AX1AEBV?$PropertyCallbackInfo@VValue@v8@@@1@@ZP6AX1V?$Local@VValue@v8@@@3@AEBV?$PropertyCallbackInfo@X@1@@Z4W4AccessControl@3@W4PropertyAttribute@3@V?$Local@VAccessorSignature@v8@@@3@@Z@4HA 0000000180030850 f   Canvas.obj
 0001:0002f85c       ?dtor$2@?0??SetAccessor@Nan@@YAXV?$Local@VObjectTemplate@v8@@@v8@@V?$Local@VString@v8@@@3@P6AX1AEBV?$PropertyCallbackInfo@VValue@v8@@@1@@ZP6AX1V?$Local@VValue@v8@@@3@AEBV?$PropertyCallbackInfo@X@1@@Z4W4AccessControl@3@W4PropertyAttribute@3@V?$Local@VAccessorSignature@v8@@@3@@Z@4HA 000000018003085c f   Canvas.obj
 0001:0002f870       ?dtor$0@?0??ToBufferAsyncAfter@Canvas@@SAXPEAUuv_work_s@@@Z@4HA 0000000180030870 f   Canvas.obj
 0001:0002f870       ?dtor$0@?0??empty_closure_output_buffer@@YAEPEAUjpeg_compress_struct@@@Z@4HA 0000000180030870 f   Canvas.obj
 0001:0002f880       ?dtor$0@?0??term_closure_destination@@YAXPEAUjpeg_compress_struct@@@Z@4HA 0000000180030880 f   Canvas.obj
 0001:0002f890       ?dtor$0@?0??Initialize@Canvas@@SAXV?$Local@VObject@v8@@@v8@@@Z@4HA 0000000180030890 f   Canvas.obj
 0001:0002f89c       ?dtor$2@?0??Initialize@Canvas@@SAXV?$Local@VObject@v8@@@v8@@@Z@4HA 000000018003089c f   Canvas.obj
 0001:0002f8a8       ?dtor$5@?0??Initialize@Canvas@@SAXV?$Local@VObject@v8@@@v8@@@Z@4HA 00000001800308a8 f   Canvas.obj
 0001:0002f8b6       ?dtor$7@?0??Initialize@Canvas@@SAXV?$Local@VObject@v8@@@v8@@@Z@4HA 00000001800308b6 f   Canvas.obj
 0001:0002f8c4       ?dtor$9@?0??Initialize@Canvas@@SAXV?$Local@VObject@v8@@@v8@@@Z@4HA 00000001800308c4 f   Canvas.obj
 0001:0002f8d2       ?dtor$11@?0??Initialize@Canvas@@SAXV?$Local@VObject@v8@@@v8@@@Z@4HA 00000001800308d2 f   Canvas.obj
 0001:0002f8e0       ?dtor$13@?0??Initialize@Canvas@@SAXV?$Local@VObject@v8@@@v8@@@Z@4HA 00000001800308e0 f   Canvas.obj
 0001:0002f8ee       ?dtor$15@?0??Initialize@Canvas@@SAXV?$Local@VObject@v8@@@v8@@@Z@4HA 00000001800308ee f   Canvas.obj
 0001:0002f8fc       ?dtor$17@?0??Initialize@Canvas@@SAXV?$Local@VObject@v8@@@v8@@@Z@4HA 00000001800308fc f   Canvas.obj
 0001:0002f90a       ?dtor$19@?0??Initialize@Canvas@@SAXV?$Local@VObject@v8@@@v8@@@Z@4HA 000000018003090a f   Canvas.obj
 0001:0002f920       ?dtor$0@?0??New@Canvas@@SAXAEBV?$FunctionCallbackInfo@VValue@v8@@@Nan@@@Z@4HA 0000000180030920 f   Canvas.obj
 0001:0002f92e       ?dtor$2@?0??New@Canvas@@SAXAEBV?$FunctionCallbackInfo@VValue@v8@@@Nan@@@Z@4HA 000000018003092e f   Canvas.obj
 0001:0002f950       ?dtor$0@?0??ToBuffer@Canvas@@SAXAEBV?$FunctionCallbackInfo@VValue@v8@@@Nan@@@Z@4HA 0000000180030950 f   Canvas.obj
 0001:0002f970       ?dtor$1@?0??ToBuffer@Canvas@@SAXAEBV?$FunctionCallbackInfo@VValue@v8@@@Nan@@@Z@4HA 0000000180030970 f   Canvas.obj
 0001:0002f980       ?dtor$0@?0??streamPNG@@YA?AW4_cairo_status@@PEAXPEBEI@Z@4HA 0000000180030980 f   Canvas.obj
 0001:0002f990       ?dtor$0@?0??StreamPNGSync@Canvas@@SAXAEBV?$FunctionCallbackInfo@VValue@v8@@@Nan@@@Z@4HA 0000000180030990 f   Canvas.obj
 0001:0002f99c       ?dtor$3@?0??StreamPNGSync@Canvas@@SAXAEBV?$FunctionCallbackInfo@VValue@v8@@@Nan@@@Z@4HA 000000018003099c f   Canvas.obj
 0001:0002f9b0       ?dtor$0@?0??StreamPDFSync@Canvas@@SAXAEBV?$FunctionCallbackInfo@VValue@v8@@@Nan@@@Z@4HA 00000001800309b0 f   Canvas.obj
 0001:0002f9bc       ?dtor$2@?0??StreamPDFSync@Canvas@@SAXAEBV?$FunctionCallbackInfo@VValue@v8@@@Nan@@@Z@4HA 00000001800309bc f   Canvas.obj
 0001:0002f9c8       ?dtor$5@?0??StreamPDFSync@Canvas@@SAXAEBV?$FunctionCallbackInfo@VValue@v8@@@Nan@@@Z@4HA 00000001800309c8 f   Canvas.obj
 0001:0002f9d4       ?dtor$10@?0??StreamPDFSync@Canvas@@SAXAEBV?$FunctionCallbackInfo@VValue@v8@@@Nan@@@Z@4HA 00000001800309d4 f   Canvas.obj
 0001:0002f9e2       ?dtor$12@?0??StreamPDFSync@Canvas@@SAXAEBV?$FunctionCallbackInfo@VValue@v8@@@Nan@@@Z@4HA 00000001800309e2 f   Canvas.obj
 0001:0002f9f0       ?dtor$0@?0??StreamJPEGSync@Canvas@@SAXAEBV?$FunctionCallbackInfo@VValue@v8@@@Nan@@@Z@4HA 00000001800309f0 f   Canvas.obj
 0001:0002fa00       ?dtor$0@?0???0Canvas@@QEAA@HHW4canvas_type_t@@@Z@4HA 0000000180030a00 f   Canvas.obj
 0001:0002fa10       ?dtor$0@?0??Initialize@Gradient@@SAXV?$Local@VObject@v8@@@v8@@@Z@4HA 0000000180030a10 f   CanvasGradient.obj
 0001:0002fa1c       ?dtor$2@?0??Initialize@Gradient@@SAXV?$Local@VObject@v8@@@v8@@@Z@4HA 0000000180030a1c f   CanvasGradient.obj
 0001:0002fa28       ?dtor$5@?0??Initialize@Gradient@@SAXV?$Local@VObject@v8@@@v8@@@Z@4HA 0000000180030a28 f   CanvasGradient.obj
 0001:0002fa40       ?dtor$0@?0??New@Gradient@@SAXAEBV?$FunctionCallbackInfo@VValue@v8@@@Nan@@@Z@4HA 0000000180030a40 f   CanvasGradient.obj
 0001:0002fa60       ?dtor$1@?0??New@Gradient@@SAXAEBV?$FunctionCallbackInfo@VValue@v8@@@Nan@@@Z@4HA 0000000180030a60 f   CanvasGradient.obj
 0001:0002fa80       ?dtor$0@?0??AddColorStop@Gradient@@SAXAEBV?$FunctionCallbackInfo@VValue@v8@@@Nan@@@Z@4HA 0000000180030a80 f   CanvasGradient.obj
 0001:0002fa90       ?dtor$0@?0??Initialize@Pattern@@SAXV?$Local@VObject@v8@@@v8@@@Z@4HA 0000000180030a90 f   CanvasPattern.obj
 0001:0002fa9c       ?dtor$2@?0??Initialize@Pattern@@SAXV?$Local@VObject@v8@@@v8@@@Z@4HA 0000000180030a9c f   CanvasPattern.obj
 0001:0002fab0       ?dtor$0@?0??Initialize@Context2d@@SAXV?$Local@VObject@v8@@@v8@@@Z@4HA 0000000180030ab0 f   CanvasRenderingContext2d.obj
 0001:0002fabc       ?dtor$2@?0??Initialize@Context2d@@SAXV?$Local@VObject@v8@@@v8@@@Z@4HA 0000000180030abc f   CanvasRenderingContext2d.obj
 0001:0002fac8       ?dtor$5@?0??Initialize@Context2d@@SAXV?$Local@VObject@v8@@@v8@@@Z@4HA 0000000180030ac8 f   CanvasRenderingContext2d.obj
 0001:0002fae0       ?dtor$0@?0??GetImageData@Context2d@@SAXAEBV?$FunctionCallbackInfo@VValue@v8@@@Nan@@@Z@4HA 0000000180030ae0 f   CanvasRenderingContext2d.obj
 0001:0002faee       ?dtor$2@?0??GetImageData@Context2d@@SAXAEBV?$FunctionCallbackInfo@VValue@v8@@@Nan@@@Z@4HA 0000000180030aee f   CanvasRenderingContext2d.obj
 0001:0002fafc       ?dtor$4@?0??GetImageData@Context2d@@SAXAEBV?$FunctionCallbackInfo@VValue@v8@@@Nan@@@Z@4HA 0000000180030afc f   CanvasRenderingContext2d.obj
 0001:0002fb0a       ?dtor$6@?0??GetImageData@Context2d@@SAXAEBV?$FunctionCallbackInfo@VValue@v8@@@Nan@@@Z@4HA 0000000180030b0a f   CanvasRenderingContext2d.obj
 0001:0002fb20       ?dtor$0@?0??SetTextDrawingMode@Context2d@@SAXV?$Local@VString@v8@@@v8@@V?$Local@VValue@v8@@@3@AEBV?$PropertyCallbackInfo@X@Nan@@@Z@4HA 0000000180030b20 f   CanvasRenderingContext2d.obj
 0001:0002fb20       ?dtor$0@?0??StrokeText@Context2d@@SAXAEBV?$FunctionCallbackInfo@VValue@v8@@@Nan@@@Z@4HA 0000000180030b20 f   CanvasRenderingContext2d.obj
 0001:0002fb20       ?dtor$0@?0??SetStrokeColor@Context2d@@SAXAEBV?$FunctionCallbackInfo@VValue@v8@@@Nan@@@Z@4HA 0000000180030b20 f   CanvasRenderingContext2d.obj
 0001:0002fb20       ?dtor$0@?0??SetShadowColor@Context2d@@SAXV?$Local@VString@v8@@@v8@@V?$Local@VValue@v8@@@3@AEBV?$PropertyCallbackInfo@X@Nan@@@Z@4HA 0000000180030b20 f   CanvasRenderingContext2d.obj
 0001:0002fb20       ?dtor$0@?0??SetFilter@Context2d@@SAXV?$Local@VString@v8@@@v8@@V?$Local@VValue@v8@@@3@AEBV?$PropertyCallbackInfo@X@Nan@@@Z@4HA 0000000180030b20 f   CanvasRenderingContext2d.obj
 0001:0002fb20       ?dtor$0@?0??SetAntiAlias@Context2d@@SAXV?$Local@VString@v8@@@v8@@V?$Local@VValue@v8@@@3@AEBV?$PropertyCallbackInfo@X@Nan@@@Z@4HA 0000000180030b20 f   CanvasRenderingContext2d.obj
 0001:0002fb20       ?dtor$0@?0??SetFillColor@Context2d@@SAXAEBV?$FunctionCallbackInfo@VValue@v8@@@Nan@@@Z@4HA 0000000180030b20 f   CanvasRenderingContext2d.obj
 0001:0002fb20       ?dtor$0@?0??New@FontFace@@SAXAEBV?$FunctionCallbackInfo@VValue@v8@@@Nan@@@Z@4HA 0000000180030b20 f   FontFace.obj
 0001:0002fb20       ?dtor$0@?0??FillText@Context2d@@SAXAEBV?$FunctionCallbackInfo@VValue@v8@@@Nan@@@Z@4HA 0000000180030b20 f   CanvasRenderingContext2d.obj
 0001:0002fb30       ?dtor$0@?0??SetFont@Context2d@@SAXAEBV?$FunctionCallbackInfo@VValue@v8@@@Nan@@@Z@4HA 0000000180030b30 f   CanvasRenderingContext2d.obj
 0001:0002fb3e       ?dtor$1@?0??SetFont@Context2d@@SAXAEBV?$FunctionCallbackInfo@VValue@v8@@@Nan@@@Z@4HA 0000000180030b3e f   CanvasRenderingContext2d.obj
 0001:0002fb4c       ?dtor$2@?0??SetFont@Context2d@@SAXAEBV?$FunctionCallbackInfo@VValue@v8@@@Nan@@@Z@4HA 0000000180030b4c f   CanvasRenderingContext2d.obj
 0001:0002fb5a       ?dtor$3@?0??SetFont@Context2d@@SAXAEBV?$FunctionCallbackInfo@VValue@v8@@@Nan@@@Z@4HA 0000000180030b5a f   CanvasRenderingContext2d.obj
 0001:0002fb70       ?dtor$0@?0??MeasureText@Context2d@@SAXAEBV?$FunctionCallbackInfo@VValue@v8@@@Nan@@@Z@4HA 0000000180030b70 f   CanvasRenderingContext2d.obj
 0001:0002fb80       ?dtor$0@?0??GetLineDash@Context2d@@SAXAEBV?$FunctionCallbackInfo@VValue@v8@@@Nan@@@Z@4HA 0000000180030b80 f   CanvasRenderingContext2d.obj
 0001:0002fb80       ?dtor$0@?0??SetLineDash@Context2d@@SAXAEBV?$FunctionCallbackInfo@VValue@v8@@@Nan@@@Z@4HA 0000000180030b80 f   CanvasRenderingContext2d.obj
 0001:0002fb90       ?dtor$0@?0???0?$TypedArrayContents@E@Nan@@QEAA@V?$Local@VValue@v8@@@v8@@@Z@4HA 0000000180030b90 f   CanvasRenderingContext2d.obj
 0001:0002fba0       ?dtor$0@?0??Initialize@ImageData@@SAXV?$Local@VObject@v8@@@v8@@@Z@4HA 0000000180030ba0 f   ImageData.obj
 0001:0002fba0       ?dtor$0@?0??Initialize@Image@@SAXV?$Local@VObject@v8@@@v8@@@Z@4HA 0000000180030ba0 f   Image.obj
 0001:0002fbac       ?dtor$2@?0??Initialize@ImageData@@SAXV?$Local@VObject@v8@@@v8@@@Z@4HA 0000000180030bac f   ImageData.obj
 0001:0002fbac       ?dtor$2@?0??Initialize@Image@@SAXV?$Local@VObject@v8@@@v8@@@Z@4HA 0000000180030bac f   Image.obj
 0001:0002fbc0       ?dtor$0@?0??SetSource@Image@@SAXV?$Local@VString@v8@@@v8@@V?$Local@VValue@v8@@@3@AEBV?$PropertyCallbackInfo@X@Nan@@@Z@4HA 0000000180030bc0 f   Image.obj
 0001:0002fbce       ?dtor$1@?0??SetSource@Image@@SAXV?$Local@VString@v8@@@v8@@V?$Local@VValue@v8@@@3@AEBV?$PropertyCallbackInfo@X@Nan@@@Z@4HA 0000000180030bce f   Image.obj
 0001:0002fbda       ?dtor$4@?0??SetSource@Image@@SAXV?$Local@VString@v8@@@v8@@V?$Local@VValue@v8@@@3@AEBV?$PropertyCallbackInfo@X@Nan@@@Z@4HA 0000000180030bda f   Image.obj
 0001:0002fbf0       ?dtor$0@?0??SetOnload@Image@@SAXV?$Local@VString@v8@@@v8@@V?$Local@VValue@v8@@@3@AEBV?$PropertyCallbackInfo@X@Nan@@@Z@4HA 0000000180030bf0 f   Image.obj
 0001:0002fbf0       ?dtor$0@?0??SetOnerror@Image@@SAXV?$Local@VString@v8@@@v8@@V?$Local@VValue@v8@@@3@AEBV?$PropertyCallbackInfo@X@Nan@@@Z@4HA 0000000180030bf0 f   Image.obj
 0001:0002fc10       ?dtor$0@?0??init@@YAXV?$Local@VObject@v8@@@v8@@@Z@4HA 0000000180030c10 f   init.obj
 0001:0002fc1c       ?dtor$2@?0??init@@YAXV?$Local@VObject@v8@@@v8@@@Z@4HA 0000000180030c1c f   init.obj
 0001:0002fc2a       __scrt_is_nonwritable_in_current_image$filt$0 0000000180030c2a f   LIBCMT:utility.obj
 0001:0002fc42       ?fin$0@?0??dllmain_crt_process_attach@@YAHQEAUHINSTANCE__@@QEAX@Z@4HA 0000000180030c42 f   LIBCMT:dll_dllmain.obj
 0001:0002fc59       ?fin$0@?0??dllmain_crt_process_detach@@YAH_N@Z@4HA 0000000180030c59 f   LIBCMT:dll_dllmain.obj
 0001:0002fc75       ?filt$0@?0??dllmain_dispatch@@YAHQEAUHINSTANCE__@@KQEAX@Z@4HA 0000000180030c75 f   LIBCMT:dll_dllmain.obj
 0001:0002fcae       _CallSETranslator$filt$0   0000000180030cae f   libvcruntime:risctrnsctrl.obj
 0001:0002fd3f       __DestructExceptionObject$filt$0 0000000180030d3f f   libvcruntime:ehhelpers.obj
 0001:0002fd57       __CxxCallCatchBlock$filt$0 0000000180030d57 f   libvcruntime:frame.obj
 0001:0002fd7c       __CxxCallCatchBlock$fin$1  0000000180030d7c f   libvcruntime:frame.obj
 0001:0002fdf4       __FrameUnwindToState$filt$0 0000000180030df4 f   libvcruntime:frame.obj
 0001:0002fe0a       __FrameUnwindToState$fin$1 0000000180030e0a f   libvcruntime:frame.obj
 0001:0002fe2d       ?fin$0@?0???$?RV<lambda_0d412022a4b28cc8a401ea49574e8ae6>@@AEAV<lambda_a775ed57af18ba8e4d5dc780aa9068fe>@@V<lambda_975a71a6baa488a08f4e15f6b0339b9e>@@@?$__crt_seh_guarded_call@H@@QEAAH$$QEAV<lambda_0d412022a4b28cc8a401ea49574e8ae6>@@AEAV<lambda_a775ed57af18ba8e4d5dc780aa9068fe>@@$$QEAV<lambda_975a71a6baa488a08f4e15f6b0339b9e>@@@Z@4HA 0000000180030e2d f   libucrt:output.obj
 0001:0002fe2d       ?fin$0@?0???$?RV<lambda_84ec643ea9557e2f7dc01bb0e9624395>@@AEAV<lambda_ca71763b3c0644891230e4f79ea54fa6>@@V<lambda_439a761618c59b0600e24586724d733b>@@@?$__crt_seh_guarded_call@H@@QEAAH$$QEAV<lambda_84ec643ea9557e2f7dc01bb0e9624395>@@AEAV<lambda_ca71763b3c0644891230e4f79ea54fa6>@@$$QEAV<lambda_439a761618c59b0600e24586724d733b>@@@Z@4HA 0000000180030e2d f   libucrt:setvbuf.obj
 0001:0002fe2d       ?fin$0@?0???$?RV<lambda_c376a267cfb53b6959b3b692ec76b120>@@AEAV<lambda_9a32fed5bf61b6b509b2d3f6003082a1>@@V<lambda_572fbb9fa0ab338edf41edfd4b5fcc8d>@@@?$__crt_seh_guarded_call@H@@QEAAH$$QEAV<lambda_c376a267cfb53b6959b3b692ec76b120>@@AEAV<lambda_9a32fed5bf61b6b509b2d3f6003082a1>@@$$QEAV<lambda_572fbb9fa0ab338edf41edfd4b5fcc8d>@@@Z@4HA 0000000180030e2d f   libucrt:fflush.obj
 0001:0002fe2d       ?fin$0@?0???$?RV<lambda_842d9ff0dc9ef11c61343bbaebe7f885>@@AEAV<lambda_c5860995281e5c4ce005b3de8f5874ee>@@V<lambda_d90129c13df834fdcbf8d2b88dafcf2d>@@@?$__crt_seh_guarded_call@X@@QEAAX$$QEAV<lambda_842d9ff0dc9ef11c61343bbaebe7f885>@@AEAV<lambda_c5860995281e5c4ce005b3de8f5874ee>@@$$QEAV<lambda_d90129c13df834fdcbf8d2b88dafcf2d>@@@Z@4HA 0000000180030e2d f   libucrt:fflush.obj
 0001:0002fe48       ?fin$0@?0??common_fseek@@YAHV__crt_stdio_stream@@_JH@Z@4HA 0000000180030e48 f   libucrt:fseek.obj
 0001:0002fe48       fclose$fin$0               0000000180030e48 f   libucrt:fclose.obj
 0001:0002fe48       ?fin$0@?0???$common_ftell@J@@YAJV__crt_stdio_stream@@@Z@4HA 0000000180030e48 f   libucrt:ftell.obj
 0001:0002fe60       ?fin$0@?0???$common_fsopen@D@@YAPEAU_iobuf@@QEBD0H@Z@4HA 0000000180030e60 f   libucrt:fopen.obj
 0001:0002fe8b       fread_s$fin$0              0000000180030e8b f   libucrt:fread.obj
 0001:0002fea3       ?fin$0@?0???$?RV<lambda_3a04bfe258a31910a526c90b4d849d20>@@AEAV<lambda_1b3ad63c02abf531fe15530b52bade31>@@V<lambda_1755787d260f86bf828f8bf7552b2658>@@@?$__crt_seh_guarded_call@H@@QEAAH$$QEAV<lambda_3a04bfe258a31910a526c90b4d849d20>@@AEAV<lambda_1b3ad63c02abf531fe15530b52bade31>@@$$QEAV<lambda_1755787d260f86bf828f8bf7552b2658>@@@Z@4HA 0000000180030ea3 f   libucrt:stat.obj
 0001:0002febd       _query_new_handler$fin$0   0000000180030ebd f   libucrt:new_handler.obj
 0001:0002fed3       ?fin$0@?0???$?RV<lambda_f2e299630e499de9f9a165e60fcd3db5>@@AEAV<lambda_2ae9d31cdba2644fcbeaf08da7c24588>@@V<lambda_40d01ff24d0e7b3814fdbdcee8eab3c7>@@@?$__crt_seh_guarded_call@X@@QEAAX$$QEAV<lambda_f2e299630e499de9f9a165e60fcd3db5>@@AEAV<lambda_2ae9d31cdba2644fcbeaf08da7c24588>@@$$QEAV<lambda_40d01ff24d0e7b3814fdbdcee8eab3c7>@@@Z@4HA 0000000180030ed3 f   libucrt:per_thread_data.obj
 0001:0002fed3       ?fin$0@?0???$?RV<lambda_8369fcb7c4df1e85de37618bd2b85f07>@@AEAV<lambda_a10e4b102d4a2c3aac6f4f48bbdf488f>@@V<lambda_5b7707bd6d7a0c4713179f36c7fd995d>@@@?$__crt_seh_guarded_call@H@@QEAAH$$QEAV<lambda_8369fcb7c4df1e85de37618bd2b85f07>@@AEAV<lambda_a10e4b102d4a2c3aac6f4f48bbdf488f>@@$$QEAV<lambda_5b7707bd6d7a0c4713179f36c7fd995d>@@@Z@4HA 0000000180030ed3 f   libucrt:onexit.obj
 0001:0002fed3       ?fin$0@?0???$?RV<lambda_aa87e3671a710a21b5dc78c0bdf72e11>@@AEAV<lambda_92619d2358a28f41a33ba319515a20b9>@@V<lambda_6992ecaafeb10aed2b74cb1fae11a551>@@@?$__crt_seh_guarded_call@X@@QEAAX$$QEAV<lambda_aa87e3671a710a21b5dc78c0bdf72e11>@@AEAV<lambda_92619d2358a28f41a33ba319515a20b9>@@$$QEAV<lambda_6992ecaafeb10aed2b74cb1fae11a551>@@@Z@4HA 0000000180030ed3 f   libucrt:per_thread_data.obj
 0001:0002fed3       ?fin$0@?0???$?RV<lambda_2d41944a1d46af3157314b8a01080d33>@@AEAV<lambda_8f455de75cd7d7f24b4096f044d8b9e6>@@V<lambda_aa500f224e6afead328df44964fe2772>@@@?$__crt_seh_guarded_call@X@@QEAAX$$QEAV<lambda_2d41944a1d46af3157314b8a01080d33>@@AEAV<lambda_8f455de75cd7d7f24b4096f044d8b9e6>@@$$QEAV<lambda_aa500f224e6afead328df44964fe2772>@@@Z@4HA 0000000180030ed3 f   libucrt:per_thread_data.obj
 0001:0002fed3       ?fin$0@?0???$?RV<lambda_7777bce6b2f8c936911f934f8298dc43>@@AEAV<lambda_f03950bc5685219e0bcd2087efbe011e>@@V<lambda_3883c3dff614d5e0c5f61bb1ac94921c>@@@?$__crt_seh_guarded_call@H@@QEAAH$$QEAV<lambda_7777bce6b2f8c936911f934f8298dc43>@@AEAV<lambda_f03950bc5685219e0bcd2087efbe011e>@@$$QEAV<lambda_3883c3dff614d5e0c5f61bb1ac94921c>@@@Z@4HA 0000000180030ed3 f   libucrt:onexit.obj
 0001:0002fed3       ?fin$0@?0???$?RV<lambda_efdfa57d1f175319df784efa44bb7b81>@@AEAV<lambda_5f0a4c1567f8adc6734073e5d1e1b35c>@@V<lambda_2e8a7d3640ea6ccb4c2413664c2db6fd>@@@?$__crt_seh_guarded_call@X@@QEAAX$$QEAV<lambda_efdfa57d1f175319df784efa44bb7b81>@@AEAV<lambda_5f0a4c1567f8adc6734073e5d1e1b35c>@@$$QEAV<lambda_2e8a7d3640ea6ccb4c2413664c2db6fd>@@@Z@4HA 0000000180030ed3 f   libucrt:mbctype.obj
 0001:0002fed3       ?fin$0@?0???$?RV<lambda_0ae27a3a962d80f24befdcbee591983d>@@AEAV<lambda_8d0ee55de4b1038c4002e0adecdf1839>@@V<lambda_dc504788e8f1664fe9b84e20bfb512f2>@@@?$__crt_seh_guarded_call@X@@QEAAX$$QEAV<lambda_0ae27a3a962d80f24befdcbee591983d>@@AEAV<lambda_8d0ee55de4b1038c4002e0adecdf1839>@@$$QEAV<lambda_dc504788e8f1664fe9b84e20bfb512f2>@@@Z@4HA 0000000180030ed3 f   libucrt:per_thread_data.obj
 0001:0002fed3       ?fin$0@?0???$?RV<lambda_d80eeec6fff315bfe5c115232f3240e3>@@AEAV<lambda_6e4b09c48022b2350581041d5f6b0c4c>@@V<lambda_2358e3775559c9db80273638284d5e45>@@@?$__crt_seh_guarded_call@X@@QEAAX$$QEAV<lambda_d80eeec6fff315bfe5c115232f3240e3>@@AEAV<lambda_6e4b09c48022b2350581041d5f6b0c4c>@@$$QEAV<lambda_2358e3775559c9db80273638284d5e45>@@@Z@4HA 0000000180030ed3 f   libucrt:exit.obj
 0001:0002fed3       ?fin$0@?0???$?RV<lambda_450d765d439847d4c735a33c368b5fc0>@@AEAV<lambda_44731a7d0e6d81c3e6aa82d741081786>@@V<lambda_601a2a7da3b7a96e9554ac7215c4b07c>@@@?$__crt_seh_guarded_call@P6AXH@Z@@QEAAP6AXH@Z$$QEAV<lambda_450d765d439847d4c735a33c368b5fc0>@@AEAV<lambda_44731a7d0e6d81c3e6aa82d741081786>@@$$QEAV<lambda_601a2a7da3b7a96e9554ac7215c4b07c>@@@Z@4HA 0000000180030ed3 f   libucrt:signal.obj
 0001:0002feed       ?filt$0@?0???R<lambda_6e4b09c48022b2350581041d5f6b0c4c>@@QEBA@XZ@4HA 0000000180030eed f   libucrt:exit.obj
 0001:0002ff08       ?fin$0@?0???$?RV<lambda_886d6c58226a84441f68b9f2b8217b83>@@AEAV<lambda_ab61a845afdef5b7c387490eaf3616ee>@@V<lambda_f7f22ab5edc0698d5f6905b0d3f44752>@@@?$__crt_seh_guarded_call@X@@QEAAX$$QEAV<lambda_886d6c58226a84441f68b9f2b8217b83>@@AEAV<lambda_ab61a845afdef5b7c387490eaf3616ee>@@$$QEAV<lambda_f7f22ab5edc0698d5f6905b0d3f44752>@@@Z@4HA 0000000180030f08 f   libucrt:fflush.obj
 0001:0002ff25       raise$fin$0                0000000180030f25 f   libucrt:signal.obj
 0001:0002ff46       ?fin$0@?0??__acrt_stdio_allocate_stream@@YA?AV__crt_stdio_stream@@XZ@4HA 0000000180030f46 f   libucrt:stream.obj
 0001:0002ff46       _fcloseall$fin$0           0000000180030f46 f   libucrt:closeall.obj
 0001:0002ff5f       __acrt_initialize_lowio$fin$0 0000000180030f5f f   libucrt:ioinit.obj
 0001:0002ff5f       _alloc_osfhnd$fin$0        0000000180030f5f f   libucrt:osfinfo.obj
 0001:0002ff5f       __acrt_lowio_ensure_fh_exists$fin$0 0000000180030f5f f   libucrt:osfinfo.obj
 0001:0002ff78       ?fin$0@?0???$?RV<lambda_410d79af7f07d98d83a3f525b3859a53>@@AEAV<lambda_3e16ef9562a7dcce91392c22ab16ea36>@@V<lambda_38119f0e861e05405d8a144b9b982f0a>@@@?$__crt_seh_guarded_call@X@@QEAAX$$QEAV<lambda_410d79af7f07d98d83a3f525b3859a53>@@AEAV<lambda_3e16ef9562a7dcce91392c22ab16ea36>@@$$QEAV<lambda_38119f0e861e05405d8a144b9b982f0a>@@@Z@4HA 0000000180030f78 f   libucrt:wsetlocale.obj
 0001:0002ff92       ?fin$0@?0???$common_lseek@_J@@YA_JH_JH@Z@4HA 0000000180030f92 f   libucrt:lseek.obj
 0001:0002ff92       _write$fin$0               0000000180030f92 f   libucrt:write.obj
 0001:0002ffa9       _read$fin$0                0000000180030fa9 f   libucrt:read.obj
 0001:0002ffc0       ?fin$0@?0???$?RV<lambda_a37b2b86f63e897a80ea819b0eb08c01>@@AEAV<lambda_38ce7e780aa69e748d6df282ebc68efe>@@V<lambda_99fb1378e971ab6e7edea83e3a7a83a2>@@@?$__crt_seh_guarded_call@H@@QEAAH$$QEAV<lambda_a37b2b86f63e897a80ea819b0eb08c01>@@AEAV<lambda_38ce7e780aa69e748d6df282ebc68efe>@@$$QEAV<lambda_99fb1378e971ab6e7edea83e3a7a83a2>@@@Z@4HA 0000000180030fc0 f   libucrt:commit.obj
 0001:0002ffc0       ?fin$0@?0???$?RV<lambda_751a882b2c74d4b022dec766aa51a29a>@@AEAV<lambda_628dfdc04ba53c8bfc02c9951375f3f5>@@V<lambda_f6c7be5f7998530c34de24c7437d6b54>@@@?$__crt_seh_guarded_call@H@@QEAAH$$QEAV<lambda_751a882b2c74d4b022dec766aa51a29a>@@AEAV<lambda_628dfdc04ba53c8bfc02c9951375f3f5>@@$$QEAV<lambda_f6c7be5f7998530c34de24c7437d6b54>@@@Z@4HA 0000000180030fc0 f   libucrt:close.obj
 0001:0002ffda       ?fin$0@?0??update_thread_multibyte_data_internal@@YAPEAU__crt_multibyte_data@@QEAU__acrt_ptd@@QEAPEAU1@@Z@4HA 0000000180030fda f   libucrt:mbctype.obj
 0001:0002fff3       _ctrlfp$filt$0             0000000180030ff3 f   libucrt:fpctrl.obj
 0001:0003001f       __acrt_update_thread_locale_data$fin$0 000000018003101f f   libucrt:locale_refcounting.obj
 0001:00030038       ?fin$0@?0???$common_sopen_dispatch@D@@YAHQEBDHHHQEAHH@Z@4HA 0000000180031038 f   libucrt:open.obj
 0001:0003008b       _isindst$fin$0             000000018003108b f   libucrt:tzset.obj
 0001:0003008b       __tzset$fin$0              000000018003108b f   libucrt:tzset.obj
 0001:000300a4       ?fin$0@?0???$common_getenv_s@D@@YAHQEA_KQEAD_KQEBD@Z@4HA 00000001800310a4 f   libucrt:getenv.obj
 0001:000300c0       _IsNonwritableInCurrentImage$filt$0 00000001800310c0 f   LIBCMT:pesect.obj
 0001:000300e0       ??__F?constructor@Canvas@@2V?$Persistent@VFunctionTemplate@v8@@V?$NonCopyablePersistentTraits@VFunctionTemplate@v8@@@2@@Nan@@A@@YAXXZ 00000001800310e0 f   Canvas.obj
 0001:00030100       ??__F?constructor@Gradient@@2V?$Persistent@VFunctionTemplate@v8@@V?$NonCopyablePersistentTraits@VFunctionTemplate@v8@@@2@@Nan@@A@@YAXXZ 0000000180031100 f   CanvasGradient.obj
 0001:00030120       ??__F?constructor@Pattern@@2V?$Persistent@VFunctionTemplate@v8@@V?$NonCopyablePersistentTraits@VFunctionTemplate@v8@@@2@@Nan@@A@@YAXXZ 0000000180031120 f   CanvasPattern.obj
 0001:00030140       ??__F?constructor@Context2d@@2V?$Persistent@VFunctionTemplate@v8@@V?$NonCopyablePersistentTraits@VFunctionTemplate@v8@@@2@@Nan@@A@@YAXXZ 0000000180031140 f   CanvasRenderingContext2d.obj
 0001:00030160       ??__F?constructor@Image@@2V?$Persistent@VFunctionTemplate@v8@@V?$NonCopyablePersistentTraits@VFunctionTemplate@v8@@@2@@Nan@@A@@YAXXZ 0000000180031160 f   Image.obj
 0001:00030180       ??__F?constructor@ImageData@@2V?$Persistent@VFunctionTemplate@v8@@V?$NonCopyablePersistentTraits@VFunctionTemplate@v8@@@2@@Nan@@A@@YAXXZ 0000000180031180 f   ImageData.obj
 0001:000301a0       ??__F?constructor@FontFace@@2V?$Persistent@VFunctionTemplate@v8@@V?$NonCopyablePersistentTraits@VFunctionTemplate@v8@@@2@@Nan@@A@@YAXXZ 00000001800311a0 f   FontFace.obj
 0002:000002b8       .idata$5                   00000001800322b8     libpng16-16:daofs00011.o
 0002:000002c0       .idata$5                   00000001800322c0     libpng16-16:daofs00015.o
 0002:000002c8       .idata$5                   00000001800322c8     libpng16-16:daofs00019.o
 0002:000002d0       .idata$5                   00000001800322d0     libpng16-16:daofs00020.o
 0002:000002d8       .idata$5                   00000001800322d8     libpng16-16:daofs00044.o
 0002:000002e0       .idata$5                   00000001800322e0     libpng16-16:daofs00058.o
 0002:000002e8       .idata$5                   00000001800322e8     libpng16-16:daofs00149.o
 0002:000002f0       .idata$5                   00000001800322f0     libpng16-16:daofs00155.o
 0002:000002f8       .idata$5                   00000001800322f8     libpng16-16:daofs00168.o
 0002:00000300       .idata$5                   0000000180032300     libpng16-16:daofs00180.o
 0002:00000308       .idata$5                   0000000180032308     libpng16-16:daofs00181.o
 0002:00000310       .idata$5                   0000000180032310     libpng16-16:daofs00198.o
 0002:00000318       .idata$5                   0000000180032318     libpng16-16:daofs00206.o
 0002:00000320       .idata$5                   0000000180032320     libpng16-16:daofs00245.o
 0002:00000328       .idata$5                   0000000180032328     libpng16-16:daofs00247.o
 0002:00000330       .idata$5                   0000000180032330     libpng16-16:daofs00255.o
 0002:00000338       .idata$5                   0000000180032338     libpng16-16:daofs00259.o
 0002:00000340       .idata$5                   0000000180032340     libpng16-16:daofs00260.o
 0002:00000350       .idata$5                   0000000180032350     libcairo-2:deqes00000.o
 0002:00000358       .idata$5                   0000000180032358     libcairo-2:deqes00001.o
 0002:00000360       .idata$5                   0000000180032360     libcairo-2:deqes00002.o
 0002:00000368       .idata$5                   0000000180032368     libcairo-2:deqes00003.o
 0002:00000370       .idata$5                   0000000180032370     libcairo-2:deqes00005.o
 0002:00000378       .idata$5                   0000000180032378     libcairo-2:deqes00006.o
 0002:00000380       .idata$5                   0000000180032380     libcairo-2:deqes00010.o
 0002:00000388       .idata$5                   0000000180032388     libcairo-2:deqes00011.o
 0002:00000390       .idata$5                   0000000180032390     libcairo-2:deqes00012.o
 0002:00000398       .idata$5                   0000000180032398     libcairo-2:deqes00014.o
 0002:000003a0       .idata$5                   00000001800323a0     libcairo-2:deqes00035.o
 0002:000003a8       .idata$5                   00000001800323a8     libcairo-2:deqes00036.o
 0002:000003b0       .idata$5                   00000001800323b0     libcairo-2:deqes00037.o
 0002:000003b8       .idata$5                   00000001800323b8     libcairo-2:deqes00038.o
 0002:000003c0       .idata$5                   00000001800323c0     libcairo-2:deqes00039.o
 0002:000003c8       .idata$5                   00000001800323c8     libcairo-2:deqes00043.o
 0002:000003d0       .idata$5                   00000001800323d0     libcairo-2:deqes00044.o
 0002:000003d8       .idata$5                   00000001800323d8     libcairo-2:deqes00061.o
 0002:000003e0       .idata$5                   00000001800323e0     libcairo-2:deqes00062.o
 0002:000003e8       .idata$5                   00000001800323e8     libcairo-2:deqes00070.o
 0002:000003f0       .idata$5                   00000001800323f0     libcairo-2:deqes00071.o
 0002:000003f8       .idata$5                   00000001800323f8     libcairo-2:deqes00072.o
 0002:00000400       .idata$5                   0000000180032400     libcairo-2:deqes00073.o
 0002:00000408       .idata$5                   0000000180032408     libcairo-2:deqes00079.o
 0002:00000410       .idata$5                   0000000180032410     libcairo-2:deqes00080.o
 0002:00000418       .idata$5                   0000000180032418     libcairo-2:deqes00081.o
 0002:00000420       .idata$5                   0000000180032420     libcairo-2:deqes00082.o
 0002:00000428       .idata$5                   0000000180032428     libcairo-2:deqes00083.o
 0002:00000430       .idata$5                   0000000180032430     libcairo-2:deqes00084.o
 0002:00000438       .idata$5                   0000000180032438     libcairo-2:deqes00087.o
 0002:00000440       .idata$5                   0000000180032440     libcairo-2:deqes00096.o
 0002:00000448       .idata$5                   0000000180032448     libcairo-2:deqes00097.o
 0002:00000450       .idata$5                   0000000180032450     libcairo-2:deqes00098.o
 0002:00000458       .idata$5                   0000000180032458     libcairo-2:deqes00099.o
 0002:00000460       .idata$5                   0000000180032460     libcairo-2:deqes00100.o
 0002:00000468       .idata$5                   0000000180032468     libcairo-2:deqes00101.o
 0002:00000470       .idata$5                   0000000180032470     libcairo-2:deqes00102.o
 0002:00000478       .idata$5                   0000000180032478     libcairo-2:deqes00103.o
 0002:00000480       .idata$5                   0000000180032480     libcairo-2:deqes00104.o
 0002:00000488       .idata$5                   0000000180032488     libcairo-2:deqes00105.o
 0002:00000490       .idata$5                   0000000180032490     libcairo-2:deqes00107.o
 0002:00000498       .idata$5                   0000000180032498     libcairo-2:deqes00108.o
 0002:000004a0       .idata$5                   00000001800324a0     libcairo-2:deqes00109.o
 0002:000004a8       .idata$5                   00000001800324a8     libcairo-2:deqes00111.o
 0002:000004b0       .idata$5                   00000001800324b0     libcairo-2:deqes00112.o
 0002:000004b8       .idata$5                   00000001800324b8     libcairo-2:deqes00136.o
 0002:000004c0       .idata$5                   00000001800324c0     libcairo-2:deqes00137.o
 0002:000004c8       .idata$5                   00000001800324c8     libcairo-2:deqes00139.o
 0002:000004d0       .idata$5                   00000001800324d0     libcairo-2:deqes00140.o
 0002:000004d8       .idata$5                   00000001800324d8     libcairo-2:deqes00141.o
 0002:000004e0       .idata$5                   00000001800324e0     libcairo-2:deqes00144.o
 0002:000004e8       .idata$5                   00000001800324e8     libcairo-2:deqes00145.o
 0002:000004f0       .idata$5                   00000001800324f0     libcairo-2:deqes00146.o
 0002:000004f8       .idata$5                   00000001800324f8     libcairo-2:deqes00148.o
 0002:00000500       .idata$5                   0000000180032500     libcairo-2:deqes00152.o
 0002:00000508       .idata$5                   0000000180032508     libcairo-2:deqes00156.o
 0002:00000510       .idata$5                   0000000180032510     libcairo-2:deqes00166.o
 0002:00000518       .idata$5                   0000000180032518     libcairo-2:deqes00167.o
 0002:00000520       .idata$5                   0000000180032520     libcairo-2:deqes00174.o
 0002:00000528       .idata$5                   0000000180032528     libcairo-2:deqes00178.o
 0002:00000530       .idata$5                   0000000180032530     libcairo-2:deqes00182.o
 0002:00000538       .idata$5                   0000000180032538     libcairo-2:deqes00194.o
 0002:00000540       .idata$5                   0000000180032540     libcairo-2:deqes00209.o
 0002:00000548       .idata$5                   0000000180032548     libcairo-2:deqes00239.o
 0002:00000550       .idata$5                   0000000180032550     libcairo-2:deqes00240.o
 0002:00000558       .idata$5                   0000000180032558     libcairo-2:deqes00241.o
 0002:00000560       .idata$5                   0000000180032560     libcairo-2:deqes00242.o
 0002:00000568       .idata$5                   0000000180032568     libcairo-2:deqes00268.o
 0002:00000570       .idata$5                   0000000180032570     libcairo-2:deqes00269.o
 0002:00000578       .idata$5                   0000000180032578     libcairo-2:deqes00270.o
 0002:00000580       .idata$5                   0000000180032580     libcairo-2:deqes00271.o
 0002:00000588       .idata$5                   0000000180032588     libcairo-2:deqes00272.o
 0002:00000590       .idata$5                   0000000180032590     libcairo-2:deqes00275.o
 0002:00000598       .idata$5                   0000000180032598     libcairo-2:deqes00276.o
 0002:000005a0       .idata$5                   00000001800325a0     libcairo-2:deqes00277.o
 0002:000005a8       .idata$5                   00000001800325a8     libcairo-2:deqes00278.o
 0002:000005b0       .idata$5                   00000001800325b0     libcairo-2:deqes00280.o
 0002:000005b8       .idata$5                   00000001800325b8     libcairo-2:deqes00281.o
 0002:000005c0       .idata$5                   00000001800325c0     libcairo-2:deqes00283.o
 0002:000005c8       .idata$5                   00000001800325c8     libcairo-2:deqes00285.o
 0002:000005d0       .idata$5                   00000001800325d0     libcairo-2:deqes00286.o
 0002:000005d8       .idata$5                   00000001800325d8     libcairo-2:deqes00290.o
 0002:000005e0       .idata$5                   00000001800325e0     libcairo-2:deqes00291.o
 0002:000005e8       .idata$5                   00000001800325e8     libcairo-2:deqes00294.o
 0002:000005f0       .idata$5                   00000001800325f0     libcairo-2:deqes00295.o
 0002:000005f8       .idata$5                   00000001800325f8     libcairo-2:deqes00296.o
 0002:00000600       .idata$5                   0000000180032600     libcairo-2:deqes00297.o
 0002:00000608       .idata$5                   0000000180032608     libcairo-2:deqes00303.o
 0002:00000610       .idata$5                   0000000180032610     libcairo-2:deqes00304.o
 0002:00000618       .idata$5                   0000000180032618     libcairo-2:deqes00305.o
 0002:00000620       .idata$5                   0000000180032620     libcairo-2:deqes00318.o
 0002:00000628       .idata$5                   0000000180032628     libcairo-2:deqes00319.o
 0002:00000630       .idata$5                   0000000180032630     libcairo-2:deqes00333.o
 0002:00000638       .idata$5                   0000000180032638     libcairo-2:deqes00336.o
 0002:00000640       .idata$5                   0000000180032640     libcairo-2:deqes00343.o
 0002:00000648       .idata$5                   0000000180032648     libcairo-2:deqes00356.o
 0002:00000650       .idata$5                   0000000180032650     libcairo-2:deqes00357.o
 0002:00000658       .idata$5                   0000000180032658     libcairo-2:deqes00362.o
 0002:00000660       .idata$5                   0000000180032660     libcairo-2:deqes00363.o
 0002:00000668       .idata$5                   0000000180032668     libcairo-2:deqes00374.o
 0002:00000670       .idata$5                   0000000180032670     libcairo-2:deqes00376.o
 0002:00000680       .idata$5                   0000000180032680     libgif-7:dmscs00000.o
 0002:00000688       .idata$5                   0000000180032688     libgif-7:dmscs00012.o
 0002:00000690       .idata$5                   0000000180032690     libgif-7:dmscs00016.o
 0002:000006a0       .idata$5                   00000001800326a0     libjpeg-8:dsfes00031.o
 0002:000006a8       .idata$5                   00000001800326a8     libjpeg-8:dsfes00032.o
 0002:000006b0       .idata$5                   00000001800326b0     libjpeg-8:dsfes00035.o
 0002:000006b8       .idata$5                   00000001800326b8     libjpeg-8:dsfes00049.o
 0002:000006c0       .idata$5                   00000001800326c0     libjpeg-8:dsfes00050.o
 0002:000006c8       .idata$5                   00000001800326c8     libjpeg-8:dsfes00055.o
 0002:000006d0       .idata$5                   00000001800326d0     libjpeg-8:dsfes00056.o
 0002:000006d8       .idata$5                   00000001800326d8     libjpeg-8:dsfes00089.o
 0002:000006e0       .idata$5                   00000001800326e0     libjpeg-8:dsfes00096.o
 0002:000006e8       .idata$5                   00000001800326e8     libjpeg-8:dsfes00098.o
 0002:000006f0       .idata$5                   00000001800326f0     libjpeg-8:dsfes00102.o
 0002:000006f8       .idata$5                   00000001800326f8     libjpeg-8:dsfes00105.o
 0002:00000700       .idata$5                   0000000180032700     libjpeg-8:dsfes00106.o
 0002:00000708       .idata$5                   0000000180032708     libjpeg-8:dsfes00108.o
 0002:00000710       .idata$5                   0000000180032710     libjpeg-8:dsfes00109.o
 0002:00000718       .idata$5                   0000000180032718     libjpeg-8:dsfes00111.o
 0002:00000720       .idata$5                   0000000180032720     libjpeg-8:dsfes00114.o
 0002:00000728       .idata$5                   0000000180032728     libjpeg-8:dsfes00121.o
 0002:00000738       .idata$5                   0000000180032738     libfreetype-6:dwbbs00033.o
 0002:00000740       .idata$5                   0000000180032740     libfreetype-6:dwbbs00103.o
 0002:00000748       .idata$5                   0000000180032748     libfreetype-6:dwbbs00121.o
 0002:00000780       ??constructor$initializer$@Canvas@@2P6AXXZEA@@3P6AXXZEA 0000000180032780     Canvas.obj
 0002:00000788       ??constructor$initializer$@Gradient@@2P6AXXZEA@@3P6AXXZEA 0000000180032788     CanvasGradient.obj
 0002:00000790       ??constructor$initializer$@Pattern@@2P6AXXZEA@@3P6AXXZEA 0000000180032790     CanvasPattern.obj
 0002:00000798       ??constructor$initializer$@Context2d@@2P6AXXZEA@@3P6AXXZEA 0000000180032798     CanvasRenderingContext2d.obj
 0002:000007a0       ??constructor$initializer$@Image@@2P6AXXZEA@@3P6AXXZEA 00000001800327a0     Image.obj
 0002:000007a8       ??constructor$initializer$@ImageData@@2P6AXXZEA@@3P6AXXZEA 00000001800327a8     ImageData.obj
 0002:000007b0       ??constructor$initializer$@FontFace@@2P6AXXZEA@@3P6AXXZEA 00000001800327b0     FontFace.obj
 0002:000008e0       GS_ExceptionPointers       00000001800328e0     LIBCMT:gs_report.obj
 0002:00000920       ?ExceptionTemplate@?1??_UnwindNestedFrames@@9@4U_EXCEPTION_RECORD@@B 0000000180032920     libvcruntime:risctrnsctrl.obj
 0002:000009c0       ?ExceptionTemplate@?1??_CxxThrowException@@9@4UEHExceptionRecord@@B 00000001800329c0     libvcruntime:throw.obj
 0002:00000a28       ?module_names@?A0xbfbae6a7@@3QBQEB_WB 0000000180032a28     libvcruntime:winapi_downlevel.obj
 0002:00000af8       ?candidate_modules@?1??try_get_FlsAlloc@@YAP6AKP6AXPEAX@Z@ZXZ@4QBW4module_id@?A0xbfbae6a7@@B 0000000180032af8     libvcruntime:winapi_downlevel.obj
 0002:00000b10       ?candidate_modules@?1??try_get_FlsFree@@YAP6AHK@ZXZ@4QBW4module_id@?A0xbfbae6a7@@B 0000000180032b10     libvcruntime:winapi_downlevel.obj
 0002:00000b20       ?candidate_modules@?1??try_get_FlsGetValue@@YAP6APEAXK@ZXZ@4QBW4module_id@?A0xbfbae6a7@@B 0000000180032b20     libvcruntime:winapi_downlevel.obj
 0002:00000b38       ?candidate_modules@?1??try_get_FlsSetValue@@YAP6AHKPEAX@ZXZ@4QBW4module_id@?A0xbfbae6a7@@B 0000000180032b38     libvcruntime:winapi_downlevel.obj
 0002:00000b50       ?candidate_modules@?1??try_get_InitializeCriticalSectionEx@@YAP6AHPEAU_RTL_CRITICAL_SECTION@@KK@ZXZ@4QBW4module_id@?A0xbfbae6a7@@B 0000000180032b50     libvcruntime:winapi_downlevel.obj
 0002:00000b80       ?tokenTable@@3QBQEBDB      0000000180032b80     libvcruntime:undname.obj
 0002:00000bf0       ?nameTable@@3QBQEBDB       0000000180032bf0     libvcruntime:undname.obj
 0002:00000e80       ?rttiTable@@3QBQEBDB       0000000180032e80     libvcruntime:undname.obj
 0002:000019c0       __acrt_initializers        00000001800339c0     libucrt:initialization.obj
 0002:00001ac0       ?errtable@@3QBUerrentry@?A0x31fdb9ec@@B 0000000180033ac0     libucrt:errno.obj
 0002:00001c20       ?module_names@?A0x391cf84c@@3QBQEB_WB 0000000180033c20     libucrt:winapi_thunks.obj
 0002:00002118       ?candidate_modules@?1??try_get_AreFileApisANSI@@YAP6AHXZXZ@4QBW4module_id@?A0x391cf84c@@B 0000000180034118     libucrt:winapi_thunks.obj
 0002:00002130       ?candidate_modules@?1??try_get_CompareStringEx@@YAP6AHPEB_WK0H0HPEAU_nlsversioninfo@@PEAX_J@ZXZ@4QBW4module_id@?A0x391cf84c@@B 0000000180034130     libucrt:winapi_thunks.obj
 0002:00002148       ?candidate_modules@?1??try_get_FlsAlloc@@YAP6AKP6AXPEAX@Z@ZXZ@4QBW4module_id@?A0x391cf84c@@B 0000000180034148     libucrt:winapi_thunks.obj
 0002:00002150       ?candidate_modules@?1??try_get_FlsFree@@YAP6AHK@ZXZ@4QBW4module_id@?A0x391cf84c@@B 0000000180034150     libucrt:winapi_thunks.obj
 0002:00002158       ?candidate_modules@?1??try_get_FlsGetValue@@YAP6APEAXK@ZXZ@4QBW4module_id@?A0x391cf84c@@B 0000000180034158     libucrt:winapi_thunks.obj
 0002:00002160       ?candidate_modules@?1??try_get_FlsSetValue@@YAP6AHKPEAX@ZXZ@4QBW4module_id@?A0x391cf84c@@B 0000000180034160     libucrt:winapi_thunks.obj
 0002:00002168       ?candidate_modules@?1??try_get_GetActiveWindow@@YAP6APEAUHWND__@@XZXZ@4QBW4module_id@?A0x391cf84c@@B 0000000180034168     libucrt:winapi_thunks.obj
 0002:00002180       ?candidate_modules@?1??try_get_GetLastActivePopup@@YAP6APEAUHWND__@@PEAU2@@ZXZ@4QBW4module_id@?A0x391cf84c@@B 0000000180034180     libucrt:winapi_thunks.obj
 0002:000021a0       ?candidate_modules@?1??try_get_GetProcessWindowStation@@YAP6APEAUHWINSTA__@@XZXZ@4QBW4module_id@?A0x391cf84c@@B 00000001800341a0     libucrt:winapi_thunks.obj
 0002:000021c0       ?candidate_modules@?1??try_get_GetUserObjectInformationW@@YAP6AHPEAXH0KPEAK@ZXZ@4QBW4module_id@?A0x391cf84c@@B 00000001800341c0     libucrt:winapi_thunks.obj
 0002:000021e8       ?candidate_modules@?1??try_get_InitializeCriticalSectionEx@@YAP6AHPEAU_RTL_CRITICAL_SECTION@@KK@ZXZ@4QBW4module_id@?A0x391cf84c@@B 00000001800341e8     libucrt:winapi_thunks.obj
 0002:000021f0       ?candidate_modules@?1??try_get_LCMapStringEx@@YAP6AHPEB_WK0HPEA_WHPEAU_nlsversioninfo@@PEAX_J@ZXZ@4QBW4module_id@?A0x391cf84c@@B 00000001800341f0     libucrt:winapi_thunks.obj
 0002:00002208       ?candidate_modules@?1??try_get_LocaleNameToLCID@@YAP6AKPEB_WK@ZXZ@4QBW4module_id@?A0x391cf84c@@B 0000000180034208     libucrt:winapi_thunks.obj
 0002:00002228       ?candidate_modules@?1??try_get_MessageBoxA@@YAP6AHPEAUHWND__@@PEBD1I@ZXZ@4QBW4module_id@?A0x391cf84c@@B 0000000180034228     libucrt:winapi_thunks.obj
 0002:00002240       ?candidate_modules@?1??try_get_MessageBoxW@@YAP6AHPEAUHWND__@@PEB_W1I@ZXZ@4QBW4module_id@?A0x391cf84c@@B 0000000180034240     libucrt:winapi_thunks.obj
 0002:00002254       ?candidate_modules@?1??try_get_AppPolicyGetProcessTerminationMethod@@YAP6AJPEAXPEAW4AppPolicyProcessTerminationMethod@@@ZXZ@4QBW4module_id@?A0x391cf84c@@B 0000000180034254     libucrt:winapi_thunks.obj
 0002:00002280       ?candidate_modules@?1??try_get_AppPolicyGetShowDeveloperDiagnostic@@YAP6AJPEAXPEAW4AppPolicyShowDeveloperDiagnostic@@@ZXZ@4QBW4module_id@?A0x391cf84c@@B 0000000180034280     libucrt:winapi_thunks.obj
 0002:000022ac       ?candidate_modules@?1??try_get_AppPolicyGetWindowingModel@@YAP6AJPEAXPEAW4AppPolicyWindowingModel@@@ZXZ@4QBW4module_id@?A0x391cf84c@@B 00000001800342ac     libucrt:winapi_thunks.obj
 0002:000029c8       ?_mb_locale_names@@3QBQEB_WB 00000001800349c8     libucrt:mbctype.obj
 0002:00003c30       ?LocaleNameToIndexTable@?A0x881e4c05@@3QBULocaleNameIndex@1@B 0000000180035c30     libucrt:lcidtoname_downlevel.obj
 0002:000054d0       ?LcidToLocaleNameTable@?A0x881e4c05@@3QBULcidToLocaleName@1@B 00000001800374d0     libucrt:lcidtoname_downlevel.obj
 0002:00006fb0       __real@433fffffffffffff    0000000180038fb0     libucrt:fpsr.obj
 0002:00006fb8       __real@c33fffffffffffff    0000000180038fb8     libucrt:fpsr.obj
 0002:00006fc0       __real_ninf                0000000180038fc0     libucrt:log10.obj
 0002:00006fd0       __real_inf                 0000000180038fd0     libucrt:log10.obj
 0002:00006fe0       __real_neg_qnan            0000000180038fe0     libucrt:log10.obj
 0002:00006ff0       __real_qnanbit             0000000180038ff0     libucrt:log10.obj
 0002:00007000       __int_1023                 0000000180039000     libucrt:log10.obj
 0002:00007010       __mask_001                 0000000180039010     libucrt:log10.obj
 0002:00007020       __mask_mant                0000000180039020     libucrt:log10.obj
 0002:00007030       __mask_mant_top8           0000000180039030     libucrt:log10.obj
 0002:00007040       __mask_mant9               0000000180039040     libucrt:log10.obj
 0002:00007050       __real_log10_e             0000000180039050     libucrt:log10.obj
 0002:00007060       __real_log10_e_lead        0000000180039060     libucrt:log10.obj
 0002:00007070       __real_log10_e_tail        0000000180039070     libucrt:log10.obj
 0002:00007080       __real_log10_2_lead        0000000180039080     libucrt:log10.obj
 0002:00007090       __real_log10_2_tail        0000000180039090     libucrt:log10.obj
 0002:000070a0       __real_two                 00000001800390a0     libucrt:log10.obj
 0002:000070b0       __real_one                 00000001800390b0     libucrt:log10.obj
 0002:000070c0       __real_half                00000001800390c0     libucrt:log10.obj
 0002:000070d0       __mask_100                 00000001800390d0     libucrt:log10.obj
 0002:000070e0       __real_1_over_512          00000001800390e0     libucrt:log10.obj
 0002:000070f0       __real_1_over_2            00000001800390f0     libucrt:log10.obj
 0002:00007100       __real_1_over_3            0000000180039100     libucrt:log10.obj
 0002:00007110       __real_1_over_4            0000000180039110     libucrt:log10.obj
 0002:00007120       __real_1_over_5            0000000180039120     libucrt:log10.obj
 0002:00007130       __real_1_over_6            0000000180039130     libucrt:log10.obj
 0002:00007140       __real_neg_1023            0000000180039140     libucrt:log10.obj
 0002:00007150       __mask_2045                0000000180039150     libucrt:log10.obj
 0002:00007160       __real_threshold           0000000180039160     libucrt:log10.obj
 0002:00007170       __real_near_one_lt         0000000180039170     libucrt:log10.obj
 0002:00007180       __real_near_one_gt         0000000180039180     libucrt:log10.obj
 0002:00007190       __real_min_norm            0000000180039190     libucrt:log10.obj
 0002:000071a0       __real_notsign             00000001800391a0     libucrt:log10.obj
 0002:000071b0       __real_ca1                 00000001800391b0     libucrt:log10.obj
 0002:000071c0       __real_ca2                 00000001800391c0     libucrt:log10.obj
 0002:000071d0       __real_ca3                 00000001800391d0     libucrt:log10.obj
 0002:000071e0       __real_ca4                 00000001800391e0     libucrt:log10.obj
 0002:000071f0       __mask_lower               00000001800391f0     libucrt:log10.obj
 0002:00007200       __flag_x_zero              0000000180039200     libucrt:log10.obj
 0002:00007204       __flag_x_neg               0000000180039204     libucrt:log10.obj
 0002:00007208       __flag_x_nan               0000000180039208     libucrt:log10.obj
 0002:0000a430       ?named_colors@@3PAUnamed_color@@A 000000018003c430     color.obj
 0002:0000b158       $cppxdata$?resurface@Canvas@@QEAAXV?$Local@VObject@v8@@@v8@@@Z 000000018003d158     Canvas.obj
 0002:0000b180       $cppxdata$??_GCanvas@@EEAAPEAXI@Z 000000018003d180     Canvas.obj
 0002:0000b1a8       $cppxdata$??0Canvas@@QEAA@HHW4canvas_type_t@@@Z 000000018003d1a8     Canvas.obj
 0002:0000b1d0       $cppxdata$?StreamJPEGSync@Canvas@@SAXAEBV?$FunctionCallbackInfo@VValue@v8@@@Nan@@@Z 000000018003d1d0     Canvas.obj
 0002:0000b1f8       $cppxdata$?StreamPDFSync@Canvas@@SAXAEBV?$FunctionCallbackInfo@VValue@v8@@@Nan@@@Z 000000018003d1f8     Canvas.obj
 0002:0000b220       $cppxdata$?StreamPNGSync@Canvas@@SAXAEBV?$FunctionCallbackInfo@VValue@v8@@@Nan@@@Z 000000018003d220     Canvas.obj
 0002:0000b248       $cppxdata$?streamPNG@@YA?AW4_cairo_status@@PEAXPEBEI@Z 000000018003d248     Canvas.obj
 0002:0000b270       $cppxdata$?ToBuffer@Canvas@@SAXAEBV?$FunctionCallbackInfo@VValue@v8@@@Nan@@@Z 000000018003d270     Canvas.obj
 0002:0000b298       $cppxdata$?ToBufferAsyncAfter@Canvas@@SAXPEAUuv_work_s@@@Z 000000018003d298     Canvas.obj
 0002:0000b2c0       $cppxdata$?New@Canvas@@SAXAEBV?$FunctionCallbackInfo@VValue@v8@@@Nan@@@Z 000000018003d2c0     Canvas.obj
 0002:0000b2e8       $cppxdata$?Initialize@Canvas@@SAXV?$Local@VObject@v8@@@v8@@@Z 000000018003d2e8     Canvas.obj
 0002:0000b310       $cppxdata$??__F?constructor@Image@@2V?$Persistent@VFunctionTemplate@v8@@V?$NonCopyablePersistentTraits@VFunctionTemplate@v8@@@2@@Nan@@A@@YAXXZ 000000018003d310     Image.obj
 0002:0000b310       $cppxdata$??__F?constructor@FontFace@@2V?$Persistent@VFunctionTemplate@v8@@V?$NonCopyablePersistentTraits@VFunctionTemplate@v8@@@2@@Nan@@A@@YAXXZ 000000018003d310     FontFace.obj
 0002:0000b310       $cppxdata$??__F?constructor@Context2d@@2V?$Persistent@VFunctionTemplate@v8@@V?$NonCopyablePersistentTraits@VFunctionTemplate@v8@@@2@@Nan@@A@@YAXXZ 000000018003d310     CanvasRenderingContext2d.obj
 0002:0000b310       $cppxdata$??__F?constructor@Canvas@@2V?$Persistent@VFunctionTemplate@v8@@V?$NonCopyablePersistentTraits@VFunctionTemplate@v8@@@2@@Nan@@A@@YAXXZ 000000018003d310     Canvas.obj
 0002:0000b310       $cppxdata$??__F?constructor@Gradient@@2V?$Persistent@VFunctionTemplate@v8@@V?$NonCopyablePersistentTraits@VFunctionTemplate@v8@@@2@@Nan@@A@@YAXXZ 000000018003d310     CanvasGradient.obj
 0002:0000b310       $cppxdata$??__F?constructor@Pattern@@2V?$Persistent@VFunctionTemplate@v8@@V?$NonCopyablePersistentTraits@VFunctionTemplate@v8@@@2@@Nan@@A@@YAXXZ 000000018003d310     CanvasPattern.obj
 0002:0000b310       $cppxdata$??__F?constructor@ImageData@@2V?$Persistent@VFunctionTemplate@v8@@V?$NonCopyablePersistentTraits@VFunctionTemplate@v8@@@2@@Nan@@A@@YAXXZ 000000018003d310     ImageData.obj
 0002:0000b338       $cppxdata$?term_closure_destination@@YAXPEAUjpeg_compress_struct@@@Z 000000018003d338     Canvas.obj
 0002:0000b360       $cppxdata$?empty_closure_output_buffer@@YAEPEAUjpeg_compress_struct@@@Z 000000018003d360     Canvas.obj
 0002:0000b388       $cppxdata$??1ObjectWrap@Nan@@UEAA@XZ 000000018003d388     Canvas.obj
 0002:0000b3b0       $cppxdata$?SetAccessor@Nan@@YAXV?$Local@VObjectTemplate@v8@@@v8@@V?$Local@VString@v8@@@3@P6AX1AEBV?$PropertyCallbackInfo@VValue@v8@@@1@@ZP6AX1V?$Local@VValue@v8@@@3@AEBV?$PropertyCallbackInfo@X@1@@Z4W4AccessControl@3@W4PropertyAttribute@3@V?$Local@VAccessorSignature@v8@@@3@@Z 000000018003d3b0     Canvas.obj
 0002:0000b3d8       $cppxdata$?SetPrototypeMethod@Nan@@YAXV?$Local@VFunctionTemplate@v8@@@v8@@PEBDP6AXAEBV?$FunctionCallbackInfo@VValue@v8@@@1@@Z@Z 000000018003d3d8     Canvas.obj
 0002:0000b400       $cppxdata$??_GCallback@Nan@@QEAAPEAXI@Z 000000018003d400     Canvas.obj
 0002:0000b428       $cppxdata$?Call@Callback@Nan@@QEBA?AV?$Local@VValue@v8@@@v8@@HQEAV34@@Z 000000018003d428     Canvas.obj
 0002:0000b450       $cppxdata$?MakeCallback@Nan@@YA?AV?$Local@VValue@v8@@@v8@@V?$Local@VObject@v8@@@3@V?$Local@VFunction@v8@@@3@HPEAV23@@Z 000000018003d450     Canvas.obj
 0002:0000b478       $cppxdata$?ThrowTypeError@Nan@@YAXPEBD@Z 000000018003d478     Canvas.obj
 0002:0000b4a0       $cppxdata$?ThrowRangeError@Nan@@YAXPEBD@Z 000000018003d4a0     Canvas.obj
 0002:0000b4c8       $cppxdata$??1AsyncResource@Nan@@QEAA@XZ 000000018003d4c8     Canvas.obj
 0002:0000b4f0       $cppxdata$?New@?$Factory@VFunctionTemplate@v8@@@imp@Nan@@SA?AV?$Local@VFunctionTemplate@v8@@@v8@@P6AXAEBV?$FunctionCallbackInfo@VValue@v8@@@3@@ZV?$Local@VValue@v8@@@5@V?$Local@VSignature@v8@@@5@@Z 000000018003d4f0     Canvas.obj
 0002:0000b5f0       $cppxdata$?AddColorStop@Gradient@@SAXAEBV?$FunctionCallbackInfo@VValue@v8@@@Nan@@@Z 000000018003d5f0     CanvasGradient.obj
 0002:0000b618       $cppxdata$?New@Gradient@@SAXAEBV?$FunctionCallbackInfo@VValue@v8@@@Nan@@@Z 000000018003d618     CanvasGradient.obj
 0002:0000b640       $cppxdata$?Initialize@Gradient@@SAXV?$Local@VObject@v8@@@v8@@@Z 000000018003d640     CanvasGradient.obj
 0002:0000b668       $cppxdata$?Initialize@Pattern@@SAXV?$Local@VObject@v8@@@v8@@@Z 000000018003d668     CanvasPattern.obj
 0002:0000b690       $cppxdata$?ThrowError@Nan@@YAXPEBD@Z 000000018003d690     CanvasPattern.obj
 0002:0000b6b8       $cppxdata$??0?$TypedArrayContents@E@Nan@@QEAA@V?$Local@VValue@v8@@@v8@@@Z 000000018003d6b8     CanvasRenderingContext2d.obj
 0002:0000b6e0       $cppxdata$?GetLineDash@Context2d@@SAXAEBV?$FunctionCallbackInfo@VValue@v8@@@Nan@@@Z 000000018003d6e0     CanvasRenderingContext2d.obj
 0002:0000b708       $cppxdata$?SetLineDash@Context2d@@SAXAEBV?$FunctionCallbackInfo@VValue@v8@@@Nan@@@Z 000000018003d708     CanvasRenderingContext2d.obj
 0002:0000b730       $cppxdata$?MeasureText@Context2d@@SAXAEBV?$FunctionCallbackInfo@VValue@v8@@@Nan@@@Z 000000018003d730     CanvasRenderingContext2d.obj
 0002:0000b758       $cppxdata$?SetFont@Context2d@@SAXAEBV?$FunctionCallbackInfo@VValue@v8@@@Nan@@@Z 000000018003d758     CanvasRenderingContext2d.obj
 0002:0000b780       $cppxdata$?StrokeText@Context2d@@SAXAEBV?$FunctionCallbackInfo@VValue@v8@@@Nan@@@Z 000000018003d780     CanvasRenderingContext2d.obj
 0002:0000b7a8       $cppxdata$?FillText@Context2d@@SAXAEBV?$FunctionCallbackInfo@VValue@v8@@@Nan@@@Z 000000018003d7a8     CanvasRenderingContext2d.obj
 0002:0000b7d0       $cppxdata$?SetStrokeColor@Context2d@@SAXAEBV?$FunctionCallbackInfo@VValue@v8@@@Nan@@@Z 000000018003d7d0     CanvasRenderingContext2d.obj
 0002:0000b7f8       $cppxdata$?SetFillColor@Context2d@@SAXAEBV?$FunctionCallbackInfo@VValue@v8@@@Nan@@@Z 000000018003d7f8     CanvasRenderingContext2d.obj
 0002:0000b820       $cppxdata$?SetShadowColor@Context2d@@SAXV?$Local@VString@v8@@@v8@@V?$Local@VValue@v8@@@3@AEBV?$PropertyCallbackInfo@X@Nan@@@Z 000000018003d820     CanvasRenderingContext2d.obj
 0002:0000b848       $cppxdata$?SetFilter@Context2d@@SAXV?$Local@VString@v8@@@v8@@V?$Local@VValue@v8@@@3@AEBV?$PropertyCallbackInfo@X@Nan@@@Z 000000018003d848     CanvasRenderingContext2d.obj
 0002:0000b870       $cppxdata$?SetTextDrawingMode@Context2d@@SAXV?$Local@VString@v8@@@v8@@V?$Local@VValue@v8@@@3@AEBV?$PropertyCallbackInfo@X@Nan@@@Z 000000018003d870     CanvasRenderingContext2d.obj
 0002:0000b898       $cppxdata$?SetAntiAlias@Context2d@@SAXV?$Local@VString@v8@@@v8@@V?$Local@VValue@v8@@@3@AEBV?$PropertyCallbackInfo@X@Nan@@@Z 000000018003d898     CanvasRenderingContext2d.obj
 0002:0000b8c0       $cppxdata$?GetImageData@Context2d@@SAXAEBV?$FunctionCallbackInfo@VValue@v8@@@Nan@@@Z 000000018003d8c0     CanvasRenderingContext2d.obj
 0002:0000b8e8       $cppxdata$?Initialize@Context2d@@SAXV?$Local@VObject@v8@@@v8@@@Z 000000018003d8e8     CanvasRenderingContext2d.obj
 0002:0000b910       $cppxdata$??_GImage@@EEAAPEAXI@Z 000000018003d910     Image.obj
 0002:0000b938       $cppxdata$?SetOnerror@Image@@SAXV?$Local@VString@v8@@@v8@@V?$Local@VValue@v8@@@3@AEBV?$PropertyCallbackInfo@X@Nan@@@Z 000000018003d938     Image.obj
 0002:0000b960       $cppxdata$?SetOnload@Image@@SAXV?$Local@VString@v8@@@v8@@V?$Local@VValue@v8@@@3@AEBV?$PropertyCallbackInfo@X@Nan@@@Z 000000018003d960     Image.obj
 0002:0000b988       $cppxdata$?SetSource@Image@@SAXV?$Local@VString@v8@@@v8@@V?$Local@VValue@v8@@@3@AEBV?$PropertyCallbackInfo@X@Nan@@@Z 000000018003d988     Image.obj
 0002:0000b9b0       $cppxdata$?Initialize@Image@@SAXV?$Local@VObject@v8@@@v8@@@Z 000000018003d9b0     Image.obj
 0002:0000b9d8       $cppxdata$?Initialize@ImageData@@SAXV?$Local@VObject@v8@@@v8@@@Z 000000018003d9d8     ImageData.obj
 0002:0000ba00       $cppxdata$?init@@YAXV?$Local@VObject@v8@@@v8@@@Z 000000018003da00     init.obj
 0002:0000ba28       $cppxdata$?New@FontFace@@SAXAEBV?$FunctionCallbackInfo@VValue@v8@@@Nan@@@Z 000000018003da28     FontFace.obj
 0002:0000bb00       L_signbit                  000000018003db00     libucrt:tan.obj
 0002:0000bb10       L_sign_mask                000000018003db10     libucrt:tan.obj
 0002:0000bb20       L_int_one                  000000018003db20     libucrt:tan.obj
 0002:0000bb30       L_twobypi                  000000018003db30     libucrt:tan.obj
 0002:0000bb40       L_point_333                000000018003db40     libucrt:tan.obj
 0002:0000bb50       L_tan_p0                   000000018003db50     libucrt:tan.obj
 0002:0000bb60       L_tan_p2                   000000018003db60     libucrt:tan.obj
 0002:0000bb70       L_tan_p4                   000000018003db70     libucrt:tan.obj
 0002:0000bb80       L_tan_q0                   000000018003db80     libucrt:tan.obj
 0002:0000bb90       L_tan_q2                   000000018003db90     libucrt:tan.obj
 0002:0000bba0       L_tan_q4                   000000018003dba0     libucrt:tan.obj
 0002:0000bbb0       L_tan_q6                   000000018003dbb0     libucrt:tan.obj
 0002:0000bbc0       L_half_mask                000000018003dbc0     libucrt:tan.obj
 0002:0000bbd0       L_piby4_lead               000000018003dbd0     libucrt:tan.obj
 0002:0000bbe0       L_piby4_tail               000000018003dbe0     libucrt:tan.obj
 0002:0000bbf0       L_piby2_1                  000000018003dbf0     libucrt:tan.obj
 0002:0000bbf8       L_piby2_1tail              000000018003dbf8     libucrt:tan.obj
 0002:0000bc00       L_piby2_2                  000000018003dc00     libucrt:tan.obj
 0002:0000bc08       L_piby2_2tail              000000018003dc08     libucrt:tan.obj
 0002:0000bc10       L_piby2_3                  000000018003dc10     libucrt:tan.obj
 0002:0000bc18       L_piby2_3tail              000000018003dc18     libucrt:tan.obj
 0002:0000bc20       L_two_to_neg_27            000000018003dc20     libucrt:tan.obj
 0002:0000bc28       L_two_to_neg_13            000000018003dc28     libucrt:tan.obj
 0002:0000bc30       L_inf_mask_64              000000018003dc30     libucrt:tan.obj
 0002:0000bc38       L_point_five               000000018003dc38     libucrt:tan.obj
 0002:0000bc40       L_point_68                 000000018003dc40     libucrt:tan.obj
 0002:0000bc48       L_n_point_68               000000018003dc48     libucrt:tan.obj
 0002:0000bc50       L_zero                     000000018003dc50     libucrt:tan.obj
 0002:0000bc58       L_one                      000000018003dc58     libucrt:tan.obj
 0002:0000bc60       L_n_one                    000000018003dc60     libucrt:tan.obj
 0002:0000bc68       L_two                      000000018003dc68     libucrt:tan.obj
 0002:0000bc70       L_near_one                 000000018003dc70     libucrt:tan.obj
 0002:0000bc78       L_moderate_arg_cw          000000018003dc78     libucrt:tan.obj
 0002:0000bc80       L_moderate_arg_bdl         000000018003dc80     libucrt:tan.obj
 0002:0000bc90       L_piby2_lead               000000018003dc90     libucrt:remainder_piby2_forfma3.obj
 0002:0000bca0       L_fff800                   000000018003dca0     libucrt:remainder_piby2_forfma3.obj
 0002:0000bcb0       L_piby2_part1              000000018003dcb0     libucrt:remainder_piby2_forfma3.obj
 0002:0000bcc0       L_piby2_part2              000000018003dcc0     libucrt:remainder_piby2_forfma3.obj
 0002:0000bcd0       L_piby2_part3              000000018003dcd0     libucrt:remainder_piby2_forfma3.obj
 0002:0000bce0       L_piby2_1                  000000018003dce0     libucrt:remainder_piby2_forfma3.obj
 0002:0000bcf0       L_piby2_2                  000000018003dcf0     libucrt:remainder_piby2_forfma3.obj
 0002:0000bd00       L_piby2_3                  000000018003dd00     libucrt:remainder_piby2_forfma3.obj
 0002:0000bd10       L_piby2_1tail              000000018003dd10     libucrt:remainder_piby2_forfma3.obj
 0002:0000bd20       L_piby2_2tail              000000018003dd20     libucrt:remainder_piby2_forfma3.obj
 0002:0000bd30       L_piby2_3tail              000000018003dd30     libucrt:remainder_piby2_forfma3.obj
 0002:0000bd40       L_sign_mask                000000018003dd40     libucrt:remainder_piby2_forfma3.obj
 0002:0000bd50       L_twobypi                  000000018003dd50     libucrt:remainder_piby2_forfma3.obj
 0002:0000bd60       L_point_five               000000018003dd60     libucrt:remainder_piby2_forfma3.obj
 0002:0000bd70       L_int_three                000000018003dd70     libucrt:remainder_piby2_forfma3.obj
 0002:0000bd80       L_inf_mask_64              000000018003dd80     libucrt:remainder_piby2_forfma3.obj
 0002:0000bd90       L_signbit                  000000018003dd90     libucrt:remainder_piby2_forfma3.obj
 0002:0000bda0       L_r                        000000018003dda0     libucrt:remainder_piby2_forfma3.obj
 0002:0000bdb0       L_xc1                      000000018003ddb0     libucrt:remainder_piby2_forfma3.obj
 0002:0000bdc0       L_xc2                      000000018003ddc0     libucrt:remainder_piby2_forfma3.obj
 0002:0000bdd0       L_xc3                      000000018003ddd0     libucrt:remainder_piby2_forfma3.obj
 0002:0000bde0       L_sigma                    000000018003dde0     libucrt:remainder_piby2_forfma3.obj
 0002:0000bdf0       L__piby2_part3_piby2_lead  000000018003ddf0     libucrt:remainder_piby2_forasm.obj
 0002:0000be00       L__piby2_part1             000000018003de00     libucrt:remainder_piby2_forasm.obj
 0002:0000be10       L__piby2_part2             000000018003de10     libucrt:remainder_piby2_forasm.obj
 0002:0000be20       L_piby2_1                  000000018003de20     libucrt:remainder_piby2_forasm.obj
 0002:0000be30       L_piby2_2                  000000018003de30     libucrt:remainder_piby2_forasm.obj
 0002:0000be40       L_piby2_3                  000000018003de40     libucrt:remainder_piby2_forasm.obj
 0002:0000be50       L_piby2_1tail              000000018003de50     libucrt:remainder_piby2_forasm.obj
 0002:0000be60       L_piby2_2tail              000000018003de60     libucrt:remainder_piby2_forasm.obj
 0002:0000be70       L_piby2_3tail              000000018003de70     libucrt:remainder_piby2_forasm.obj
 0002:0000be80       L_twobypi                  000000018003de80     libucrt:remainder_piby2_forasm.obj
 0002:0000be90       L_point_five               000000018003de90     libucrt:remainder_piby2_forasm.obj
 0002:0000bea0       L_int_three                000000018003dea0     libucrt:remainder_piby2_forasm.obj
 0002:0000beb0       L_inf_mask_64              000000018003deb0     libucrt:remainder_piby2_forasm.obj
 0002:0000bec0       L_signbit                  000000018003dec0     libucrt:remainder_piby2_forasm.obj
 0002:0000bed0       L_int_1                    000000018003ded0     libucrt:remainder_piby2_forasm.obj
 0002:0000bee0       L_int_15                   000000018003dee0     libucrt:remainder_piby2_forasm.obj
 0002:0000bee8       L_int_48                   000000018003dee8     libucrt:remainder_piby2_forasm.obj
 0002:0000bef0       L_3pio4                    000000018003def0     libucrt:remainder_piby2_forasm.obj
 0002:0000bef8       L_5pio4                    000000018003def8     libucrt:remainder_piby2_forasm.obj
 0002:0000bf00       L_7pio4                    000000018003df00     libucrt:remainder_piby2_forasm.obj
 0002:0000bf08       L_9pio4                    000000018003df08     libucrt:remainder_piby2_forasm.obj
 0002:0000bf10       L__2_by_pi_bits            000000018003df10     libucrt:remainder_piby2_forasm.obj
 0002:0000c870       $unwind$?FunctionCallbackWrapper@imp@Nan@@YAXAEBV?$FunctionCallbackInfo@VValue@v8@@@v8@@@Z 000000018003e870     Canvas.obj
 0002:0000c884       $unwind$?write_stored_string_tchar@?$output_processor@_WV?$stream_output_adapter@_W@__crt_stdio_output@@V?$standard_base@_WV?$stream_output_adapter@_W@__crt_stdio_output@@@2@@__crt_stdio_output@@AEAA_N_W@Z 000000018003e884     libucrt:output.obj
 0002:0000c884       $unwind$?GetterCallbackWrapper@imp@Nan@@YAXV?$Local@VName@v8@@@v8@@AEBV?$PropertyCallbackInfo@VValue@v8@@@4@@Z 000000018003e884     Canvas.obj
 0002:0000c898       $unwind$?configure_text_mode@@YAHHUfile_options@?A0xa9d50aae@@HAEAW4__crt_lowio_text_mode@@@Z 000000018003e898     libucrt:open.obj
 0002:0000c898       $unwind$?state_case_type@?$output_processor@DV?$string_output_adapter@D@__crt_stdio_output@@V?$standard_base@DV?$string_output_adapter@D@__crt_stdio_output@@@2@@__crt_stdio_output@@AEAA_NXZ 000000018003e898     libucrt:output.obj
 0002:0000c898       $unwind$?SetterCallbackWrapper@imp@Nan@@YAXV?$Local@VName@v8@@@v8@@V?$Local@VValue@v8@@@4@AEBV?$PropertyCallbackInfo@X@4@@Z 000000018003e898     Canvas.obj
 0002:0000c8b0       $unwind$?New@?$Factory@VFunctionTemplate@v8@@@imp@Nan@@SA?AV?$Local@VFunctionTemplate@v8@@@v8@@P6AXAEBV?$FunctionCallbackInfo@VValue@v8@@@3@@ZV?$Local@VValue@v8@@@5@V?$Local@VSignature@v8@@@5@@Z 000000018003e8b0     Canvas.obj
 0002:0000c8d4       $stateUnwindMap$?New@?$Factory@VFunctionTemplate@v8@@@imp@Nan@@SA?AV?$Local@VFunctionTemplate@v8@@@v8@@P6AXAEBV?$FunctionCallbackInfo@VValue@v8@@@3@@ZV?$Local@VValue@v8@@@5@V?$Local@VSignature@v8@@@5@@Z 000000018003e8d4     Canvas.obj
 0002:0000c8e8       $ip2state$?New@?$Factory@VFunctionTemplate@v8@@@imp@Nan@@SA?AV?$Local@VFunctionTemplate@v8@@@v8@@P6AXAEBV?$FunctionCallbackInfo@VValue@v8@@@3@@ZV?$Local@VValue@v8@@@5@V?$Local@VSignature@v8@@@5@@Z 000000018003e8e8     Canvas.obj
 0002:0000c910       $unwind$??1AsyncResource@Nan@@QEAA@XZ 000000018003e910     Canvas.obj
 0002:0000c920       $ip2state$??1AsyncResource@Nan@@QEAA@XZ 000000018003e920     Canvas.obj
 0002:0000c928       $unwind$?ThrowRangeError@Nan@@YAXPEBD@Z 000000018003e928     Canvas.obj
 0002:0000c938       $stateUnwindMap$?ThrowTypeError@Nan@@YAXPEBD@Z 000000018003e938     Canvas.obj
 0002:0000c938       $stateUnwindMap$?ThrowError@Nan@@YAXPEBD@Z 000000018003e938     CanvasPattern.obj
 0002:0000c938       $stateUnwindMap$?resurface@Canvas@@QEAAXV?$Local@VObject@v8@@@v8@@@Z 000000018003e938     Canvas.obj
 0002:0000c938       $stateUnwindMap$?SetPrototypeMethod@Nan@@YAXV?$Local@VFunctionTemplate@v8@@@v8@@PEBDP6AXAEBV?$FunctionCallbackInfo@VValue@v8@@@1@@Z@Z 000000018003e938     Canvas.obj
 0002:0000c938       $stateUnwindMap$?ThrowRangeError@Nan@@YAXPEBD@Z 000000018003e938     Canvas.obj
 0002:0000c940       $ip2state$?ThrowRangeError@Nan@@YAXPEBD@Z 000000018003e940     Canvas.obj
 0002:0000c958       $unwind$?ThrowTypeError@Nan@@YAXPEBD@Z 000000018003e958     Canvas.obj
 0002:0000c968       $ip2state$?ThrowTypeError@Nan@@YAXPEBD@Z 000000018003e968     Canvas.obj
 0002:0000c980       $unwind$?MakeCallback@Nan@@YA?AV?$Local@VValue@v8@@@v8@@V?$Local@VObject@v8@@@3@V?$Local@VFunction@v8@@@3@HPEAV23@@Z 000000018003e980     Canvas.obj
 0002:0000c9a8       $stateUnwindMap$?MakeCallback@Nan@@YA?AV?$Local@VValue@v8@@@v8@@V?$Local@VObject@v8@@@3@V?$Local@VFunction@v8@@@3@HPEAV23@@Z 000000018003e9a8     Canvas.obj
 0002:0000c9b8       $ip2state$?MakeCallback@Nan@@YA?AV?$Local@VValue@v8@@@v8@@V?$Local@VObject@v8@@@3@V?$Local@VFunction@v8@@@3@HPEAV23@@Z 000000018003e9b8     Canvas.obj
 0002:0000c9d8       $unwind$?Call@Callback@Nan@@QEBA?AV?$Local@VValue@v8@@@v8@@HQEAV34@@Z 000000018003e9d8     Canvas.obj
 0002:0000ca00       $stateUnwindMap$?Call@Callback@Nan@@QEBA?AV?$Local@VValue@v8@@@v8@@HQEAV34@@Z 000000018003ea00     Canvas.obj
 0002:0000ca20       $ip2state$?Call@Callback@Nan@@QEBA?AV?$Local@VValue@v8@@@v8@@HQEAV34@@Z 000000018003ea20     Canvas.obj
 0002:0000ca60       $unwind$??_GCallback@Nan@@QEAAPEAXI@Z 000000018003ea60     Canvas.obj
 0002:0000ca70       $stateUnwindMap$??_GCallback@Nan@@QEAAPEAXI@Z 000000018003ea70     Canvas.obj
 0002:0000ca80       $ip2state$??_GCallback@Nan@@QEAAPEAXI@Z 000000018003ea80     Canvas.obj
 0002:0000ca88       $unwind$?SetPrototypeMethod@Nan@@YAXV?$Local@VFunctionTemplate@v8@@@v8@@PEBDP6AXAEBV?$FunctionCallbackInfo@VValue@v8@@@1@@Z@Z 000000018003ea88     Canvas.obj
 0002:0000caa0       $ip2state$?SetPrototypeMethod@Nan@@YAXV?$Local@VFunctionTemplate@v8@@@v8@@PEBDP6AXAEBV?$FunctionCallbackInfo@VValue@v8@@@1@@Z@Z 000000018003eaa0     Canvas.obj
 0002:0000cab8       $unwind$?SetAccessor@Nan@@YAXV?$Local@VObjectTemplate@v8@@@v8@@V?$Local@VString@v8@@@3@P6AX1AEBV?$PropertyCallbackInfo@VValue@v8@@@1@@ZP6AX1V?$Local@VValue@v8@@@3@AEBV?$PropertyCallbackInfo@X@1@@Z4W4AccessControl@3@W4PropertyAttribute@3@V?$Local@VAccessorSignature@v8@@@3@@Z 000000018003eab8     Canvas.obj
 0002:0000cad8       $stateUnwindMap$?SetAccessor@Nan@@YAXV?$Local@VObjectTemplate@v8@@@v8@@V?$Local@VString@v8@@@3@P6AX1AEBV?$PropertyCallbackInfo@VValue@v8@@@1@@ZP6AX1V?$Local@VValue@v8@@@3@AEBV?$PropertyCallbackInfo@X@1@@Z4W4AccessControl@3@W4PropertyAttribute@3@V?$Local@VAccessorSignature@v8@@@3@@Z 000000018003ead8     Canvas.obj
 0002:0000cae8       $ip2state$?SetAccessor@Nan@@YAXV?$Local@VObjectTemplate@v8@@@v8@@V?$Local@VString@v8@@@3@P6AX1AEBV?$PropertyCallbackInfo@VValue@v8@@@1@@ZP6AX1V?$Local@VValue@v8@@@3@AEBV?$PropertyCallbackInfo@X@1@@Z4W4AccessControl@3@W4PropertyAttribute@3@V?$Local@VAccessorSignature@v8@@@3@@Z 000000018003eae8     Canvas.obj
 0002:0000cb10       $unwind$??1ObjectWrap@Nan@@UEAA@XZ 000000018003eb10     Canvas.obj
 0002:0000cb20       $stateUnwindMap$??__F?constructor@Gradient@@2V?$Persistent@VFunctionTemplate@v8@@V?$NonCopyablePersistentTraits@VFunctionTemplate@v8@@@2@@Nan@@A@@YAXXZ 000000018003eb20     CanvasGradient.obj
 0002:0000cb20       $stateUnwindMap$??__F?constructor@Context2d@@2V?$Persistent@VFunctionTemplate@v8@@V?$NonCopyablePersistentTraits@VFunctionTemplate@v8@@@2@@Nan@@A@@YAXXZ 000000018003eb20     CanvasRenderingContext2d.obj
 0002:0000cb20       $stateUnwindMap$??_GCanvas@@EEAAPEAXI@Z 000000018003eb20     Canvas.obj
 0002:0000cb20       $stateUnwindMap$??__F?constructor@Image@@2V?$Persistent@VFunctionTemplate@v8@@V?$NonCopyablePersistentTraits@VFunctionTemplate@v8@@@2@@Nan@@A@@YAXXZ 000000018003eb20     Image.obj
 0002:0000cb20       $stateUnwindMap$??__F?constructor@Canvas@@2V?$Persistent@VFunctionTemplate@v8@@V?$NonCopyablePersistentTraits@VFunctionTemplate@v8@@@2@@Nan@@A@@YAXXZ 000000018003eb20     Canvas.obj
 0002:0000cb20       $stateUnwindMap$??__F?constructor@Pattern@@2V?$Persistent@VFunctionTemplate@v8@@V?$NonCopyablePersistentTraits@VFunctionTemplate@v8@@@2@@Nan@@A@@YAXXZ 000000018003eb20     CanvasPattern.obj
 0002:0000cb20       $stateUnwindMap$??__F?constructor@FontFace@@2V?$Persistent@VFunctionTemplate@v8@@V?$NonCopyablePersistentTraits@VFunctionTemplate@v8@@@2@@Nan@@A@@YAXXZ 000000018003eb20     FontFace.obj
 0002:0000cb20       $stateUnwindMap$??__F?constructor@ImageData@@2V?$Persistent@VFunctionTemplate@v8@@V?$NonCopyablePersistentTraits@VFunctionTemplate@v8@@@2@@Nan@@A@@YAXXZ 000000018003eb20     ImageData.obj
 0002:0000cb20       $stateUnwindMap$??1ObjectWrap@Nan@@UEAA@XZ 000000018003eb20     Canvas.obj
 0002:0000cb28       $ip2state$??1ObjectWrap@Nan@@UEAA@XZ 000000018003eb28     Canvas.obj
 0002:0000cb30       $unwind$?free_crt_array_internal@@YAXQEAPEBX_K@Z 000000018003eb30     libucrt:inittime.obj
 0002:0000cb30       $unwind$??$common_getenv_nolock@D@@YAPEADQEBD@Z 000000018003eb30     libucrt:getenv.obj
 0002:0000cb30       $unwind$__acrt_stdio_flush_nolock 000000018003eb30     libucrt:fflush.obj
 0002:0000cb30       $unwind$?type_case_s@?$output_processor@_WV?$stream_output_adapter@_W@__crt_stdio_output@@V?$standard_base@_WV?$stream_output_adapter@_W@__crt_stdio_output@@@2@@__crt_stdio_output@@AEAA_NXZ 000000018003eb30     libucrt:output.obj
 0002:0000cb30       $unwind$??$common_lseek_nolock@_J@@YA_JH_JH@Z 000000018003eb30     libucrt:lseek.obj
 0002:0000cb30       $unwind$??$__acrt_stdio_parse_mode@D@@YA?AU__acrt_stdio_stream_mode@@QEBD@Z 000000018003eb30     libucrt:openfile.obj
 0002:0000cb30       $unwind$?type_case_Z@?$output_processor@_WV?$stream_output_adapter@_W@__crt_stdio_output@@V?$standard_base@_WV?$stream_output_adapter@_W@__crt_stdio_output@@@2@@__crt_stdio_output@@AEAA_NXZ 000000018003eb30     libucrt:output.obj
 0002:0000cb30       $unwind$?closure_init@@YA?AW4_cairo_status@@PEAUclosure_t@@PEAVCanvas@@II@Z 000000018003eb30     Canvas.obj
 0002:0000cb30       $unwind$?type_case_n@?$output_processor@_WV?$string_output_adapter@_W@__crt_stdio_output@@V?$standard_base@_WV?$string_output_adapter@_W@__crt_stdio_output@@@2@@__crt_stdio_output@@AEAA_NXZ 000000018003eb30     libucrt:output.obj
 0002:0000cb30       $unwind$__acrt_InitializeCriticalSectionEx 000000018003eb30     libucrt:winapi_thunks.obj
 0002:0000cb30       $unwind$?canvas_stream_write_func@@YAXPEAUpng_struct_def@@PEAE_K@Z 000000018003eb30     Canvas.obj
 0002:0000cb30       $unwind$__vcrt_FlsSetValue 000000018003eb30     libvcruntime:winapi_downlevel.obj
 0002:0000cb30       $unwind$?Wrap@ObjectWrap@Nan@@IEAAXV?$Local@VObject@v8@@@v8@@@Z 000000018003eb30     Canvas.obj
 0002:0000cb30       $unwind$__acrt_execute_initializers 000000018003eb30     libucrt:shared_initialization.obj
 0002:0000cb30       $unwind$_exception_enabled 000000018003eb30     libucrt:libm_error.obj
 0002:0000cb30       $unwind$?type_case_n@?$output_processor@DV?$string_output_adapter@D@__crt_stdio_output@@V?$standard_base@DV?$string_output_adapter@D@__crt_stdio_output@@@2@@__crt_stdio_output@@AEAA_NXZ 000000018003eb30     libucrt:output.obj
 0002:0000cb30       $unwind$?type_case_n@?$output_processor@_WV?$stream_output_adapter@_W@__crt_stdio_output@@V?$standard_base@_WV?$stream_output_adapter@_W@__crt_stdio_output@@@2@@__crt_stdio_output@@AEAA_NXZ 000000018003eb30     libucrt:output.obj
 0002:0000cb30       $unwind$_RTC_Initialize    000000018003eb30     LIBCMT:_initsect_.obj
 0002:0000cb30       $unwind$_DllMainCRTStartup 000000018003eb30     LIBCMT:dll_dllmain.obj
 0002:0000cb30       $unwind$__vcrt_getptd_noexit 000000018003eb30     libvcruntime:per_thread_data.obj
 0002:0000cb30       $unwind$?type_case_Z@?$output_processor@_WV?$string_output_adapter@_W@__crt_stdio_output@@V?$standard_base@_WV?$string_output_adapter@_W@__crt_stdio_output@@@2@@__crt_stdio_output@@AEAA_NXZ 000000018003eb30     libucrt:output.obj
 0002:0000cb30       $unwind$memcpy_s           000000018003eb30     libucrt:cfout.obj
 0002:0000cb30       $unwind$_RTC_Terminate     000000018003eb30     LIBCMT:_initsect_.obj
 0002:0000cb30       $unwind$?type_case_s@?$output_processor@_WV?$string_output_adapter@_W@__crt_stdio_output@@V?$standard_base@_WV?$string_output_adapter@_W@__crt_stdio_output@@@2@@__crt_stdio_output@@AEAA_NXZ 000000018003eb30     libucrt:output.obj
 0002:0000cb30       $unwind$__acrt_stdio_flush_and_write_wide_nolock 000000018003eb30     libucrt:_flsbuf.obj
 0002:0000cb30       $unwind$__acrt_stdio_flush_and_write_narrow_nolock 000000018003eb30     libucrt:_flsbuf.obj
 0002:0000cb40       $unwind$__acrt_FlsGetValue 000000018003eb40     libucrt:winapi_thunks.obj
 0002:0000cb40       $unwind$_SetImageBase      000000018003eb40     libvcruntime:risctrnsctrl.obj
 0002:0000cb40       $unwind$??0exception@std@@QEAA@AEBV01@@Z 000000018003eb40     libcpmt:xthrow.obj
 0002:0000cb40       $unwind$_SetThrowImageBase 000000018003eb40     libvcruntime:risctrnsctrl.obj
 0002:0000cb40       $unwind$_calloc_base       000000018003eb40     libucrt:calloc_base.obj
 0002:0000cb40       $unwind$__acrt_fp_strflt_to_string 000000018003eb40     libucrt:_fptostr.obj
 0002:0000cb40       $unwind$??0bad_alloc@std@@QEAA@AEBV01@@Z 000000018003eb40     libcpmt:xthrow.obj
 0002:0000cb40       $unwind$_malloc_base       000000018003eb40     libucrt:malloc_base.obj
 0002:0000cb40       $unwind$?load_exe_hook@@YAP6A_JXZIPEAUDelayLoadInfo@@@Z 000000018003eb40     win_delay_load_hook.obj
 0002:0000cb40       $unwind$??$Unwrap@VImage@@@ObjectWrap@Nan@@SAPEAVImage@@V?$Local@VObject@v8@@@v8@@@Z 000000018003eb40     CanvasPattern.obj
 0002:0000cb40       $unwind$_CreateFrameInfo   000000018003eb40     libvcruntime:risctrnsctrl.obj
 0002:0000cb40       $unwind$strcpy_s           000000018003eb40     libucrt:strcpy_s.obj
 0002:0000cb40       $unwind$__acrt_get_process_end_policy 000000018003eb40     libucrt:win_policies.obj
 0002:0000cb40       $unwind$__acrt_get_developer_information_policy 000000018003eb40     libucrt:win_policies.obj
 0002:0000cb40       $unwind$__acrt_get_windowing_model_policy 000000018003eb40     libucrt:win_policies.obj
 0002:0000cb40       $unwind$__acrt_initialize_locks 000000018003eb40     libucrt:locks.obj
 0002:0000cb40       $unwind$__acrt_update_multibyte_info 000000018003eb40     libucrt:locale_update.obj
 0002:0000cb40       $unwind$?type_case_s@?$output_processor@DV?$string_output_adapter@D@__crt_stdio_output@@V?$standard_base@DV?$string_output_adapter@D@__crt_stdio_output@@@2@@__crt_stdio_output@@AEAA_NXZ 000000018003eb40     libucrt:output.obj
 0002:0000cb40       $unwind$_clearfp           000000018003eb40     libucrt:ieee.obj
 0002:0000cb40       $unwind$?Ref@ObjectWrap@Nan@@MEAAXXZ 000000018003eb40     Canvas.obj
 0002:0000cb40       $unwind$??0logic_error@std@@QEAA@AEBV01@@Z 000000018003eb40     libcpmt:xthrow.obj
 0002:0000cb40       $unwind$??_Gtype_info@@UEAAPEAXI@Z 000000018003eb40     LIBCMT:std_type_info_static.obj
 0002:0000cb40       $unwind$uninitialize_allocated_memory 000000018003eb40     libucrt:initialization.obj
 0002:0000cb40       $unwind$_IsExceptionObjectToBeDestroyed 000000018003eb40     libvcruntime:ehhelpers.obj
 0002:0000cb40       $unwind$wcscat_s           000000018003eb40     libucrt:wcscat_s.obj
 0002:0000cb40       $unwind$?savePath@Context2d@@QEAAXXZ 000000018003eb40     CanvasRenderingContext2d.obj
 0002:0000cb40       $unwind$_set_statfp        000000018003eb40     libucrt:fpctrl.obj
 0002:0000cb40       $unwind$?restorePath@Context2d@@QEAAXXZ 000000018003eb40     CanvasRenderingContext2d.obj
 0002:0000cb40       $unwind$_clrfp             000000018003eb40     libucrt:fpctrl.obj
 0002:0000cb40       $unwind$??0length_error@std@@QEAA@AEBV01@@Z 000000018003eb40     libcpmt:xthrow.obj
 0002:0000cb40       $unwind$__std_exception_destroy 000000018003eb40     libvcruntime:std_exception.obj
 0002:0000cb40       $unwind$?Unref@ObjectWrap@Nan@@MEAAXXZ 000000018003eb40     Canvas.obj
 0002:0000cb40       $unwind$initialize_pointers 000000018003eb40     libucrt:initialization.obj
 0002:0000cb40       $unwind$wcscpy_s           000000018003eb40     libucrt:wcscpy_s.obj
 0002:0000cb40       $unwind$??$Unwrap@VGradient@@@ObjectWrap@Nan@@SAPEAVGradient@@V?$Local@VObject@v8@@@v8@@@Z 000000018003eb40     CanvasGradient.obj
 0002:0000cb40       $unwind$__acrt_stdio_allocate_buffer_nolock 000000018003eb40     libucrt:_getbuf.obj
 0002:0000cb40       $unwind$__acrt_update_locale_info 000000018003eb40     libucrt:locale_update.obj
 0002:0000cb40       $unwind$__acrt_uninitialize_stdio 000000018003eb40     libucrt:_file.obj
 0002:0000cb40       $unwind$?internal_isupper_l@@YA_NHQEAU__crt_locale_pointers@@@Z 000000018003eb40     libucrt:tolower_toupper.obj
 0002:0000cb40       $unwind$??$Unwrap@VImageData@@@ObjectWrap@Nan@@SAPEAVImageData@@V?$Local@VObject@v8@@@v8@@@Z 000000018003eb40     CanvasRenderingContext2d.obj
 0002:0000cb40       $unwind$?closure_destroy@@YAXPEAUclosure_t@@@Z 000000018003eb40     Canvas.obj
 0002:0000cb40       $unwind$?WeakCallback@ObjectWrap@Nan@@CAXAEBV?$WeakCallbackInfo@VObjectWrap@Nan@@@v8@@@Z 000000018003eb40     Canvas.obj
 0002:0000cb40       $unwind$?state_case_normal@?$output_processor@DV?$string_output_adapter@D@__crt_stdio_output@@V?$standard_base@DV?$string_output_adapter@D@__crt_stdio_output@@@2@@__crt_stdio_output@@AEAA_NXZ 000000018003eb40     libucrt:output.obj
 0002:0000cb40       $unwind$??1?$vector@NV?$allocator@N@std@@@std@@QEAA@XZ 000000018003eb40     CanvasRenderingContext2d.obj
 0002:0000cb40       $unwind$??$Unwrap@VPattern@@@ObjectWrap@Nan@@SAPEAVPattern@@V?$Local@VObject@v8@@@v8@@@Z 000000018003eb40     CanvasRenderingContext2d.obj
 0002:0000cb40       $unwind$__std_type_info_destroy_list 000000018003eb40     libvcruntime:std_type_info.obj
 0002:0000cb40       $unwind$_fflush_nolock     000000018003eb40     libucrt:fflush.obj
 0002:0000cb40       $unwind$??2@YAPEAX_K@Z     000000018003eb40     LIBCMT:new_scalar.obj
 0002:0000cb40       $unwind$__vcrt_freeptd     000000018003eb40     libvcruntime:per_thread_data.obj
 0002:0000cb40       $unwind$__scrt_uninitialize_crt 000000018003eb40     LIBCMT:utility.obj
 0002:0000cb40       $unwind$__acrt_stdio_free_buffer_nolock 000000018003eb40     libucrt:_freebuf.obj
 0002:0000cb40       $unwind$__scrt_initialize_crt 000000018003eb40     LIBCMT:utility.obj
 0002:0000cb40       $unwind$__scrt_release_startup_lock 000000018003eb40     LIBCMT:utility.obj
 0002:0000cb40       $unwind$__vcrt_uninitialize_locks 000000018003eb40     libvcruntime:locks.obj
 0002:0000cb40       $unwind$??$Unwrap@VContext2d@@@ObjectWrap@Nan@@SAPEAVContext2d@@V?$Local@VObject@v8@@@v8@@@Z 000000018003eb40     Canvas.obj
 0002:0000cb40       $unwind$__vcrt_initialize_locks 000000018003eb40     libvcruntime:locks.obj
 0002:0000cb40       $unwind$?__GetUnwindTryBlock@@YAHPEA_KPEAU_xDISPATCHER_CONTEXT@@PEBU_s_FuncInfo@@@Z 000000018003eb40     libvcruntime:riscehstate.obj
 0002:0000cb40       $unwind$??0bad_array_new_length@std@@QEAA@AEBV01@@Z 000000018003eb40     LIBCMT:throw_bad_alloc.obj
 0002:0000cb40       $unwind$??$Unwrap@VCanvas@@@ObjectWrap@Nan@@SAPEAVCanvas@@V?$Local@VObject@v8@@@v8@@@Z 000000018003eb40     Canvas.obj
 0002:0000cb40       $unwind$?ExFilterRethrow@@YAHPEAU_EXCEPTION_POINTERS@@PEAUEHExceptionRecord@@PEAH@Z 000000018003eb40     libvcruntime:frame.obj
 0002:0000cb40       $unwind$__acrt_get_parent_window 000000018003eb40     libucrt:winapi_thunks.obj
 0002:0000cb40       $unwind$?New@Image@@SAXAEBV?$FunctionCallbackInfo@VValue@v8@@@Nan@@@Z 000000018003eb40     Image.obj
 0002:0000cb40       $unwind$__raise_securityfailure 000000018003eb40     LIBCMT:gs_report.obj
 0002:0000cb40       $unwind$__acrt_AppPolicyGetWindowingModelInternal 000000018003eb40     libucrt:winapi_thunks.obj
 0002:0000cb40       $unwind$__acrt_AppPolicyGetShowDeveloperDiagnosticInternal 000000018003eb40     libucrt:winapi_thunks.obj
 0002:0000cb40       $unwind$?DloadReleaseSectionWriteAccess@@YAXXZ 000000018003eb40     DelayImp:delayhlp.obj
 0002:0000cb40       $unwind$__acrt_AppPolicyGetProcessTerminationMethodInternal 000000018003eb40     libucrt:winapi_thunks.obj
 0002:0000cb40       $unwind$??0bad_exception@std@@QEAA@AEBV01@@Z 000000018003eb40     libvcruntime:frame.obj
 0002:0000cb40       $unwind$?get_drive_number_from_path@@YA_NQEB_WAEAH@Z 000000018003eb40     libucrt:stat.obj
 0002:0000cb40       $unwind$?__StateFromIp@@YAHPEBU_s_FuncInfo@@PEAU_xDISPATCHER_CONTEXT@@_K@Z 000000018003eb40     libvcruntime:riscehstate.obj
 0002:0000cb40       $unwind$?SetTextBaseline@Context2d@@SAXAEBV?$FunctionCallbackInfo@VValue@v8@@@Nan@@@Z 000000018003eb40     CanvasRenderingContext2d.obj
 0002:0000cb40       $unwind$__acrt_uninitialize_locks 000000018003eb40     libucrt:locks.obj
 0002:0000cb40       $unwind$__acrt_FlsFree     000000018003eb40     libucrt:winapi_thunks.obj
 0002:0000cb40       $unwind$__acrt_FlsAlloc    000000018003eb40     libucrt:winapi_thunks.obj
 0002:0000cb40       $unwind$_callnewh          000000018003eb40     libucrt:new_handler.obj
 0002:0000cb40       $unwind$__acrt_uninitialize_winapi_thunks 000000018003eb40     libucrt:winapi_thunks.obj
 0002:0000cb40       $unwind$fegetenv           000000018003eb40     libucrt:fegetenv.obj
 0002:0000cb40       $unwind$fesetenv           000000018003eb40     libucrt:fesetenv.obj
 0002:0000cb40       $unwind$?try_cor_exit_process@@YAXI@Z 000000018003eb40     libucrt:exit.obj
 0002:0000cb40       $unwind$?exit_or_terminate_process@@YAXI@Z 000000018003eb40     libucrt:exit.obj
 0002:0000cb40       $unwind$feholdexcept       000000018003eb40     libucrt:feholdexcept.obj
 0002:0000cb40       $unwind$_onexit            000000018003eb40     LIBCMT:utility.obj
 0002:0000cb40       $unwind$?SetTextAlignment@Context2d@@SAXAEBV?$FunctionCallbackInfo@VValue@v8@@@Nan@@@Z 000000018003eb40     CanvasRenderingContext2d.obj
 0002:0000cb40       $unwind$__acrt_freeptd     000000018003eb40     libucrt:per_thread_data.obj
 0002:0000cb40       $unwind$__acrt_allocate_buffer_for_argv 000000018003eb40     libucrt:argv_parsing.obj
 0002:0000cb40       $unwind$__acrt_getptd_head 000000018003eb40     libucrt:per_thread_data.obj
 0002:0000cb48       $unwind$__acrt_getptd_noexit 000000018003eb48     libucrt:per_thread_data.obj
 0002:0000cb48       $unwind$__acrt_getptd      000000018003eb48     libucrt:per_thread_data.obj
 0002:0000cb48       $unwind$?Clip@Context2d@@SAXAEBV?$FunctionCallbackInfo@VValue@v8@@@Nan@@@Z 000000018003eb48     CanvasRenderingContext2d.obj
 0002:0000cb48       $unwind$?read_gif_from_memory@@YAHPEAUGifFileType@@PEAEH@Z 000000018003eb48     Image.obj
 0002:0000cb48       $unwind$?Fill@Context2d@@SAXAEBV?$FunctionCallbackInfo@VValue@v8@@@Nan@@@Z 000000018003eb48     CanvasRenderingContext2d.obj
 0002:0000cb48       $unwind$?replace_current_thread_locale_nolock@@YAXQEAU__acrt_ptd@@QEAU__crt_locale_data@@@Z 000000018003eb48     libucrt:per_thread_data.obj
 0002:0000cb48       $unwind$?GetOnload@Image@@SAXV?$Local@VString@v8@@@v8@@AEBV?$PropertyCallbackInfo@VValue@v8@@@Nan@@@Z 000000018003eb48     Image.obj
 0002:0000cb48       $unwind$?DloadGetSRWLockFunctionPointers@@YAEXZ 000000018003eb48     DelayImp:delayhlp.obj
 0002:0000cb48       $unwind$?readPNG@Image@@SA?AW4_cairo_status@@PEAXPEAEI@Z 000000018003eb48     Image.obj
 0002:0000cb48       $unwind$__acrt_execute_uninitializers 000000018003eb48     libucrt:shared_initialization.obj
 0002:0000cb48       $unwind$?Rotate@Context2d@@SAXAEBV?$FunctionCallbackInfo@VValue@v8@@@Nan@@@Z 000000018003eb48     CanvasRenderingContext2d.obj
 0002:0000cb48       $unwind$__acrt_FlsSetValue 000000018003eb48     libucrt:winapi_thunks.obj
 0002:0000cb48       $unwind$__acrt_LocaleNameToLCID 000000018003eb48     libucrt:winapi_thunks.obj
 0002:0000cb48       $unwind$??$common_initialize_environment_nolock@D@@YAHXZ 000000018003eb48     libucrt:environment_initialization.obj
 0002:0000cb48       $unwind$?DloadAcquireSectionWriteAccess@@YAXXZ 000000018003eb48     DelayImp:delayhlp.obj
 0002:0000cb48       $unwind$?force_decimal_point@__crt_stdio_output@@YAXPEADQEAU__crt_locale_pointers@@@Z 000000018003eb48     libucrt:output.obj
 0002:0000cb48       $unwind$__acrt_can_show_message_box 000000018003eb48     libucrt:winapi_thunks.obj
 0002:0000cb48       $unwind$??_Gbad_exception@std@@UEAAPEAXI@Z 000000018003eb48     libvcruntime:frame.obj
 0002:0000cb48       $unwind$?GetOnerror@Image@@SAXV?$Local@VString@v8@@@v8@@AEBV?$PropertyCallbackInfo@VValue@v8@@@Nan@@@Z 000000018003eb48     Image.obj
 0002:0000cb48       $unwind$?Restore@Context2d@@SAXAEBV?$FunctionCallbackInfo@VValue@v8@@@Nan@@@Z 000000018003eb48     CanvasRenderingContext2d.obj
 0002:0000cb48       $unwind$?Save@Context2d@@SAXAEBV?$FunctionCallbackInfo@VValue@v8@@@Nan@@@Z 000000018003eb48     CanvasRenderingContext2d.obj
 0002:0000cb48       $unwind$??0_LocaleUpdate@@QEAA@QEAU__crt_locale_pointers@@@Z 000000018003eb48     libucrt:output.obj
 0002:0000cb48       $unwind$_close_nolock      000000018003eb48     libucrt:close.obj
 0002:0000cb48       $unwind$__vcrt_FlsAlloc    000000018003eb48     libvcruntime:winapi_downlevel.obj
 0002:0000cb48       $unwind$__vcrt_FlsFree     000000018003eb48     libvcruntime:winapi_downlevel.obj
 0002:0000cb48       $unwind$?__SetUnwindTryBlock@@YAXPEA_KPEAU_xDISPATCHER_CONTEXT@@PEBU_s_FuncInfo@@H@Z 000000018003eb48     libvcruntime:riscehstate.obj
 0002:0000cb48       $unwind$__vcrt_FlsGetValue 000000018003eb48     libvcruntime:winapi_downlevel.obj
 0002:0000cb48       $unwind$?common_fseek_binary_mode_read_only_fast_track_nolock@@YA_NV__crt_stdio_stream@@_JH@Z 000000018003eb48     libucrt:fseek.obj
 0002:0000cb48       $unwind$??_GObjectWrap@Nan@@UEAAPEAXI@Z 000000018003eb48     Canvas.obj
 0002:0000cb48       $unwind$??_Gbad_array_new_length@std@@UEAAPEAXI@Z 000000018003eb48     LIBCMT:throw_bad_alloc.obj
 0002:0000cb48       $unwind$?GetComplete@Image@@SAXV?$Local@VString@v8@@@v8@@AEBV?$PropertyCallbackInfo@VValue@v8@@@Nan@@@Z 000000018003eb48     Image.obj
 0002:0000cb48       $unwind$?SetShadowOffsetX@Context2d@@SAXV?$Local@VString@v8@@@v8@@V?$Local@VValue@v8@@@3@AEBV?$PropertyCallbackInfo@X@Nan@@@Z 000000018003eb48     CanvasRenderingContext2d.obj
 0002:0000cb48       $unwind$_fclose_nolock     000000018003eb48     libucrt:fclose.obj
 0002:0000cb48       $unwind$__acrt_uninitialize_lowio 000000018003eb48     libucrt:ioinit.obj
 0002:0000cb48       $unwind$?SetShadowOffsetY@Context2d@@SAXV?$Local@VString@v8@@@v8@@V?$Local@VValue@v8@@@3@AEBV?$PropertyCallbackInfo@X@Nan@@@Z 000000018003eb48     CanvasRenderingContext2d.obj
 0002:0000cb48       $unwind$strncpy_s          000000018003eb48     libucrt:strncpy_s.obj
 0002:0000cb48       $unwind$wcsncat_s          000000018003eb48     libucrt:wcsncat_s.obj
 0002:0000cb48       $unwind$?SetShadowBlur@Context2d@@SAXV?$Local@VString@v8@@@v8@@V?$Local@VValue@v8@@@3@AEBV?$PropertyCallbackInfo@X@Nan@@@Z 000000018003eb48     CanvasRenderingContext2d.obj
 0002:0000cb48       $unwind$??_GImageData@@UEAAPEAXI@Z 000000018003eb48     ImageData.obj
 0002:0000cb48       $unwind$??_GGradient@@EEAAPEAXI@Z 000000018003eb48     CanvasGradient.obj
 0002:0000cb48       $unwind$??_Glength_error@std@@UEAAPEAXI@Z 000000018003eb48     libcpmt:xthrow.obj
 0002:0000cb48       $unwind$??_Glogic_error@std@@UEAAPEAXI@Z 000000018003eb48     libcpmt:xthrow.obj
 0002:0000cb48       $unwind$?type_case_c_tchar@?$output_processor@DV?$string_output_adapter@D@__crt_stdio_output@@V?$standard_base@DV?$string_output_adapter@D@__crt_stdio_output@@@2@@__crt_stdio_output@@AEAA_ND@Z 000000018003eb48     libucrt:output.obj
 0002:0000cb48       $unwind$??$common_xtox@K_W@@YAHKQEA_W_KI_N@Z 000000018003eb48     libucrt:xtoa.obj
 0002:0000cb48       $unwind$??_GContext2d@@EEAAPEAXI@Z 000000018003eb48     CanvasRenderingContext2d.obj
 0002:0000cb48       $unwind$_updatetlocinfoEx_nolock 000000018003eb48     libucrt:locale_refcounting.obj
 0002:0000cb48       $unwind$_initterm_e        000000018003eb48     libucrt:initterm.obj
 0002:0000cb48       $unwind$?SetDataMode@Image@@SAXV?$Local@VString@v8@@@v8@@V?$Local@VValue@v8@@@3@AEBV?$PropertyCallbackInfo@X@Nan@@@Z 000000018003eb48     Image.obj
 0002:0000cb48       $unwind$longjmp            000000018003eb48     libvcruntime:longjmpc.obj
 0002:0000cb48       $unwind$??_Gbad_alloc@std@@UEAAPEAXI@Z 000000018003eb48     libcpmt:xthrow.obj
 0002:0000cb48       $unwind$__acrt_errno_map_os_error 000000018003eb48     libucrt:errno.obj
 0002:0000cb48       $unwind$??_GFontFace@@EEAAPEAXI@Z 000000018003eb48     FontFace.obj
 0002:0000cb48       $unwind$_FindAndUnlinkFrame 000000018003eb48     libvcruntime:risctrnsctrl.obj
 0002:0000cb48       $unwind$??_GPattern@@EEAAPEAXI@Z 000000018003eb48     CanvasPattern.obj
 0002:0000cb48       $unwind$_realloc_base      000000018003eb48     libucrt:realloc_base.obj
 0002:0000cb48       $unwind$??_Gexception@std@@UEAAPEAXI@Z 000000018003eb48     libcpmt:xthrow.obj
 0002:0000cb48       $unwind$__acrt_stdio_begin_temporary_buffering_nolock 000000018003eb48     libucrt:_sftbuf.obj
 0002:0000cb54       $chain$0$?closure_destroy@@YAXPEAUclosure_t@@@Z 000000018003eb54     Canvas.obj
 0002:0000cb68       $chain$1$?closure_destroy@@YAXPEAUclosure_t@@@Z 000000018003eb68     Canvas.obj
 0002:0000cb7c       $chain$2$?closure_destroy@@YAXPEAUclosure_t@@@Z 000000018003eb7c     Canvas.obj
 0002:0000cb8c       $chain$3$?closure_destroy@@YAXPEAUclosure_t@@@Z 000000018003eb8c     Canvas.obj
 0002:0000cb9c       $unwind$?canvas_unpremultiply_data@@YAXPEAUpng_struct_def@@PEAUpng_row_info_struct@@PEAE@Z 000000018003eb9c     Canvas.obj
 0002:0000cba8       $chain$1$?canvas_unpremultiply_data@@YAXPEAUpng_struct_def@@PEAUpng_row_info_struct@@PEAE@Z 000000018003eba8     Canvas.obj
 0002:0000cbc0       $chain$2$?canvas_unpremultiply_data@@YAXPEAUpng_struct_def@@PEAUpng_row_info_struct@@PEAE@Z 000000018003ebc0     Canvas.obj
 0002:0000cbd0       $unwind$?canvas_write_png@@YA?AW4_cairo_status@@PEAU_cairo_surface@@P6AXPEAUpng_struct_def@@PEAE_K@ZPEAX@Z 000000018003ebd0     Canvas.obj
 0002:0000cbf0       $unwind$?empty_closure_output_buffer@@YAEPEAUjpeg_compress_struct@@@Z 000000018003ebf0     Canvas.obj
 0002:0000cc08       $stateUnwindMap$?empty_closure_output_buffer@@YAEPEAUjpeg_compress_struct@@@Z 000000018003ec08     Canvas.obj
 0002:0000cc10       $ip2state$?empty_closure_output_buffer@@YAEPEAUjpeg_compress_struct@@@Z 000000018003ec10     Canvas.obj
 0002:0000cc28       $unwind$?term_closure_destination@@YAXPEAUjpeg_compress_struct@@@Z 000000018003ec28     Canvas.obj
 0002:0000cc3c       $stateUnwindMap$?term_closure_destination@@YAXPEAUjpeg_compress_struct@@@Z 000000018003ec3c     Canvas.obj
 0002:0000cc48       $ip2state$?term_closure_destination@@YAXPEAUjpeg_compress_struct@@@Z 000000018003ec48     Canvas.obj
 0002:0000cc60       $unwind$?write_to_jpeg_stream@@YAXPEAU_cairo_surface@@HH_NPEAUclosure_t@@@Z 000000018003ec60     Canvas.obj
 0002:0000cc80       $unwind$??__F?constructor@Gradient@@2V?$Persistent@VFunctionTemplate@v8@@V?$NonCopyablePersistentTraits@VFunctionTemplate@v8@@@2@@Nan@@A@@YAXXZ 000000018003ec80     CanvasGradient.obj
 0002:0000cc80       $unwind$??__F?constructor@Image@@2V?$Persistent@VFunctionTemplate@v8@@V?$NonCopyablePersistentTraits@VFunctionTemplate@v8@@@2@@Nan@@A@@YAXXZ 000000018003ec80     Image.obj
 0002:0000cc80       $unwind$??__F?constructor@FontFace@@2V?$Persistent@VFunctionTemplate@v8@@V?$NonCopyablePersistentTraits@VFunctionTemplate@v8@@@2@@Nan@@A@@YAXXZ 000000018003ec80     FontFace.obj
 0002:0000cc80       $unwind$??__F?constructor@ImageData@@2V?$Persistent@VFunctionTemplate@v8@@V?$NonCopyablePersistentTraits@VFunctionTemplate@v8@@@2@@Nan@@A@@YAXXZ 000000018003ec80     ImageData.obj
 0002:0000cc80       $unwind$??__F?constructor@Context2d@@2V?$Persistent@VFunctionTemplate@v8@@V?$NonCopyablePersistentTraits@VFunctionTemplate@v8@@@2@@Nan@@A@@YAXXZ 000000018003ec80     CanvasRenderingContext2d.obj
 0002:0000cc80       $unwind$??__F?constructor@Pattern@@2V?$Persistent@VFunctionTemplate@v8@@V?$NonCopyablePersistentTraits@VFunctionTemplate@v8@@@2@@Nan@@A@@YAXXZ 000000018003ec80     CanvasPattern.obj
 0002:0000cc80       $unwind$??__F?constructor@Canvas@@2V?$Persistent@VFunctionTemplate@v8@@V?$NonCopyablePersistentTraits@VFunctionTemplate@v8@@@2@@Nan@@A@@YAXXZ 000000018003ec80     Canvas.obj
 0002:0000cc90       $unwind$?Initialize@Canvas@@SAXV?$Local@VObject@v8@@@v8@@@Z 000000018003ec90     Canvas.obj
 0002:0000ccac       $stateUnwindMap$?Initialize@Canvas@@SAXV?$Local@VObject@v8@@@v8@@@Z 000000018003ecac     Canvas.obj
 0002:0000cd00       $ip2state$?Initialize@Canvas@@SAXV?$Local@VObject@v8@@@v8@@@Z 000000018003ed00     Canvas.obj
 0002:0000cda0       $unwind$?New@Canvas@@SAXAEBV?$FunctionCallbackInfo@VValue@v8@@@Nan@@@Z 000000018003eda0     Canvas.obj
 0002:0000cdbc       $stateUnwindMap$?New@Canvas@@SAXAEBV?$FunctionCallbackInfo@VValue@v8@@@Nan@@@Z 000000018003edbc     Canvas.obj
 0002:0000cdd0       $ip2state$?New@Canvas@@SAXAEBV?$FunctionCallbackInfo@VValue@v8@@@Nan@@@Z 000000018003edd0     Canvas.obj
 0002:0000cdf8       $unwind$?fin$0@?0???$?RV<lambda_2d41944a1d46af3157314b8a01080d33>@@AEAV<lambda_8f455de75cd7d7f24b4096f044d8b9e6>@@V<lambda_aa500f224e6afead328df44964fe2772>@@@?$__crt_seh_guarded_call@X@@QEAAX$$QEAV<lambda_2d41944a1d46af3157314b8a01080d33>@@AEAV<lambda_8f455de75cd7d7f24b4096f044d8b9e6>@@$$QEAV<lambda_aa500f224e6afead328df44964fe2772>@@@Z@4HA 000000018003edf8     libucrt:per_thread_data.obj
 0002:0000cdf8       $unwind$?dtor$0@?0??New@Gradient@@SAXAEBV?$FunctionCallbackInfo@VValue@v8@@@Nan@@@Z@4HA 000000018003edf8     CanvasGradient.obj
 0002:0000cdf8       $unwind$?fin$0@?0???$?RV<lambda_f2e299630e499de9f9a165e60fcd3db5>@@AEAV<lambda_2ae9d31cdba2644fcbeaf08da7c24588>@@V<lambda_40d01ff24d0e7b3814fdbdcee8eab3c7>@@@?$__crt_seh_guarded_call@X@@QEAAX$$QEAV<lambda_f2e299630e499de9f9a165e60fcd3db5>@@AEAV<lambda_2ae9d31cdba2644fcbeaf08da7c24588>@@$$QEAV<lambda_40d01ff24d0e7b3814fdbdcee8eab3c7>@@@Z@4HA 000000018003edf8     libucrt:per_thread_data.obj
 0002:0000cdf8       $unwind$_query_new_handler$fin$0 000000018003edf8     libucrt:new_handler.obj
 0002:0000cdf8       $unwind$__acrt_update_thread_locale_data$fin$0 000000018003edf8     libucrt:locale_refcounting.obj
 0002:0000cdf8       $unwind$?fin$0@?0???$?RV<lambda_3a04bfe258a31910a526c90b4d849d20>@@AEAV<lambda_1b3ad63c02abf531fe15530b52bade31>@@V<lambda_1755787d260f86bf828f8bf7552b2658>@@@?$__crt_seh_guarded_call@H@@QEAAH$$QEAV<lambda_3a04bfe258a31910a526c90b4d849d20>@@AEAV<lambda_1b3ad63c02abf531fe15530b52bade31>@@$$QEAV<lambda_1755787d260f86bf828f8bf7552b2658>@@@Z@4HA 000000018003edf8     libucrt:stat.obj
 0002:0000cdf8       $unwind$?dtor$2@?0??New@Canvas@@SAXAEBV?$FunctionCallbackInfo@VValue@v8@@@Nan@@@Z@4HA 000000018003edf8     Canvas.obj
 0002:0000cdf8       $unwind$?fin$0@?0???$?RV<lambda_aa87e3671a710a21b5dc78c0bdf72e11>@@AEAV<lambda_92619d2358a28f41a33ba319515a20b9>@@V<lambda_6992ecaafeb10aed2b74cb1fae11a551>@@@?$__crt_seh_guarded_call@X@@QEAAX$$QEAV<lambda_aa87e3671a710a21b5dc78c0bdf72e11>@@AEAV<lambda_92619d2358a28f41a33ba319515a20b9>@@$$QEAV<lambda_6992ecaafeb10aed2b74cb1fae11a551>@@@Z@4HA 000000018003edf8     libucrt:per_thread_data.obj
 0002:0000cdf8       $unwind$?fin$0@?0??common_fseek@@YAHV__crt_stdio_stream@@_JH@Z@4HA 000000018003edf8     libucrt:fseek.obj
 0002:0000cdf8       $unwind$?fin$0@?0???$?RV<lambda_0ae27a3a962d80f24befdcbee591983d>@@AEAV<lambda_8d0ee55de4b1038c4002e0adecdf1839>@@V<lambda_dc504788e8f1664fe9b84e20bfb512f2>@@@?$__crt_seh_guarded_call@X@@QEAAX$$QEAV<lambda_0ae27a3a962d80f24befdcbee591983d>@@AEAV<lambda_8d0ee55de4b1038c4002e0adecdf1839>@@$$QEAV<lambda_dc504788e8f1664fe9b84e20bfb512f2>@@@Z@4HA 000000018003edf8     libucrt:per_thread_data.obj
 0002:0000cdf8       $unwind$_fcloseall$fin$0   000000018003edf8     libucrt:closeall.obj
 0002:0000cdf8       $unwind$?filt$0@?0???R<lambda_6e4b09c48022b2350581041d5f6b0c4c>@@QEBA@XZ@4HA 000000018003edf8     libucrt:exit.obj
 0002:0000cdf8       $unwind$?fin$0@?0???$?RV<lambda_d80eeec6fff315bfe5c115232f3240e3>@@AEAV<lambda_6e4b09c48022b2350581041d5f6b0c4c>@@V<lambda_2358e3775559c9db80273638284d5e45>@@@?$__crt_seh_guarded_call@X@@QEAAX$$QEAV<lambda_d80eeec6fff315bfe5c115232f3240e3>@@AEAV<lambda_6e4b09c48022b2350581041d5f6b0c4c>@@$$QEAV<lambda_2358e3775559c9db80273638284d5e45>@@@Z@4HA 000000018003edf8     libucrt:exit.obj
 0002:0000cdf8       $unwind$fclose$fin$0       000000018003edf8     libucrt:fclose.obj
 0002:0000cdf8       $unwind$__acrt_initialize_lowio$fin$0 000000018003edf8     libucrt:ioinit.obj
 0002:0000cdf8       $unwind$?dtor$0@?0??SetOnload@Image@@SAXV?$Local@VString@v8@@@v8@@V?$Local@VValue@v8@@@3@AEBV?$PropertyCallbackInfo@X@Nan@@@Z@4HA 000000018003edf8     Image.obj
 0002:0000cdf8       $unwind$?fin$0@?0???$common_fsopen@D@@YAPEAU_iobuf@@QEBD0H@Z@4HA 000000018003edf8     libucrt:fopen.obj
 0002:0000cdf8       $unwind$_ctrlfp$filt$0     000000018003edf8     libucrt:fpctrl.obj
 0002:0000cdf8       $unwind$?fin$0@?0???$common_ftell@J@@YAJV__crt_stdio_stream@@@Z@4HA 000000018003edf8     libucrt:ftell.obj
 0002:0000cdf8       $unwind$__DestructExceptionObject$filt$0 000000018003edf8     libvcruntime:ehhelpers.obj
 0002:0000cdf8       $unwind$?dtor$0@?0??ToBuffer@Canvas@@SAXAEBV?$FunctionCallbackInfo@VValue@v8@@@Nan@@@Z@4HA 000000018003edf8     Canvas.obj
 0002:0000cdf8       $unwind$?fin$0@?0???$?RV<lambda_0d412022a4b28cc8a401ea49574e8ae6>@@AEAV<lambda_a775ed57af18ba8e4d5dc780aa9068fe>@@V<lambda_975a71a6baa488a08f4e15f6b0339b9e>@@@?$__crt_seh_guarded_call@H@@QEAAH$$QEAV<lambda_0d412022a4b28cc8a401ea49574e8ae6>@@AEAV<lambda_a775ed57af18ba8e4d5dc780aa9068fe>@@$$QEAV<lambda_975a71a6baa488a08f4e15f6b0339b9e>@@@Z@4HA 000000018003edf8     libucrt:output.obj
 0002:0000cdf8       $unwind$?fin$0@?0???$?RV<lambda_450d765d439847d4c735a33c368b5fc0>@@AEAV<lambda_44731a7d0e6d81c3e6aa82d741081786>@@V<lambda_601a2a7da3b7a96e9554ac7215c4b07c>@@@?$__crt_seh_guarded_call@P6AXH@Z@@QEAAP6AXH@Z$$QEAV<lambda_450d765d439847d4c735a33c368b5fc0>@@AEAV<lambda_44731a7d0e6d81c3e6aa82d741081786>@@$$QEAV<lambda_601a2a7da3b7a96e9554ac7215c4b07c>@@@Z@4HA 000000018003edf8     libucrt:signal.obj
 0002:0000cdf8       $unwind$?dtor$1@?0??New@Gradient@@SAXAEBV?$FunctionCallbackInfo@VValue@v8@@@Nan@@@Z@4HA 000000018003edf8     CanvasGradient.obj
 0002:0000cdf8       $unwind$?fin$0@?0??dllmain_crt_process_attach@@YAHQEAUHINSTANCE__@@QEAX@Z@4HA 000000018003edf8     LIBCMT:dll_dllmain.obj
 0002:0000cdf8       $unwind$_write$fin$0       000000018003edf8     libucrt:write.obj
 0002:0000cdf8       $unwind$raise$fin$0        000000018003edf8     libucrt:signal.obj
 0002:0000cdf8       $unwind$?fin$0@?0???$?RV<lambda_84ec643ea9557e2f7dc01bb0e9624395>@@AEAV<lambda_ca71763b3c0644891230e4f79ea54fa6>@@V<lambda_439a761618c59b0600e24586724d733b>@@@?$__crt_seh_guarded_call@H@@QEAAH$$QEAV<lambda_84ec643ea9557e2f7dc01bb0e9624395>@@AEAV<lambda_ca71763b3c0644891230e4f79ea54fa6>@@$$QEAV<lambda_439a761618c59b0600e24586724d733b>@@@Z@4HA 000000018003edf8     libucrt:setvbuf.obj
 0002:0000cdf8       $unwind$?fin$0@?0???$?RV<lambda_a37b2b86f63e897a80ea819b0eb08c01>@@AEAV<lambda_38ce7e780aa69e748d6df282ebc68efe>@@V<lambda_99fb1378e971ab6e7edea83e3a7a83a2>@@@?$__crt_seh_guarded_call@H@@QEAAH$$QEAV<lambda_a37b2b86f63e897a80ea819b0eb08c01>@@AEAV<lambda_38ce7e780aa69e748d6df282ebc68efe>@@$$QEAV<lambda_99fb1378e971ab6e7edea83e3a7a83a2>@@@Z@4HA 000000018003edf8     libucrt:commit.obj
 0002:0000cdf8       $unwind$?fin$0@?0???$?RV<lambda_410d79af7f07d98d83a3f525b3859a53>@@AEAV<lambda_3e16ef9562a7dcce91392c22ab16ea36>@@V<lambda_38119f0e861e05405d8a144b9b982f0a>@@@?$__crt_seh_guarded_call@X@@QEAAX$$QEAV<lambda_410d79af7f07d98d83a3f525b3859a53>@@AEAV<lambda_3e16ef9562a7dcce91392c22ab16ea36>@@$$QEAV<lambda_38119f0e861e05405d8a144b9b982f0a>@@@Z@4HA 000000018003edf8     libucrt:wsetlocale.obj
 0002:0000cdf8       $unwind$?fin$0@?0???$?RV<lambda_8369fcb7c4df1e85de37618bd2b85f07>@@AEAV<lambda_a10e4b102d4a2c3aac6f4f48bbdf488f>@@V<lambda_5b7707bd6d7a0c4713179f36c7fd995d>@@@?$__crt_seh_guarded_call@H@@QEAAH$$QEAV<lambda_8369fcb7c4df1e85de37618bd2b85f07>@@AEAV<lambda_a10e4b102d4a2c3aac6f4f48bbdf488f>@@$$QEAV<lambda_5b7707bd6d7a0c4713179f36c7fd995d>@@@Z@4HA 000000018003edf8     libucrt:onexit.obj
 0002:0000cdf8       $unwind$?fin$0@?0???$common_lseek@_J@@YA_JH_JH@Z@4HA 000000018003edf8     libucrt:lseek.obj
 0002:0000cdf8       $unwind$?fin$0@?0???$?RV<lambda_7777bce6b2f8c936911f934f8298dc43>@@AEAV<lambda_f03950bc5685219e0bcd2087efbe011e>@@V<lambda_3883c3dff614d5e0c5f61bb1ac94921c>@@@?$__crt_seh_guarded_call@H@@QEAAH$$QEAV<lambda_7777bce6b2f8c936911f934f8298dc43>@@AEAV<lambda_f03950bc5685219e0bcd2087efbe011e>@@$$QEAV<lambda_3883c3dff614d5e0c5f61bb1ac94921c>@@@Z@4HA 000000018003edf8     libucrt:onexit.obj
 0002:0000cdf8       $unwind$?fin$0@?0???$?RV<lambda_c376a267cfb53b6959b3b692ec76b120>@@AEAV<lambda_9a32fed5bf61b6b509b2d3f6003082a1>@@V<lambda_572fbb9fa0ab338edf41edfd4b5fcc8d>@@@?$__crt_seh_guarded_call@H@@QEAAH$$QEAV<lambda_c376a267cfb53b6959b3b692ec76b120>@@AEAV<lambda_9a32fed5bf61b6b509b2d3f6003082a1>@@$$QEAV<lambda_572fbb9fa0ab338edf41edfd4b5fcc8d>@@@Z@4HA 000000018003edf8     libucrt:fflush.obj
 0002:0000cdf8       $unwind$?fin$0@?0???$?RV<lambda_886d6c58226a84441f68b9f2b8217b83>@@AEAV<lambda_ab61a845afdef5b7c387490eaf3616ee>@@V<lambda_f7f22ab5edc0698d5f6905b0d3f44752>@@@?$__crt_seh_guarded_call@X@@QEAAX$$QEAV<lambda_886d6c58226a84441f68b9f2b8217b83>@@AEAV<lambda_ab61a845afdef5b7c387490eaf3616ee>@@$$QEAV<lambda_f7f22ab5edc0698d5f6905b0d3f44752>@@@Z@4HA 000000018003edf8     libucrt:fflush.obj
 0002:0000cdf8       $unwind$?dtor$0@?0??SetOnerror@Image@@SAXV?$Local@VString@v8@@@v8@@V?$Local@VValue@v8@@@3@AEBV?$PropertyCallbackInfo@X@Nan@@@Z@4HA 000000018003edf8     Image.obj
 0002:0000cdf8       $unwind$?fin$0@?0??dllmain_crt_process_detach@@YAH_N@Z@4HA 000000018003edf8     LIBCMT:dll_dllmain.obj
 0002:0000cdf8       $unwind$_read$fin$0        000000018003edf8     libucrt:read.obj
 0002:0000cdf8       $unwind$__tzset$fin$0      000000018003edf8     libucrt:tzset.obj
 0002:0000cdf8       $unwind$__CxxCallCatchBlock$filt$0 000000018003edf8     libvcruntime:frame.obj
 0002:0000cdf8       $unwind$?fin$0@?0???$?RV<lambda_842d9ff0dc9ef11c61343bbaebe7f885>@@AEAV<lambda_c5860995281e5c4ce005b3de8f5874ee>@@V<lambda_d90129c13df834fdcbf8d2b88dafcf2d>@@@?$__crt_seh_guarded_call@X@@QEAAX$$QEAV<lambda_842d9ff0dc9ef11c61343bbaebe7f885>@@AEAV<lambda_c5860995281e5c4ce005b3de8f5874ee>@@$$QEAV<lambda_d90129c13df834fdcbf8d2b88dafcf2d>@@@Z@4HA 000000018003edf8     libucrt:fflush.obj
 0002:0000cdf8       $unwind$?fin$0@?0??__acrt_stdio_allocate_stream@@YA?AV__crt_stdio_stream@@XZ@4HA 000000018003edf8     libucrt:stream.obj
 0002:0000cdf8       $unwind$__FrameUnwindToState$filt$0 000000018003edf8     libvcruntime:frame.obj
 0002:0000cdf8       $unwind$__FrameUnwindToState$fin$1 000000018003edf8     libvcruntime:frame.obj
 0002:0000cdf8       $unwind$?fin$0@?0???$?RV<lambda_efdfa57d1f175319df784efa44bb7b81>@@AEAV<lambda_5f0a4c1567f8adc6734073e5d1e1b35c>@@V<lambda_2e8a7d3640ea6ccb4c2413664c2db6fd>@@@?$__crt_seh_guarded_call@X@@QEAAX$$QEAV<lambda_efdfa57d1f175319df784efa44bb7b81>@@AEAV<lambda_5f0a4c1567f8adc6734073e5d1e1b35c>@@$$QEAV<lambda_2e8a7d3640ea6ccb4c2413664c2db6fd>@@@Z@4HA 000000018003edf8     libucrt:mbctype.obj
 0002:0000cdf8       $unwind$?fin$0@?0??update_thread_multibyte_data_internal@@YAPEAU__crt_multibyte_data@@QEAU__acrt_ptd@@QEAPEAU1@@Z@4HA 000000018003edf8     libucrt:mbctype.obj
 0002:0000cdf8       $unwind$_IsNonwritableInCurrentImage$filt$0 000000018003edf8     LIBCMT:pesect.obj
 0002:0000cdf8       $unwind$?fin$0@?0???$?RV<lambda_751a882b2c74d4b022dec766aa51a29a>@@AEAV<lambda_628dfdc04ba53c8bfc02c9951375f3f5>@@V<lambda_f6c7be5f7998530c34de24c7437d6b54>@@@?$__crt_seh_guarded_call@H@@QEAAH$$QEAV<lambda_751a882b2c74d4b022dec766aa51a29a>@@AEAV<lambda_628dfdc04ba53c8bfc02c9951375f3f5>@@$$QEAV<lambda_f6c7be5f7998530c34de24c7437d6b54>@@@Z@4HA 000000018003edf8     libucrt:close.obj
 0002:0000cdf8       $unwind$_alloc_osfhnd$fin$0 000000018003edf8     libucrt:osfinfo.obj
 0002:0000cdf8       $unwind$__acrt_lowio_ensure_fh_exists$fin$0 000000018003edf8     libucrt:osfinfo.obj
 0002:0000cdf8       $unwind$_isindst$fin$0     000000018003edf8     libucrt:tzset.obj
 0002:0000ce00       $unwind$?ToBufferAsync@Canvas@@SAXPEAUuv_work_s@@@Z 000000018003ee00     Canvas.obj
 0002:0000ce00       $unwind$?stroke@Context2d@@QEAAX_N@Z 000000018003ee00     CanvasRenderingContext2d.obj
 0002:0000ce00       $unwind$?GetFilter@Context2d@@SAXV?$Local@VString@v8@@@v8@@AEBV?$PropertyCallbackInfo@VValue@v8@@@Nan@@@Z 000000018003ee00     CanvasRenderingContext2d.obj
 0002:0000ce00       $unwind$?GetSource@Image@@SAXV?$Local@VString@v8@@@v8@@AEBV?$PropertyCallbackInfo@VValue@v8@@@Nan@@@Z 000000018003ee00     Image.obj
 0002:0000ce00       $unwind$?fill@Context2d@@QEAAX_N@Z 000000018003ee00     CanvasRenderingContext2d.obj
 0002:0000ce00       $unwind$?SetLineJoin@Context2d@@SAXV?$Local@VString@v8@@@v8@@V?$Local@VValue@v8@@@3@AEBV?$PropertyCallbackInfo@X@Nan@@@Z 000000018003ee00     CanvasRenderingContext2d.obj
 0002:0000ce00       $unwind$?GetAntiAlias@Context2d@@SAXV?$Local@VString@v8@@@v8@@AEBV?$PropertyCallbackInfo@VValue@v8@@@Nan@@@Z 000000018003ee00     CanvasRenderingContext2d.obj
 0002:0000ce00       $unwind$?GetLineJoin@Context2d@@SAXV?$Local@VString@v8@@@v8@@AEBV?$PropertyCallbackInfo@VValue@v8@@@Nan@@@Z 000000018003ee00     CanvasRenderingContext2d.obj
 0002:0000ce00       $unwind$?SetLineCap@Context2d@@SAXV?$Local@VString@v8@@@v8@@V?$Local@VValue@v8@@@3@AEBV?$PropertyCallbackInfo@X@Nan@@@Z 000000018003ee00     CanvasRenderingContext2d.obj
 0002:0000ce00       $unwind$?GetLineCap@Context2d@@SAXV?$Local@VString@v8@@@v8@@AEBV?$PropertyCallbackInfo@VValue@v8@@@Nan@@@Z 000000018003ee00     CanvasRenderingContext2d.obj
 0002:0000ce00       $unwind$?GetGlobalCompositeOperation@Context2d@@SAXV?$Local@VString@v8@@@v8@@AEBV?$PropertyCallbackInfo@VValue@v8@@@Nan@@@Z 000000018003ee00     CanvasRenderingContext2d.obj
 0002:0000ce00       $unwind$?SetPatternQuality@Context2d@@SAXV?$Local@VString@v8@@@v8@@V?$Local@VValue@v8@@@3@AEBV?$PropertyCallbackInfo@X@Nan@@@Z 000000018003ee00     CanvasRenderingContext2d.obj
 0002:0000ce00       $unwind$?rgba_from_string@@YAHPEBDPEAF@Z 000000018003ee00     color.obj
 0002:0000ce00       $unwind$?GetPatternQuality@Context2d@@SAXV?$Local@VString@v8@@@v8@@AEBV?$PropertyCallbackInfo@VValue@v8@@@Nan@@@Z 000000018003ee00     CanvasRenderingContext2d.obj
 0002:0000ce00       $unwind$?GetTextDrawingMode@Context2d@@SAXV?$Local@VString@v8@@@v8@@AEBV?$PropertyCallbackInfo@VValue@v8@@@Nan@@@Z 000000018003ee00     CanvasRenderingContext2d.obj
 0002:0000ce00       $unwind$?GetType@Canvas@@SAXV?$Local@VString@v8@@@v8@@AEBV?$PropertyCallbackInfo@VValue@v8@@@Nan@@@Z 000000018003ee00     Canvas.obj
 0002:0000ce0c       $unwind$?GetWidth@Image@@SAXV?$Local@VString@v8@@@v8@@AEBV?$PropertyCallbackInfo@VValue@v8@@@Nan@@@Z 000000018003ee0c     Image.obj
 0002:0000ce0c       $unwind$?GetShadowOffsetX@Context2d@@SAXV?$Local@VString@v8@@@v8@@AEBV?$PropertyCallbackInfo@VValue@v8@@@Nan@@@Z 000000018003ee0c     CanvasRenderingContext2d.obj
 0002:0000ce0c       $unwind$?GetGlobalAlpha@Context2d@@SAXV?$Local@VString@v8@@@v8@@AEBV?$PropertyCallbackInfo@VValue@v8@@@Nan@@@Z 000000018003ee0c     CanvasRenderingContext2d.obj
 0002:0000ce0c       $unwind$?GetStride@Canvas@@SAXV?$Local@VString@v8@@@v8@@AEBV?$PropertyCallbackInfo@VValue@v8@@@Nan@@@Z 000000018003ee0c     Canvas.obj
 0002:0000ce0c       $unwind$?GetHeight@Image@@SAXV?$Local@VString@v8@@@v8@@AEBV?$PropertyCallbackInfo@VValue@v8@@@Nan@@@Z 000000018003ee0c     Image.obj
 0002:0000ce0c       $unwind$?GetShadowOffsetY@Context2d@@SAXV?$Local@VString@v8@@@v8@@AEBV?$PropertyCallbackInfo@VValue@v8@@@Nan@@@Z 000000018003ee0c     CanvasRenderingContext2d.obj
 0002:0000ce0c       $unwind$?GetShadowBlur@Context2d@@SAXV?$Local@VString@v8@@@v8@@AEBV?$PropertyCallbackInfo@VValue@v8@@@Nan@@@Z 000000018003ee0c     CanvasRenderingContext2d.obj
 0002:0000ce0c       $unwind$?GetHeight@Canvas@@SAXV?$Local@VString@v8@@@v8@@AEBV?$PropertyCallbackInfo@VValue@v8@@@Nan@@@Z 000000018003ee0c     Canvas.obj
 0002:0000ce0c       $unwind$?GetWidth@Canvas@@SAXV?$Local@VString@v8@@@v8@@AEBV?$PropertyCallbackInfo@VValue@v8@@@Nan@@@Z 000000018003ee0c     Canvas.obj
 0002:0000ce0c       $unwind$?GetWidth@ImageData@@SAXV?$Local@VString@v8@@@v8@@AEBV?$PropertyCallbackInfo@VValue@v8@@@Nan@@@Z 000000018003ee0c     ImageData.obj
 0002:0000ce0c       $unwind$?GetMiterLimit@Context2d@@SAXV?$Local@VString@v8@@@v8@@AEBV?$PropertyCallbackInfo@VValue@v8@@@Nan@@@Z 000000018003ee0c     CanvasRenderingContext2d.obj
 0002:0000ce0c       $unwind$?GetLineDashOffset@Context2d@@SAXV?$Local@VString@v8@@@v8@@AEBV?$PropertyCallbackInfo@VValue@v8@@@Nan@@@Z 000000018003ee0c     CanvasRenderingContext2d.obj
 0002:0000ce0c       $unwind$?GetHeight@ImageData@@SAXV?$Local@VString@v8@@@v8@@AEBV?$PropertyCallbackInfo@VValue@v8@@@Nan@@@Z 000000018003ee0c     ImageData.obj
 0002:0000ce0c       $unwind$?GetLineWidth@Context2d@@SAXV?$Local@VString@v8@@@v8@@AEBV?$PropertyCallbackInfo@VValue@v8@@@Nan@@@Z 000000018003ee0c     CanvasRenderingContext2d.obj
 0002:0000ce0c       $unwind$?GetDataMode@Image@@SAXV?$Local@VString@v8@@@v8@@AEBV?$PropertyCallbackInfo@VValue@v8@@@Nan@@@Z 000000018003ee0c     Image.obj
 0002:0000ce18       $unwind$?SetHeight@Canvas@@SAXV?$Local@VString@v8@@@v8@@V?$Local@VValue@v8@@@3@AEBV?$PropertyCallbackInfo@X@Nan@@@Z 000000018003ee18     Canvas.obj
 0002:0000ce18       $unwind$?SetWidth@Canvas@@SAXV?$Local@VString@v8@@@v8@@V?$Local@VValue@v8@@@3@AEBV?$PropertyCallbackInfo@X@Nan@@@Z 000000018003ee18     Canvas.obj
 0002:0000ce24       $chain$0$?SetWidth@Canvas@@SAXV?$Local@VString@v8@@@v8@@V?$Local@VValue@v8@@@3@AEBV?$PropertyCallbackInfo@X@Nan@@@Z 000000018003ee24     Canvas.obj
 0002:0000ce38       $chain$1$?SetWidth@Canvas@@SAXV?$Local@VString@v8@@@v8@@V?$Local@VValue@v8@@@3@AEBV?$PropertyCallbackInfo@X@Nan@@@Z 000000018003ee38     Canvas.obj
 0002:0000ce48       $chain$0$?SetHeight@Canvas@@SAXV?$Local@VString@v8@@@v8@@V?$Local@VValue@v8@@@3@AEBV?$PropertyCallbackInfo@X@Nan@@@Z 000000018003ee48     Canvas.obj
 0002:0000ce5c       $chain$1$?SetHeight@Canvas@@SAXV?$Local@VString@v8@@@v8@@V?$Local@VValue@v8@@@3@AEBV?$PropertyCallbackInfo@X@Nan@@@Z 000000018003ee5c     Canvas.obj
 0002:0000ce6c       $unwind$__scrt_dllmain_exception_filter 000000018003ee6c     LIBCMT:utility.obj
 0002:0000ce6c       $unwind$?_ExecutionInCatch@@YAHPEAU_xDISPATCHER_CONTEXT@@PEBU_s_FuncInfo@@@Z 000000018003ee6c     libvcruntime:risctrnsctrl.obj
 0002:0000ce6c       $unwind$__acrt_free_locale 000000018003ee6c     libucrt:locale_refcounting.obj
 0002:0000ce6c       $unwind$?common_fseek_nolock@@YAHV__crt_stdio_stream@@_JH@Z 000000018003ee6c     libucrt:fseek.obj
 0002:0000ce6c       $unwind$_recalloc_base     000000018003ee6c     libucrt:recalloc.obj
 0002:0000ce6c       $unwind$??$common_ftell_nolock@_J@@YA_JV__crt_stdio_stream@@@Z 000000018003ee6c     libucrt:ftell.obj
 0002:0000ce6c       $unwind$__vcrt_InitializeCriticalSectionEx 000000018003ee6c     libvcruntime:winapi_downlevel.obj
 0002:0000ce6c       $unwind$?convert_to_stat_mode@@YAGHQEB_W@Z 000000018003ee6c     libucrt:stat.obj
 0002:0000ce6c       $unwind$??$ensure_buffer_is_big_enough@D@formatting_buffer@__crt_stdio_output@@QEAA_N_K@Z 000000018003ee6c     libucrt:output.obj
 0002:0000ce6c       $unwind$_wassert           000000018003ee6c     libucrt:assert.obj
 0002:0000ce6c       $unwind$__acrt_show_wide_message_box 000000018003ee6c     libucrt:crtmbox.obj
 0002:0000ce6c       $unwind$?clearMimeData@@YAXPEAX@Z 000000018003ee6c     Image.obj
 0002:0000ce6c       $unwind$?toBuffer@@YA?AW4_cairo_status@@PEAXPEBEI@Z 000000018003ee6c     Canvas.obj
 0002:0000ce6c       $unwind$??$ensure_buffer_is_big_enough@_W@formatting_buffer@__crt_stdio_output@@QEAA_N_K@Z 000000018003ee6c     libucrt:output.obj
 0002:0000ce6c       $unwind$__acrt_lowio_create_handle_array 000000018003ee6c     libucrt:osfinfo.obj
 0002:0000ce6c       $unwind$?setSBCS@@YAXPEAU__crt_multibyte_data@@@Z 000000018003ee6c     libucrt:mbctype.obj
 0002:0000ce6c       $unwind$_initterm          000000018003ee6c     libucrt:initterm.obj
 0002:0000ce6c       $unwind$?find_or_allocate_unused_stream_nolock@@YA?AV__crt_stdio_stream@@XZ 000000018003ee6c     libucrt:stream.obj
 0002:0000ce6c       $unwind$_seh_filter_exe    000000018003ee6c     libucrt:exception_filter.obj
 0002:0000ce80       $unwind$?ToBufferAsyncAfter@Canvas@@SAXPEAUuv_work_s@@@Z 000000018003ee80     Canvas.obj
 0002:0000ce98       $stateUnwindMap$?ToBufferAsyncAfter@Canvas@@SAXPEAUuv_work_s@@@Z 000000018003ee98     Canvas.obj
 0002:0000ceb0       $ip2state$?ToBufferAsyncAfter@Canvas@@SAXPEAUuv_work_s@@@Z 000000018003eeb0     Canvas.obj
 0002:0000ced8       $unwind$?ToBuffer@Canvas@@SAXAEBV?$FunctionCallbackInfo@VValue@v8@@@Nan@@@Z 000000018003eed8     Canvas.obj
 0002:0000cef8       $stateUnwindMap$?ToBuffer@Canvas@@SAXAEBV?$FunctionCallbackInfo@VValue@v8@@@Nan@@@Z 000000018003eef8     Canvas.obj
 0002:0000cf08       $ip2state$?ToBuffer@Canvas@@SAXAEBV?$FunctionCallbackInfo@VValue@v8@@@Nan@@@Z 000000018003ef08     Canvas.obj
 0002:0000cf40       $unwind$?streamPNG@@YA?AW4_cairo_status@@PEAXPEBEI@Z 000000018003ef40     Canvas.obj
 0002:0000cf64       $stateUnwindMap$?streamPNG@@YA?AW4_cairo_status@@PEAXPEBEI@Z 000000018003ef64     Canvas.obj
 0002:0000cf70       $ip2state$?streamPNG@@YA?AW4_cairo_status@@PEAXPEBEI@Z 000000018003ef70     Canvas.obj
 0002:0000cf88       $unwind$?StreamPNGSync@Canvas@@SAXAEBV?$FunctionCallbackInfo@VValue@v8@@@Nan@@@Z 000000018003ef88     Canvas.obj
 0002:0000cfb0       $stateUnwindMap$?StreamPNGSync@Canvas@@SAXAEBV?$FunctionCallbackInfo@VValue@v8@@@Nan@@@Z 000000018003efb0     Canvas.obj
 0002:0000cfc0       $ip2state$?StreamPNGSync@Canvas@@SAXAEBV?$FunctionCallbackInfo@VValue@v8@@@Nan@@@Z 000000018003efc0     Canvas.obj
 0002:0000cfe8       $unwind$?StreamPDFSync@Canvas@@SAXAEBV?$FunctionCallbackInfo@VValue@v8@@@Nan@@@Z 000000018003efe8     Canvas.obj
 0002:0000d018       $stateUnwindMap$?StreamPDFSync@Canvas@@SAXAEBV?$FunctionCallbackInfo@VValue@v8@@@Nan@@@Z 000000018003f018     Canvas.obj
 0002:0000d050       $ip2state$?StreamPDFSync@Canvas@@SAXAEBV?$FunctionCallbackInfo@VValue@v8@@@Nan@@@Z 000000018003f050     Canvas.obj
 0002:0000d0a8       $unwind$?StreamJPEGSync@Canvas@@SAXAEBV?$FunctionCallbackInfo@VValue@v8@@@Nan@@@Z 000000018003f0a8     Canvas.obj
 0002:0000d0c8       $stateUnwindMap$?StreamJPEGSync@Canvas@@SAXAEBV?$FunctionCallbackInfo@VValue@v8@@@Nan@@@Z 000000018003f0c8     Canvas.obj
 0002:0000d0d0       $ip2state$?StreamJPEGSync@Canvas@@SAXAEBV?$FunctionCallbackInfo@VValue@v8@@@Nan@@@Z 000000018003f0d0     Canvas.obj
 0002:0000d0e8       $unwind$??0Canvas@@QEAA@HHW4canvas_type_t@@@Z 000000018003f0e8     Canvas.obj
 0002:0000d104       $stateUnwindMap$??0Canvas@@QEAA@HHW4canvas_type_t@@@Z 000000018003f104     Canvas.obj
 0002:0000d110       $ip2state$??0Canvas@@QEAA@HHW4canvas_type_t@@@Z 000000018003f110     Canvas.obj
 0002:0000d120       $unwind$??_GCanvas@@EEAAPEAXI@Z 000000018003f120     Canvas.obj
 0002:0000d140       $ip2state$??_GCanvas@@EEAAPEAXI@Z 000000018003f140     Canvas.obj
 0002:0000d150       $unwind$?resurface@Canvas@@QEAAXV?$Local@VObject@v8@@@v8@@@Z 000000018003f150     Canvas.obj
 0002:0000d168       $ip2state$?resurface@Canvas@@QEAAXV?$Local@VObject@v8@@@v8@@@Z 000000018003f168     Canvas.obj
 0002:0000d180       $unwind$?Initialize@Gradient@@SAXV?$Local@VObject@v8@@@v8@@@Z 000000018003f180     CanvasGradient.obj
 0002:0000d198       $stateUnwindMap$?Initialize@Gradient@@SAXV?$Local@VObject@v8@@@v8@@@Z 000000018003f198     CanvasGradient.obj
 0002:0000d1b0       $ip2state$?Initialize@Gradient@@SAXV?$Local@VObject@v8@@@v8@@@Z 000000018003f1b0     CanvasGradient.obj
 0002:0000d1e0       $unwind$?New@Gradient@@SAXAEBV?$FunctionCallbackInfo@VValue@v8@@@Nan@@@Z 000000018003f1e0     CanvasGradient.obj
 0002:0000d218       $stateUnwindMap$?New@Gradient@@SAXAEBV?$FunctionCallbackInfo@VValue@v8@@@Nan@@@Z 000000018003f218     CanvasGradient.obj
 0002:0000d228       $ip2state$?New@Gradient@@SAXAEBV?$FunctionCallbackInfo@VValue@v8@@@Nan@@@Z 000000018003f228     CanvasGradient.obj
 0002:0000d250       $unwind$?AddColorStop@Gradient@@SAXAEBV?$FunctionCallbackInfo@VValue@v8@@@Nan@@@Z 000000018003f250     CanvasGradient.obj
 0002:0000d278       $stateUnwindMap$?AddColorStop@Gradient@@SAXAEBV?$FunctionCallbackInfo@VValue@v8@@@Nan@@@Z 000000018003f278     CanvasGradient.obj
 0002:0000d280       $ip2state$?AddColorStop@Gradient@@SAXAEBV?$FunctionCallbackInfo@VValue@v8@@@Nan@@@Z 000000018003f280     CanvasGradient.obj
 0002:0000d2a8       $unwind$?ThrowError@Nan@@YAXPEBD@Z 000000018003f2a8     CanvasPattern.obj
 0002:0000d2b8       $ip2state$?ThrowError@Nan@@YAXPEBD@Z 000000018003f2b8     CanvasPattern.obj
 0002:0000d2d0       $unwind$?Initialize@Pattern@@SAXV?$Local@VObject@v8@@@v8@@@Z 000000018003f2d0     CanvasPattern.obj
 0002:0000d2e8       $stateUnwindMap$?Initialize@Pattern@@SAXV?$Local@VObject@v8@@@v8@@@Z 000000018003f2e8     CanvasPattern.obj
 0002:0000d2f8       $ip2state$?Initialize@Pattern@@SAXV?$Local@VObject@v8@@@v8@@@Z 000000018003f2f8     CanvasPattern.obj
 0002:0000d318       $unwind$?New@Pattern@@SAXAEBV?$FunctionCallbackInfo@VValue@v8@@@Nan@@@Z 000000018003f318     CanvasPattern.obj
 0002:0000d320       $chain$1$?New@Pattern@@SAXAEBV?$FunctionCallbackInfo@VValue@v8@@@Nan@@@Z 000000018003f320     CanvasPattern.obj
 0002:0000d338       $chain$5$?New@Pattern@@SAXAEBV?$FunctionCallbackInfo@VValue@v8@@@Nan@@@Z 000000018003f338     CanvasPattern.obj
 0002:0000d338       $chain$7$?New@Pattern@@SAXAEBV?$FunctionCallbackInfo@VValue@v8@@@Nan@@@Z 000000018003f338     CanvasPattern.obj
 0002:0000d338       $chain$3$?New@Pattern@@SAXAEBV?$FunctionCallbackInfo@VValue@v8@@@Nan@@@Z 000000018003f338     CanvasPattern.obj
 0002:0000d350       $unwind$?Initialize@Context2d@@SAXV?$Local@VObject@v8@@@v8@@@Z 000000018003f350     CanvasRenderingContext2d.obj
 0002:0000d36c       $stateUnwindMap$?Initialize@Context2d@@SAXV?$Local@VObject@v8@@@v8@@@Z 000000018003f36c     CanvasRenderingContext2d.obj
 0002:0000d388       $ip2state$?Initialize@Context2d@@SAXV?$Local@VObject@v8@@@v8@@@Z 000000018003f388     CanvasRenderingContext2d.obj
 0002:0000d3b8       $unwind$?setFillRule@Context2d@@QEAAXV?$Local@VValue@v8@@@v8@@@Z 000000018003f3b8     CanvasRenderingContext2d.obj
 0002:0000d3c4       $chain$0$?setFillRule@Context2d@@QEAAXV?$Local@VValue@v8@@@v8@@@Z 000000018003f3c4     CanvasRenderingContext2d.obj
 0002:0000d3d8       $chain$1$?setFillRule@Context2d@@QEAAXV?$Local@VValue@v8@@@v8@@@Z 000000018003f3d8     CanvasRenderingContext2d.obj
 0002:0000d3e8       $unwind$?shadow@Context2d@@QEAAXP6AXPEAU_cairo@@@Z@Z 000000018003f3e8     CanvasRenderingContext2d.obj
 0002:0000d400       $chain$3$?shadow@Context2d@@QEAAXP6AXPEAU_cairo@@@Z@Z 000000018003f400     CanvasRenderingContext2d.obj
 0002:0000d420       $chain$4$?shadow@Context2d@@QEAAXP6AXPEAU_cairo@@@Z@Z 000000018003f420     CanvasRenderingContext2d.obj
 0002:0000d430       $unwind$?blur@Context2d@@QEAAXPEAU_cairo_surface@@H@Z 000000018003f430     CanvasRenderingContext2d.obj
 0002:0000d448       $unwind$?New@Context2d@@SAXAEBV?$FunctionCallbackInfo@VValue@v8@@@Nan@@@Z 000000018003f448     CanvasRenderingContext2d.obj
 0002:0000d450       $chain$1$?New@Context2d@@SAXAEBV?$FunctionCallbackInfo@VValue@v8@@@Nan@@@Z 000000018003f450     CanvasRenderingContext2d.obj
 0002:0000d468       $chain$3$?New@Context2d@@SAXAEBV?$FunctionCallbackInfo@VValue@v8@@@Nan@@@Z 000000018003f468     CanvasRenderingContext2d.obj
 0002:0000d468       $chain$7$?New@Context2d@@SAXAEBV?$FunctionCallbackInfo@VValue@v8@@@Nan@@@Z 000000018003f468     CanvasRenderingContext2d.obj
 0002:0000d480       $chain$4$?New@Context2d@@SAXAEBV?$FunctionCallbackInfo@VValue@v8@@@Nan@@@Z 000000018003f480     CanvasRenderingContext2d.obj
 0002:0000d494       $chain$5$?New@Context2d@@SAXAEBV?$FunctionCallbackInfo@VValue@v8@@@Nan@@@Z 000000018003f494     CanvasRenderingContext2d.obj
 0002:0000d4a4       $unwind$?ClosePath@Context2d@@SAXAEBV?$FunctionCallbackInfo@VValue@v8@@@Nan@@@Z 000000018003f4a4     CanvasRenderingContext2d.obj
 0002:0000d4a4       $unwind$__dcrt_terminate_console_output 000000018003f4a4     libucrt:initcon.obj
 0002:0000d4a4       $unwind$?BeginPath@Context2d@@SAXAEBV?$FunctionCallbackInfo@VValue@v8@@@Nan@@@Z 000000018003f4a4     CanvasRenderingContext2d.obj
 0002:0000d4a4       $unwind$_errno             000000018003f4a4     libucrt:errno.obj
 0002:0000d4a4       $unwind$_fileno            000000018003f4a4     libucrt:fileno.obj
 0002:0000d4a4       $unwind$__scrt_dllmain_before_initialize_c 000000018003f4a4     LIBCMT:utility.obj
 0002:0000d4a4       $unwind$__doserrno         000000018003f4a4     libucrt:errno.obj
 0002:0000d4a4       $unwind$_statfp            000000018003f4a4     libucrt:fpctrl.obj
 0002:0000d4a4       $unwind$__std_terminate    000000018003f4a4     libvcruntime:ehhelpers.obj
 0002:0000d4a4       $unwind$__scrt_initialize_default_local_stdio_options 000000018003f4a4     LIBCMT:default_local_stdio_options.obj
 0002:0000d4a4       $unwind$?state_case_size@?$output_processor@DV?$string_output_adapter@D@__crt_stdio_output@@V?$standard_base@DV?$string_output_adapter@D@__crt_stdio_output@@@2@@__crt_stdio_output@@AEAA_NXZ 000000018003f4a4     libucrt:output.obj
 0002:0000d4a4       $unwind$_GetThrowImageBase 000000018003f4a4     libvcruntime:risctrnsctrl.obj
 0002:0000d4a4       $unwind$__GSHandlerCheck   000000018003f4a4     LIBCMT:_gshandler_.obj
 0002:0000d4a4       $unwind$__acrt_DownlevelLocaleNameToLCID 000000018003f4a4     libucrt:lcidtoname_downlevel.obj
 0002:0000d4a4       $unwind$__FrameUnwindFilter 000000018003f4a4     libvcruntime:ehhelpers.obj
 0002:0000d4a4       $unwind$?state_case_normal_tchar@?$output_processor@DV?$string_output_adapter@D@__crt_stdio_output@@V?$standard_base@DV?$string_output_adapter@D@__crt_stdio_output@@@2@@__crt_stdio_output@@AEAA_ND@Z 000000018003f4a4     libucrt:output.obj
 0002:0000d4a4       $unwind$_GetImageBase      000000018003f4a4     libvcruntime:risctrnsctrl.obj
 0002:0000d4a4       $unwind$?state_case_size@?$output_processor@_WV?$string_output_adapter@_W@__crt_stdio_output@@V?$standard_base@_WV?$string_output_adapter@_W@__crt_stdio_output@@@2@@__crt_stdio_output@@AEAA_NXZ 000000018003f4a4     libucrt:output.obj
 0002:0000d4a4       $unwind$?dllmain_crt_dispatch@@YAHQEAUHINSTANCE__@@KQEAX@Z 000000018003f4a4     LIBCMT:dll_dllmain.obj
 0002:0000d4a4       $unwind$__scrt_dllmain_after_initialize_c 000000018003f4a4     LIBCMT:utility.obj
 0002:0000d4a4       $unwind$_stricmp           000000018003f4a4     libucrt:stricmp.obj
 0002:0000d4a4       $unwind$__scrt_dllmain_crt_thread_detach 000000018003f4a4     LIBCMT:utility.obj
 0002:0000d4a4       $unwind$__acrt_AreFileApisANSI 000000018003f4a4     libucrt:winapi_thunks.obj
 0002:0000d4a4       $unwind$_strnicmp          000000018003f4a4     libucrt:strnicmp.obj
 0002:0000d4a4       $unwind$?initialize_multibyte@@YAHXZ 000000018003f4a4     libucrt:multibyte_initializer.obj
 0002:0000d4a4       $unwind$__scrt_acquire_startup_lock 000000018003f4a4     LIBCMT:utility.obj
 0002:0000d4a4       $unwind$__acrt_update_thread_multibyte_data 000000018003f4a4     libucrt:mbctype.obj
 0002:0000d4a4       $unwind$__acrt_initialize_heap 000000018003f4a4     libucrt:heap_handle.obj
 0002:0000d4a4       $unwind$??$uninitialize_environment_internal@_W@@YAXAEAPEAPEA_W@Z 000000018003f4a4     libucrt:environment_initialization.obj
 0002:0000d4a4       $unwind$initialize_c       000000018003f4a4     libucrt:initialization.obj
 0002:0000d4a4       $unwind$__acrt_initialize_command_line 000000018003f4a4     libucrt:argv_data.obj
 0002:0000d4a4       $unwind$_isatty            000000018003f4a4     libucrt:isatty.obj
 0002:0000d4a4       $unwind$uninitialize_allocated_io_buffers 000000018003f4a4     libucrt:initialization.obj
 0002:0000d4a4       $unwind$??$uninitialize_environment_internal@D@@YAXAEAPEAPEAD@Z 000000018003f4a4     libucrt:environment_initialization.obj
 0002:0000d4a4       $unwind$?_Xlength@?$vector@NV?$allocator@N@std@@@std@@CAXXZ 000000018003f4a4     CanvasRenderingContext2d.obj
 0002:0000d4a4       $unwind$_msize_base        000000018003f4a4     libucrt:msize.obj
 0002:0000d4a4       $unwind$atexit             000000018003f4a4     LIBCMT:utility.obj
 0002:0000d4a4       $unwind$__acrt_uninitialize 000000018003f4a4     libucrt:initialization.obj
 0002:0000d4a4       $unwind$__dcrt_uninitialize_environments_nolock 000000018003f4a4     libucrt:environment_initialization.obj
 0002:0000d4a4       $unwind$__report_rangecheckfailure 000000018003f4a4     LIBCMT:gs_report.obj
 0002:0000d4a4       $unwind$__scrt_dllmain_uninitialize_c 000000018003f4a4     LIBCMT:utility.obj
 0002:0000d4a4       $unwind$_set_error_mode    000000018003f4a4     libucrt:set_error_mode.obj
 0002:0000d4a4       $unwind$?state_case_size@?$output_processor@_WV?$stream_output_adapter@_W@__crt_stdio_output@@V?$standard_base@_WV?$stream_output_adapter@_W@__crt_stdio_output@@@2@@__crt_stdio_output@@AEAA_NXZ 000000018003f4a4     libucrt:output.obj
 0002:0000d4a4       $unwind$?ResetTransform@Context2d@@SAXAEBV?$FunctionCallbackInfo@VValue@v8@@@Nan@@@Z 000000018003f4a4     CanvasRenderingContext2d.obj
 0002:0000d4a4       $unwind$?AddPage@Context2d@@SAXAEBV?$FunctionCallbackInfo@VValue@v8@@@Nan@@@Z 000000018003f4a4     CanvasRenderingContext2d.obj
 0002:0000d4a4       $unwind$__dcrt_get_or_create_narrow_environment_nolock 000000018003f4a4     libucrt:environment_initialization.obj
 0002:0000d4a4       $unwind$__vcrt_uninitialize_ptd 000000018003f4a4     libvcruntime:per_thread_data.obj
 0002:0000d4a4       $unwind$_set_errno_from_matherr 000000018003f4a4     libucrt:fpexcept.obj
 0002:0000d4a4       $unwind$_get_daylight      000000018003f4a4     libucrt:timeset.obj
 0002:0000d4a4       $unwind$_wcsicmp           000000018003f4a4     libucrt:wcsicmp.obj
 0002:0000d4a4       $unwind$__acrt_uninitialize_critical 000000018003f4a4     libucrt:initialization.obj
 0002:0000d4a4       $unwind$__vcrt_initialize  000000018003f4a4     libvcruntime:initialization.obj
 0002:0000d4a4       $unwind$__scrt_dllmain_uninitialize_critical 000000018003f4a4     LIBCMT:utility.obj
 0002:0000d4a4       $unwind$_get_fmode         000000018003f4a4     libucrt:setmode.obj
 0002:0000d4a4       $unwind$?Stroke@Context2d@@SAXAEBV?$FunctionCallbackInfo@VValue@v8@@@Nan@@@Z 000000018003f4a4     CanvasRenderingContext2d.obj
 0002:0000d4a4       $unwind$__pctype_func      000000018003f4a4     libucrt:ctype.obj
 0002:0000d4a4       $unwind$__vcrt_uninitialize 000000018003f4a4     libvcruntime:initialization.obj
 0002:0000d4a4       $unwind$tolower            000000018003f4a4     libucrt:tolower_toupper.obj
 0002:0000d4a4       $unwind$__vcrt_initialize_ptd 000000018003f4a4     libvcruntime:per_thread_data.obj
 0002:0000d4a4       $unwind$_get_timezone      000000018003f4a4     libucrt:timeset.obj
 0002:0000d4a4       $unwind$_get_dstbias       000000018003f4a4     libucrt:timeset.obj
 0002:0000d4a4       $unwind$__vcrt_getptd      000000018003f4a4     libvcruntime:per_thread_data.obj
 0002:0000d4a4       $unwind$__acrt_thread_attach 000000018003f4a4     libucrt:initialization.obj
 0002:0000d4a4       $unwind$__acrt_release_locale_ref 000000018003f4a4     libucrt:locale_refcounting.obj
 0002:0000d4a4       $unwind$___lc_codepage_func 000000018003f4a4     libucrt:initctype.obj
 0002:0000d4a4       $unwind$_get_osfhandle     000000018003f4a4     libucrt:osfinfo.obj
 0002:0000d4a4       $unwind$__vcrt_freefls     000000018003f4a4     libvcruntime:per_thread_data.obj
 0002:0000d4a4       $unwind$__acrt_initialize_ptd 000000018003f4a4     libucrt:per_thread_data.obj
 0002:0000d4a4       $unwind$abort              000000018003f4a4     libucrt:abort.obj
 0002:0000d4a4       $unwind$__acrt_uninitialize_ptd 000000018003f4a4     libucrt:per_thread_data.obj
 0002:0000d4a4       $unwind$_invoke_watson     000000018003f4a4     libucrt:invalid_parameter.obj
 0002:0000d4a4       $unwind$__acrt_thread_detach 000000018003f4a4     libucrt:initialization.obj
 0002:0000d4a4       $unwind$uninitialize_environment 000000018003f4a4     libucrt:initialization.obj
 0002:0000d4a4       $unwind$__vcrt_thread_detach 000000018003f4a4     libvcruntime:initialization.obj
 0002:0000d4a4       $unwind$__vcrt_thread_attach 000000018003f4a4     libvcruntime:initialization.obj
 0002:0000d4a4       $unwind$__scrt_dllmain_crt_thread_attach 000000018003f4a4     LIBCMT:utility.obj
 0002:0000d4a4       $unwind$__vcrt_uninitialize_critical 000000018003f4a4     libvcruntime:initialization.obj
 0002:0000d4a4       $unwind$__acrt_initialize_multibyte 000000018003f4a4     libucrt:mbctype.obj
 0002:0000d4a4       $unwind$?__GetCurrentState@@YAHPEA_KPEAU_xDISPATCHER_CONTEXT@@PEBU_s_FuncInfo@@@Z 000000018003f4a4     libvcruntime:riscehstate.obj
 0002:0000d4ac       $unwind$?PutImageData@Context2d@@SAXAEBV?$FunctionCallbackInfo@VValue@v8@@@Nan@@@Z 000000018003f4ac     CanvasRenderingContext2d.obj
 0002:0000d4b8       $chain$0$?PutImageData@Context2d@@SAXAEBV?$FunctionCallbackInfo@VValue@v8@@@Nan@@@Z 000000018003f4b8     CanvasRenderingContext2d.obj
 0002:0000d4cc       $chain$8$?PutImageData@Context2d@@SAXAEBV?$FunctionCallbackInfo@VValue@v8@@@Nan@@@Z 000000018003f4cc     CanvasRenderingContext2d.obj
 0002:0000d4f8       $unwind$?GetImageData@Context2d@@SAXAEBV?$FunctionCallbackInfo@VValue@v8@@@Nan@@@Z 000000018003f4f8     CanvasRenderingContext2d.obj
 0002:0000d524       $stateUnwindMap$?GetImageData@Context2d@@SAXAEBV?$FunctionCallbackInfo@VValue@v8@@@Nan@@@Z 000000018003f524     CanvasRenderingContext2d.obj
 0002:0000d550       $ip2state$?GetImageData@Context2d@@SAXAEBV?$FunctionCallbackInfo@VValue@v8@@@Nan@@@Z 000000018003f550     CanvasRenderingContext2d.obj
 0002:0000d598       $unwind$?DrawImage@Context2d@@SAXAEBV?$FunctionCallbackInfo@VValue@v8@@@Nan@@@Z 000000018003f598     CanvasRenderingContext2d.obj
 0002:0000d5a4       $chain$3$?DrawImage@Context2d@@SAXAEBV?$FunctionCallbackInfo@VValue@v8@@@Nan@@@Z 000000018003f5a4     CanvasRenderingContext2d.obj
 0002:0000d5c4       $chain$11$?DrawImage@Context2d@@SAXAEBV?$FunctionCallbackInfo@VValue@v8@@@Nan@@@Z 000000018003f5c4     CanvasRenderingContext2d.obj
 0002:0000d5f4       $chain$12$?DrawImage@Context2d@@SAXAEBV?$FunctionCallbackInfo@VValue@v8@@@Nan@@@Z 000000018003f5f4     CanvasRenderingContext2d.obj
 0002:0000d604       $chain$14$?DrawImage@Context2d@@SAXAEBV?$FunctionCallbackInfo@VValue@v8@@@Nan@@@Z 000000018003f604     CanvasRenderingContext2d.obj
 0002:0000d644       $chain$17$?DrawImage@Context2d@@SAXAEBV?$FunctionCallbackInfo@VValue@v8@@@Nan@@@Z 000000018003f644     CanvasRenderingContext2d.obj
 0002:0000d660       $chain$19$?DrawImage@Context2d@@SAXAEBV?$FunctionCallbackInfo@VValue@v8@@@Nan@@@Z 000000018003f660     CanvasRenderingContext2d.obj
 0002:0000d680       $unwind$?SetLineWidth@Context2d@@SAXV?$Local@VString@v8@@@v8@@V?$Local@VValue@v8@@@3@AEBV?$PropertyCallbackInfo@X@Nan@@@Z 000000018003f680     CanvasRenderingContext2d.obj
 0002:0000d680       $unwind$?SetGlobalAlpha@Context2d@@SAXV?$Local@VString@v8@@@v8@@V?$Local@VValue@v8@@@3@AEBV?$PropertyCallbackInfo@X@Nan@@@Z 000000018003f680     CanvasRenderingContext2d.obj
 0002:0000d680       $unwind$?SetLineDashOffset@Context2d@@SAXV?$Local@VString@v8@@@v8@@V?$Local@VValue@v8@@@3@AEBV?$PropertyCallbackInfo@X@Nan@@@Z 000000018003f680     CanvasRenderingContext2d.obj
 0002:0000d680       $unwind$?SetMiterLimit@Context2d@@SAXV?$Local@VString@v8@@@v8@@V?$Local@VValue@v8@@@3@AEBV?$PropertyCallbackInfo@X@Nan@@@Z 000000018003f680     CanvasRenderingContext2d.obj
 0002:0000d68c       $unwind$?SetGlobalCompositeOperation@Context2d@@SAXV?$Local@VString@v8@@@v8@@V?$Local@VValue@v8@@@3@AEBV?$PropertyCallbackInfo@X@Nan@@@Z 000000018003f68c     CanvasRenderingContext2d.obj
 0002:0000d69c       $unwind$?SetAntiAlias@Context2d@@SAXV?$Local@VString@v8@@@v8@@V?$Local@VValue@v8@@@3@AEBV?$PropertyCallbackInfo@X@Nan@@@Z 000000018003f69c     CanvasRenderingContext2d.obj
 0002:0000d6ac       $stateUnwindMap$?SetStrokeColor@Context2d@@SAXAEBV?$FunctionCallbackInfo@VValue@v8@@@Nan@@@Z 000000018003f6ac     CanvasRenderingContext2d.obj
 0002:0000d6ac       $stateUnwindMap$?FillText@Context2d@@SAXAEBV?$FunctionCallbackInfo@VValue@v8@@@Nan@@@Z 000000018003f6ac     CanvasRenderingContext2d.obj
 0002:0000d6ac       $stateUnwindMap$?SetFillColor@Context2d@@SAXAEBV?$FunctionCallbackInfo@VValue@v8@@@Nan@@@Z 000000018003f6ac     CanvasRenderingContext2d.obj
 0002:0000d6ac       $stateUnwindMap$?SetShadowColor@Context2d@@SAXV?$Local@VString@v8@@@v8@@V?$Local@VValue@v8@@@3@AEBV?$PropertyCallbackInfo@X@Nan@@@Z 000000018003f6ac     CanvasRenderingContext2d.obj
 0002:0000d6ac       $stateUnwindMap$?SetTextDrawingMode@Context2d@@SAXV?$Local@VString@v8@@@v8@@V?$Local@VValue@v8@@@3@AEBV?$PropertyCallbackInfo@X@Nan@@@Z 000000018003f6ac     CanvasRenderingContext2d.obj
 0002:0000d6ac       $stateUnwindMap$?SetAntiAlias@Context2d@@SAXV?$Local@VString@v8@@@v8@@V?$Local@VValue@v8@@@3@AEBV?$PropertyCallbackInfo@X@Nan@@@Z 000000018003f6ac     CanvasRenderingContext2d.obj
 0002:0000d6ac       $stateUnwindMap$?StrokeText@Context2d@@SAXAEBV?$FunctionCallbackInfo@VValue@v8@@@Nan@@@Z 000000018003f6ac     CanvasRenderingContext2d.obj
 0002:0000d6ac       $stateUnwindMap$?New@FontFace@@SAXAEBV?$FunctionCallbackInfo@VValue@v8@@@Nan@@@Z 000000018003f6ac     FontFace.obj
 0002:0000d6ac       $stateUnwindMap$?SetFilter@Context2d@@SAXV?$Local@VString@v8@@@v8@@V?$Local@VValue@v8@@@3@AEBV?$PropertyCallbackInfo@X@Nan@@@Z 000000018003f6ac     CanvasRenderingContext2d.obj
 0002:0000d6b8       $ip2state$?SetAntiAlias@Context2d@@SAXV?$Local@VString@v8@@@v8@@V?$Local@VValue@v8@@@3@AEBV?$PropertyCallbackInfo@X@Nan@@@Z 000000018003f6b8     CanvasRenderingContext2d.obj
 0002:0000d6d0       $unwind$?SetTextDrawingMode@Context2d@@SAXV?$Local@VString@v8@@@v8@@V?$Local@VValue@v8@@@3@AEBV?$PropertyCallbackInfo@X@Nan@@@Z 000000018003f6d0     CanvasRenderingContext2d.obj
 0002:0000d6e0       $ip2state$?SetTextDrawingMode@Context2d@@SAXV?$Local@VString@v8@@@v8@@V?$Local@VValue@v8@@@3@AEBV?$PropertyCallbackInfo@X@Nan@@@Z 000000018003f6e0     CanvasRenderingContext2d.obj
 0002:0000d6f8       $unwind$?SetFilter@Context2d@@SAXV?$Local@VString@v8@@@v8@@V?$Local@VValue@v8@@@3@AEBV?$PropertyCallbackInfo@X@Nan@@@Z 000000018003f6f8     CanvasRenderingContext2d.obj
 0002:0000d710       $ip2state$?SetFilter@Context2d@@SAXV?$Local@VString@v8@@@v8@@V?$Local@VValue@v8@@@3@AEBV?$PropertyCallbackInfo@X@Nan@@@Z 000000018003f710     CanvasRenderingContext2d.obj
 0002:0000d728       $unwind$?getSystemCP@@YAHH@Z 000000018003f728     libucrt:mbctype.obj
 0002:0000d728       $unwind$?IsPointInPath@Context2d@@SAXAEBV?$FunctionCallbackInfo@VValue@v8@@@Nan@@@Z 000000018003f728     CanvasRenderingContext2d.obj
 0002:0000d728       $unwind$_isleadbyte_l      000000018003f728     libucrt:_wctype.obj
 0002:0000d728       $unwind$__dcrt_lowio_ensure_console_output_initialized 000000018003f728     libucrt:initcon.obj
 0002:0000d728       $unwind$isdigit            000000018003f728     libucrt:_ctype.obj
 0002:0000d730       $chain$3$?IsPointInPath@Context2d@@SAXAEBV?$FunctionCallbackInfo@VValue@v8@@@Nan@@@Z 000000018003f730     CanvasRenderingContext2d.obj
 0002:0000d750       $chain$4$?IsPointInPath@Context2d@@SAXAEBV?$FunctionCallbackInfo@VValue@v8@@@Nan@@@Z 000000018003f750     CanvasRenderingContext2d.obj
 0002:0000d760       $unwind$??R<lambda_ca71763b3c0644891230e4f79ea54fa6>@@QEBAHXZ 000000018003f760     libucrt:setvbuf.obj
 0002:0000d760       $unwind$?SetStrokePattern@Context2d@@SAXAEBV?$FunctionCallbackInfo@VValue@v8@@@Nan@@@Z 000000018003f760     CanvasRenderingContext2d.obj
 0002:0000d760       $unwind$?type_case_c_tchar@?$output_processor@_WV?$stream_output_adapter@_W@__crt_stdio_output@@V?$standard_base@_WV?$stream_output_adapter@_W@__crt_stdio_output@@@2@@__crt_stdio_output@@AEAA_N_W@Z 000000018003f760     libucrt:output.obj
 0002:0000d760       $unwind$?type_case_c_tchar@?$output_processor@_WV?$string_output_adapter@_W@__crt_stdio_output@@V?$standard_base@_WV?$string_output_adapter@_W@__crt_stdio_output@@@2@@__crt_stdio_output@@AEAA_N_W@Z 000000018003f760     libucrt:output.obj
 0002:0000d760       $unwind$?SetFillPattern@Context2d@@SAXAEBV?$FunctionCallbackInfo@VValue@v8@@@Nan@@@Z 000000018003f760     CanvasRenderingContext2d.obj
 0002:0000d770       $unwind$?SetShadowColor@Context2d@@SAXV?$Local@VString@v8@@@v8@@V?$Local@VValue@v8@@@3@AEBV?$PropertyCallbackInfo@X@Nan@@@Z 000000018003f770     CanvasRenderingContext2d.obj
 0002:0000d788       $ip2state$?SetShadowColor@Context2d@@SAXV?$Local@VString@v8@@@v8@@V?$Local@VValue@v8@@@3@AEBV?$PropertyCallbackInfo@X@Nan@@@Z 000000018003f788     CanvasRenderingContext2d.obj
 0002:0000d7a0       $unwind$?GetFillColor@Context2d@@SAXV?$Local@VString@v8@@@v8@@AEBV?$PropertyCallbackInfo@VValue@v8@@@Nan@@@Z 000000018003f7a0     CanvasRenderingContext2d.obj
 0002:0000d7a0       $unwind$?GetShadowColor@Context2d@@SAXV?$Local@VString@v8@@@v8@@AEBV?$PropertyCallbackInfo@VValue@v8@@@Nan@@@Z 000000018003f7a0     CanvasRenderingContext2d.obj
 0002:0000d7a0       $unwind$?GetStrokeColor@Context2d@@SAXV?$Local@VString@v8@@@v8@@AEBV?$PropertyCallbackInfo@VValue@v8@@@Nan@@@Z 000000018003f7a0     CanvasRenderingContext2d.obj
 0002:0000d7b4       $unwind$?SetFillColor@Context2d@@SAXAEBV?$FunctionCallbackInfo@VValue@v8@@@Nan@@@Z 000000018003f7b4     CanvasRenderingContext2d.obj
 0002:0000d7c8       $ip2state$?SetFillColor@Context2d@@SAXAEBV?$FunctionCallbackInfo@VValue@v8@@@Nan@@@Z 000000018003f7c8     CanvasRenderingContext2d.obj
 0002:0000d7d8       $unwind$?SetStrokeColor@Context2d@@SAXAEBV?$FunctionCallbackInfo@VValue@v8@@@Nan@@@Z 000000018003f7d8     CanvasRenderingContext2d.obj
 0002:0000d7f0       $ip2state$?SetStrokeColor@Context2d@@SAXAEBV?$FunctionCallbackInfo@VValue@v8@@@Nan@@@Z 000000018003f7f0     CanvasRenderingContext2d.obj
 0002:0000d800       $unwind$?BezierCurveTo@Context2d@@SAXAEBV?$FunctionCallbackInfo@VValue@v8@@@Nan@@@Z 000000018003f800     CanvasRenderingContext2d.obj
 0002:0000d80c       $chain$9$?BezierCurveTo@Context2d@@SAXAEBV?$FunctionCallbackInfo@VValue@v8@@@Nan@@@Z 000000018003f80c     CanvasRenderingContext2d.obj
 0002:0000d844       $chain$10$?BezierCurveTo@Context2d@@SAXAEBV?$FunctionCallbackInfo@VValue@v8@@@Nan@@@Z 000000018003f844     CanvasRenderingContext2d.obj
 0002:0000d854       $unwind$?QuadraticCurveTo@Context2d@@SAXAEBV?$FunctionCallbackInfo@VValue@v8@@@Nan@@@Z 000000018003f854     CanvasRenderingContext2d.obj
 0002:0000d85c       $chain$4$?QuadraticCurveTo@Context2d@@SAXAEBV?$FunctionCallbackInfo@VValue@v8@@@Nan@@@Z 000000018003f85c     CanvasRenderingContext2d.obj
 0002:0000d880       $chain$5$?QuadraticCurveTo@Context2d@@SAXAEBV?$FunctionCallbackInfo@VValue@v8@@@Nan@@@Z 000000018003f880     CanvasRenderingContext2d.obj
 0002:0000d890       $unwind$?Transform@Context2d@@SAXAEBV?$FunctionCallbackInfo@VValue@v8@@@Nan@@@Z 000000018003f890     CanvasRenderingContext2d.obj
 0002:0000d8bc       $unwind$?Translate@Context2d@@SAXAEBV?$FunctionCallbackInfo@VValue@v8@@@Nan@@@Z 000000018003f8bc     CanvasRenderingContext2d.obj
 0002:0000d8bc       $unwind$?Scale@Context2d@@SAXAEBV?$FunctionCallbackInfo@VValue@v8@@@Nan@@@Z 000000018003f8bc     CanvasRenderingContext2d.obj
 0002:0000d8d0       $unwind$?FillText@Context2d@@SAXAEBV?$FunctionCallbackInfo@VValue@v8@@@Nan@@@Z 000000018003f8d0     CanvasRenderingContext2d.obj
 0002:0000d8e8       $ip2state$?FillText@Context2d@@SAXAEBV?$FunctionCallbackInfo@VValue@v8@@@Nan@@@Z 000000018003f8e8     CanvasRenderingContext2d.obj
 0002:0000d900       $unwind$?StrokeText@Context2d@@SAXAEBV?$FunctionCallbackInfo@VValue@v8@@@Nan@@@Z 000000018003f900     CanvasRenderingContext2d.obj
 0002:0000d918       $ip2state$?StrokeText@Context2d@@SAXAEBV?$FunctionCallbackInfo@VValue@v8@@@Nan@@@Z 000000018003f918     CanvasRenderingContext2d.obj
 0002:0000d930       $unwind$?setTextPath@Context2d@@QEAAXPEBDNN@Z 000000018003f930     CanvasRenderingContext2d.obj
 0002:0000d94c       $unwind$?MoveTo@Context2d@@SAXAEBV?$FunctionCallbackInfo@VValue@v8@@@Nan@@@Z 000000018003f94c     CanvasRenderingContext2d.obj
 0002:0000d94c       $unwind$?LineTo@Context2d@@SAXAEBV?$FunctionCallbackInfo@VValue@v8@@@Nan@@@Z 000000018003f94c     CanvasRenderingContext2d.obj
 0002:0000d95c       $unwind$?SetFontFace@Context2d@@SAXAEBV?$FunctionCallbackInfo@VValue@v8@@@Nan@@@Z 000000018003f95c     CanvasRenderingContext2d.obj
 0002:0000d964       $chain$0$?SetFontFace@Context2d@@SAXAEBV?$FunctionCallbackInfo@VValue@v8@@@Nan@@@Z 000000018003f964     CanvasRenderingContext2d.obj
 0002:0000d978       $chain$4$?SetFontFace@Context2d@@SAXAEBV?$FunctionCallbackInfo@VValue@v8@@@Nan@@@Z 000000018003f978     CanvasRenderingContext2d.obj
 0002:0000d994       $chain$5$?SetFontFace@Context2d@@SAXAEBV?$FunctionCallbackInfo@VValue@v8@@@Nan@@@Z 000000018003f994     CanvasRenderingContext2d.obj
 0002:0000d9a4       $unwind$?SetFont@Context2d@@SAXAEBV?$FunctionCallbackInfo@VValue@v8@@@Nan@@@Z 000000018003f9a4     CanvasRenderingContext2d.obj
 0002:0000d9bc       $stateUnwindMap$?SetFont@Context2d@@SAXAEBV?$FunctionCallbackInfo@VValue@v8@@@Nan@@@Z 000000018003f9bc     CanvasRenderingContext2d.obj
 0002:0000d9e0       $ip2state$?SetFont@Context2d@@SAXAEBV?$FunctionCallbackInfo@VValue@v8@@@Nan@@@Z 000000018003f9e0     CanvasRenderingContext2d.obj
 0002:0000da10       $unwind$?MeasureText@Context2d@@SAXAEBV?$FunctionCallbackInfo@VValue@v8@@@Nan@@@Z 000000018003fa10     CanvasRenderingContext2d.obj
 0002:0000da40       $stateUnwindMap$?MeasureText@Context2d@@SAXAEBV?$FunctionCallbackInfo@VValue@v8@@@Nan@@@Z 000000018003fa40     CanvasRenderingContext2d.obj
 0002:0000da48       $ip2state$?MeasureText@Context2d@@SAXAEBV?$FunctionCallbackInfo@VValue@v8@@@Nan@@@Z 000000018003fa48     CanvasRenderingContext2d.obj
 0002:0000da68       $chain$0$?SetTextBaseline@Context2d@@SAXAEBV?$FunctionCallbackInfo@VValue@v8@@@Nan@@@Z 000000018003fa68     CanvasRenderingContext2d.obj
 0002:0000da7c       $chain$1$?SetTextBaseline@Context2d@@SAXAEBV?$FunctionCallbackInfo@VValue@v8@@@Nan@@@Z 000000018003fa7c     CanvasRenderingContext2d.obj
 0002:0000da8c       $chain$0$?SetTextAlignment@Context2d@@SAXAEBV?$FunctionCallbackInfo@VValue@v8@@@Nan@@@Z 000000018003fa8c     CanvasRenderingContext2d.obj
 0002:0000daa0       $chain$1$?SetTextAlignment@Context2d@@SAXAEBV?$FunctionCallbackInfo@VValue@v8@@@Nan@@@Z 000000018003faa0     CanvasRenderingContext2d.obj
 0002:0000dab0       $unwind$?SetLineDash@Context2d@@SAXAEBV?$FunctionCallbackInfo@VValue@v8@@@Nan@@@Z 000000018003fab0     CanvasRenderingContext2d.obj
 0002:0000dad4       $stateUnwindMap$?SetLineDash@Context2d@@SAXAEBV?$FunctionCallbackInfo@VValue@v8@@@Nan@@@Z 000000018003fad4     CanvasRenderingContext2d.obj
 0002:0000dad4       $stateUnwindMap$?GetLineDash@Context2d@@SAXAEBV?$FunctionCallbackInfo@VValue@v8@@@Nan@@@Z 000000018003fad4     CanvasRenderingContext2d.obj
 0002:0000dae0       $ip2state$?SetLineDash@Context2d@@SAXAEBV?$FunctionCallbackInfo@VValue@v8@@@Nan@@@Z 000000018003fae0     CanvasRenderingContext2d.obj
 0002:0000daf8       $unwind$?GetLineDash@Context2d@@SAXAEBV?$FunctionCallbackInfo@VValue@v8@@@Nan@@@Z 000000018003faf8     CanvasRenderingContext2d.obj
 0002:0000db20       $ip2state$?GetLineDash@Context2d@@SAXAEBV?$FunctionCallbackInfo@VValue@v8@@@Nan@@@Z 000000018003fb20     CanvasRenderingContext2d.obj
 0002:0000db38       $chain$3$?SetLineDashOffset@Context2d@@SAXV?$Local@VString@v8@@@v8@@V?$Local@VValue@v8@@@3@AEBV?$PropertyCallbackInfo@X@Nan@@@Z 000000018003fb38     CanvasRenderingContext2d.obj
 0002:0000db58       $chain$4$?SetLineDashOffset@Context2d@@SAXV?$Local@VString@v8@@@v8@@V?$Local@VValue@v8@@@3@AEBV?$PropertyCallbackInfo@X@Nan@@@Z 000000018003fb58     CanvasRenderingContext2d.obj
 0002:0000db68       $chain$5$?SetLineDashOffset@Context2d@@SAXV?$Local@VString@v8@@@v8@@V?$Local@VValue@v8@@@3@AEBV?$PropertyCallbackInfo@X@Nan@@@Z 000000018003fb68     CanvasRenderingContext2d.obj
 0002:0000db88       $unwind$?Rect@Context2d@@SAXAEBV?$FunctionCallbackInfo@VValue@v8@@@Nan@@@Z 000000018003fb88     CanvasRenderingContext2d.obj
 0002:0000db88       $unwind$?StrokeRect@Context2d@@SAXAEBV?$FunctionCallbackInfo@VValue@v8@@@Nan@@@Z 000000018003fb88     CanvasRenderingContext2d.obj
 0002:0000db88       $unwind$?ClearRect@Context2d@@SAXAEBV?$FunctionCallbackInfo@VValue@v8@@@Nan@@@Z 000000018003fb88     CanvasRenderingContext2d.obj
 0002:0000db88       $unwind$?FillRect@Context2d@@SAXAEBV?$FunctionCallbackInfo@VValue@v8@@@Nan@@@Z 000000018003fb88     CanvasRenderingContext2d.obj
 0002:0000db90       $chain$3$?FillRect@Context2d@@SAXAEBV?$FunctionCallbackInfo@VValue@v8@@@Nan@@@Z 000000018003fb90     CanvasRenderingContext2d.obj
 0002:0000dbb0       $chain$4$?FillRect@Context2d@@SAXAEBV?$FunctionCallbackInfo@VValue@v8@@@Nan@@@Z 000000018003fbb0     CanvasRenderingContext2d.obj
 0002:0000dbc4       $chain$5$?FillRect@Context2d@@SAXAEBV?$FunctionCallbackInfo@VValue@v8@@@Nan@@@Z 000000018003fbc4     CanvasRenderingContext2d.obj
 0002:0000dbd4       $chain$6$?FillRect@Context2d@@SAXAEBV?$FunctionCallbackInfo@VValue@v8@@@Nan@@@Z 000000018003fbd4     CanvasRenderingContext2d.obj
 0002:0000dbe4       $chain$3$?StrokeRect@Context2d@@SAXAEBV?$FunctionCallbackInfo@VValue@v8@@@Nan@@@Z 000000018003fbe4     CanvasRenderingContext2d.obj
 0002:0000dc04       $chain$4$?StrokeRect@Context2d@@SAXAEBV?$FunctionCallbackInfo@VValue@v8@@@Nan@@@Z 000000018003fc04     CanvasRenderingContext2d.obj
 0002:0000dc18       $chain$5$?StrokeRect@Context2d@@SAXAEBV?$FunctionCallbackInfo@VValue@v8@@@Nan@@@Z 000000018003fc18     CanvasRenderingContext2d.obj
 0002:0000dc28       $chain$6$?StrokeRect@Context2d@@SAXAEBV?$FunctionCallbackInfo@VValue@v8@@@Nan@@@Z 000000018003fc28     CanvasRenderingContext2d.obj
 0002:0000dc38       $chain$3$?ClearRect@Context2d@@SAXAEBV?$FunctionCallbackInfo@VValue@v8@@@Nan@@@Z 000000018003fc38     CanvasRenderingContext2d.obj
 0002:0000dc58       $chain$4$?ClearRect@Context2d@@SAXAEBV?$FunctionCallbackInfo@VValue@v8@@@Nan@@@Z 000000018003fc58     CanvasRenderingContext2d.obj
 0002:0000dc6c       $chain$5$?ClearRect@Context2d@@SAXAEBV?$FunctionCallbackInfo@VValue@v8@@@Nan@@@Z 000000018003fc6c     CanvasRenderingContext2d.obj
 0002:0000dc7c       $chain$6$?ClearRect@Context2d@@SAXAEBV?$FunctionCallbackInfo@VValue@v8@@@Nan@@@Z 000000018003fc7c     CanvasRenderingContext2d.obj
 0002:0000dc8c       $chain$3$?Rect@Context2d@@SAXAEBV?$FunctionCallbackInfo@VValue@v8@@@Nan@@@Z 000000018003fc8c     CanvasRenderingContext2d.obj
 0002:0000dcac       $chain$4$?Rect@Context2d@@SAXAEBV?$FunctionCallbackInfo@VValue@v8@@@Nan@@@Z 000000018003fcac     CanvasRenderingContext2d.obj
 0002:0000dcbc       $unwind$?Arc@Context2d@@SAXAEBV?$FunctionCallbackInfo@VValue@v8@@@Nan@@@Z 000000018003fcbc     CanvasRenderingContext2d.obj
 0002:0000dcc4       $chain$7$?Arc@Context2d@@SAXAEBV?$FunctionCallbackInfo@VValue@v8@@@Nan@@@Z 000000018003fcc4     CanvasRenderingContext2d.obj
 0002:0000dcf4       $chain$8$?Arc@Context2d@@SAXAEBV?$FunctionCallbackInfo@VValue@v8@@@Nan@@@Z 000000018003fcf4     CanvasRenderingContext2d.obj
 0002:0000dd04       $unwind$?ArcTo@Context2d@@SAXAEBV?$FunctionCallbackInfo@VValue@v8@@@Nan@@@Z 000000018003fd04     CanvasRenderingContext2d.obj
 0002:0000dd10       $chain$8$?ArcTo@Context2d@@SAXAEBV?$FunctionCallbackInfo@VValue@v8@@@Nan@@@Z 000000018003fd10     CanvasRenderingContext2d.obj
 0002:0000dd44       $chain$9$?ArcTo@Context2d@@SAXAEBV?$FunctionCallbackInfo@VValue@v8@@@Nan@@@Z 000000018003fd44     CanvasRenderingContext2d.obj
 0002:0000dd58       $chain$11$?ArcTo@Context2d@@SAXAEBV?$FunctionCallbackInfo@VValue@v8@@@Nan@@@Z 000000018003fd58     CanvasRenderingContext2d.obj
 0002:0000dd70       $chain$12$?ArcTo@Context2d@@SAXAEBV?$FunctionCallbackInfo@VValue@v8@@@Nan@@@Z 000000018003fd70     CanvasRenderingContext2d.obj
 0002:0000dd80       $chain$13$?ArcTo@Context2d@@SAXAEBV?$FunctionCallbackInfo@VValue@v8@@@Nan@@@Z 000000018003fd80     CanvasRenderingContext2d.obj
 0002:0000dd90       $unwind$??0?$TypedArrayContents@E@Nan@@QEAA@V?$Local@VValue@v8@@@v8@@@Z 000000018003fd90     CanvasRenderingContext2d.obj
 0002:0000ddac       $stateUnwindMap$??0?$TypedArrayContents@E@Nan@@QEAA@V?$Local@VValue@v8@@@v8@@@Z 000000018003fdac     CanvasRenderingContext2d.obj
 0002:0000ddb8       $ip2state$??0?$TypedArrayContents@E@Nan@@QEAA@V?$Local@VValue@v8@@@v8@@@Z 000000018003fdb8     CanvasRenderingContext2d.obj
 0002:0000ddd0       $unwind$snprintf           000000018003fdd0     color.obj
 0002:0000ddd0       $unwind$swprintf           000000018003fdd0     libucrt:assert.obj
 0002:0000dde0       $unwind$?rgba_from_hsla@@YAHMMMM@Z 000000018003fde0     color.obj
 0002:0000de14       $unwind$?rgba_from_rgba_string@@YAHPEBDPEAF@Z 000000018003fe14     color.obj
 0002:0000de14       $unwind$?rgba_from_rgb_string@@YAHPEBDPEAF@Z 000000018003fe14     color.obj
 0002:0000de20       $chain$0$?rgba_from_rgb_string@@YAHPEBDPEAF@Z 000000018003fe20     color.obj
 0002:0000de34       $chain$2$?rgba_from_rgb_string@@YAHPEBDPEAF@Z 000000018003fe34     color.obj
 0002:0000de48       $chain$3$?rgba_from_rgb_string@@YAHPEBDPEAF@Z 000000018003fe48     color.obj
 0002:0000de58       $chain$0$?rgba_from_rgba_string@@YAHPEBDPEAF@Z 000000018003fe58     color.obj
 0002:0000de6c       $chain$2$?rgba_from_rgba_string@@YAHPEBDPEAF@Z 000000018003fe6c     color.obj
 0002:0000de80       $chain$3$?rgba_from_rgba_string@@YAHPEBDPEAF@Z 000000018003fe80     color.obj
 0002:0000de90       $unwind$?rgba_from_hsla_string@@YAHPEBDPEAF@Z 000000018003fe90     color.obj
 0002:0000de90       $unwind$?type_case_a@?$output_processor@DV?$string_output_adapter@D@__crt_stdio_output@@V?$standard_base@DV?$string_output_adapter@D@__crt_stdio_output@@@2@@__crt_stdio_output@@AEAA_NXZ 000000018003fe90     libucrt:output.obj
 0002:0000de9c       $chain$2$?rgba_from_hsla_string@@YAHPEBDPEAF@Z 000000018003fe9c     color.obj
 0002:0000deb8       $chain$4$?rgba_from_hsla_string@@YAHPEBDPEAF@Z 000000018003feb8     color.obj
 0002:0000ded4       $chain$5$?rgba_from_hsla_string@@YAHPEBDPEAF@Z 000000018003fed4     color.obj
 0002:0000dee8       $chain$6$?rgba_from_hsla_string@@YAHPEBDPEAF@Z 000000018003fee8     color.obj
 0002:0000def8       $unwind$?rgba_from_hsl_string@@YAHPEBDPEAF@Z 000000018003fef8     color.obj
 0002:0000df04       $chain$1$?rgba_from_hsl_string@@YAHPEBDPEAF@Z 000000018003ff04     color.obj
 0002:0000df1c       $chain$3$?rgba_from_hsl_string@@YAHPEBDPEAF@Z 000000018003ff1c     color.obj
 0002:0000df34       $chain$4$?rgba_from_hsl_string@@YAHPEBDPEAF@Z 000000018003ff34     color.obj
 0002:0000df44       $unwind$??$parse_css_number@M@@YA_NPEAPEBDPEAM@Z 000000018003ff44     color.obj
 0002:0000df50       $chain$2$??$parse_css_number@M@@YA_NPEAPEBDPEAM@Z 000000018003ff50     color.obj
 0002:0000df6c       $chain$4$??$parse_css_number@M@@YA_NPEAPEBDPEAM@Z 000000018003ff6c     color.obj
 0002:0000df88       $chain$5$??$parse_css_number@M@@YA_NPEAPEBDPEAM@Z 000000018003ff88     color.obj
 0002:0000df98       $unwind$?Initialize@Image@@SAXV?$Local@VObject@v8@@@v8@@@Z 000000018003ff98     Image.obj
 0002:0000dfb4       $stateUnwindMap$?Initialize@ImageData@@SAXV?$Local@VObject@v8@@@v8@@@Z 000000018003ffb4     ImageData.obj
 0002:0000dfb4       $stateUnwindMap$?Initialize@Image@@SAXV?$Local@VObject@v8@@@v8@@@Z 000000018003ffb4     Image.obj
 0002:0000dfc8       $ip2state$?Initialize@Image@@SAXV?$Local@VObject@v8@@@v8@@@Z 000000018003ffc8     Image.obj
 0002:0000dfe8       $unwind$?clearData@Image@@QEAAXXZ 000000018003ffe8     Image.obj
 0002:0000dff4       $chain$0$?clearData@Image@@QEAAXXZ 000000018003fff4     Image.obj
 0002:0000e008       $chain$2$?clearData@Image@@QEAAXXZ 0000000180040008     Image.obj
 0002:0000e020       $chain$3$?clearData@Image@@QEAAXXZ 0000000180040020     Image.obj
 0002:0000e034       $chain$4$?clearData@Image@@QEAAXXZ 0000000180040034     Image.obj
 0002:0000e044       $unwind$?SetSource@Image@@SAXV?$Local@VString@v8@@@v8@@V?$Local@VValue@v8@@@3@AEBV?$PropertyCallbackInfo@X@Nan@@@Z 0000000180040044     Image.obj
 0002:0000e05c       $stateUnwindMap$?SetSource@Image@@SAXV?$Local@VString@v8@@@v8@@V?$Local@VValue@v8@@@3@AEBV?$PropertyCallbackInfo@X@Nan@@@Z 000000018004005c     Image.obj
 0002:0000e078       $ip2state$?SetSource@Image@@SAXV?$Local@VString@v8@@@v8@@V?$Local@VValue@v8@@@3@AEBV?$PropertyCallbackInfo@X@Nan@@@Z 0000000180040078     Image.obj
 0002:0000e0b0       $unwind$?SetOnload@Image@@SAXV?$Local@VString@v8@@@v8@@V?$Local@VValue@v8@@@3@AEBV?$PropertyCallbackInfo@X@Nan@@@Z 00000001800400b0     Image.obj
 0002:0000e0c8       $stateUnwindMap$?SetOnerror@Image@@SAXV?$Local@VString@v8@@@v8@@V?$Local@VValue@v8@@@3@AEBV?$PropertyCallbackInfo@X@Nan@@@Z 00000001800400c8     Image.obj
 0002:0000e0c8       $stateUnwindMap$?SetOnload@Image@@SAXV?$Local@VString@v8@@@v8@@V?$Local@VValue@v8@@@3@AEBV?$PropertyCallbackInfo@X@Nan@@@Z 00000001800400c8     Image.obj
 0002:0000e0d0       $ip2state$?SetOnload@Image@@SAXV?$Local@VString@v8@@@v8@@V?$Local@VValue@v8@@@3@AEBV?$PropertyCallbackInfo@X@Nan@@@Z 00000001800400d0     Image.obj
 0002:0000e0e8       $unwind$?SetOnerror@Image@@SAXV?$Local@VString@v8@@@v8@@V?$Local@VValue@v8@@@3@AEBV?$PropertyCallbackInfo@X@Nan@@@Z 00000001800400e8     Image.obj
 0002:0000e100       $ip2state$?SetOnerror@Image@@SAXV?$Local@VString@v8@@@v8@@V?$Local@VValue@v8@@@3@AEBV?$PropertyCallbackInfo@X@Nan@@@Z 0000000180040100     Image.obj
 0002:0000e118       $unwind$??_GImage@@EEAAPEAXI@Z 0000000180040118     Image.obj
 0002:0000e134       $stateUnwindMap$??_GImage@@EEAAPEAXI@Z 0000000180040134     Image.obj
 0002:0000e158       $ip2state$??_GImage@@EEAAPEAXI@Z 0000000180040158     Image.obj
 0002:0000e170       $unwind$?loadSurface@Image@@QEAA?AW4_cairo_status@@XZ 0000000180040170     Image.obj
 0002:0000e188       $chain$1$?loadSurface@Image@@QEAA?AW4_cairo_status@@XZ 0000000180040188     Image.obj
 0002:0000e1a0       $chain$2$?loadSurface@Image@@QEAA?AW4_cairo_status@@XZ 00000001800401a0     Image.obj
 0002:0000e1b4       $chain$4$?loadSurface@Image@@QEAA?AW4_cairo_status@@XZ 00000001800401b4     Image.obj
 0002:0000e1c8       $chain$5$?loadSurface@Image@@QEAA?AW4_cairo_status@@XZ 00000001800401c8     Image.obj
 0002:0000e1d8       $chain$6$?loadSurface@Image@@QEAA?AW4_cairo_status@@XZ 00000001800401d8     Image.obj
 0002:0000e1e8       $unwind$?loadGIFFromBuffer@Image@@QEAA?AW4_cairo_status@@PEAEI@Z 00000001800401e8     Image.obj
 0002:0000e1f4       $chain$0$?loadGIFFromBuffer@Image@@QEAA?AW4_cairo_status@@PEAEI@Z 00000001800401f4     Image.obj
 0002:0000e208       $chain$6$?loadGIFFromBuffer@Image@@QEAA?AW4_cairo_status@@PEAEI@Z 0000000180040208     Image.obj
 0002:0000e228       $chain$2$?loadGIFFromBuffer@Image@@QEAA?AW4_cairo_status@@PEAEI@Z 0000000180040228     Image.obj
 0002:0000e228       $chain$8$?loadGIFFromBuffer@Image@@QEAA?AW4_cairo_status@@PEAEI@Z 0000000180040228     Image.obj
 0002:0000e23c       $unwind$?decodeJPEGIntoSurface@Image@@QEAA?AW4_cairo_status@@PEAUjpeg_decompress_struct@@@Z 000000018004023c     Image.obj
 0002:0000e24c       $chain$0$?decodeJPEGIntoSurface@Image@@QEAA?AW4_cairo_status@@PEAUjpeg_decompress_struct@@@Z 000000018004024c     Image.obj
 0002:0000e260       $chain$1$?decodeJPEGIntoSurface@Image@@QEAA?AW4_cairo_status@@PEAUjpeg_decompress_struct@@@Z 0000000180040260     Image.obj
 0002:0000e270       $unwind$?decodeJPEGBufferIntoMimeSurface@Image@@QEAA?AW4_cairo_status@@PEAEI@Z 0000000180040270     Image.obj
 0002:0000e288       $chain$0$?decodeJPEGBufferIntoMimeSurface@Image@@QEAA?AW4_cairo_status@@PEAEI@Z 0000000180040288     Image.obj
 0002:0000e29c       $chain$1$?decodeJPEGBufferIntoMimeSurface@Image@@QEAA?AW4_cairo_status@@PEAEI@Z 000000018004029c     Image.obj
 0002:0000e2ac       $unwind$?assignDataAsMime@Image@@QEAA?AW4_cairo_status@@PEAEHPEBD@Z 00000001800402ac     Image.obj
 0002:0000e2c0       $chain$0$?assignDataAsMime@Image@@QEAA?AW4_cairo_status@@PEAEHPEBD@Z 00000001800402c0     Image.obj
 0002:0000e2d4       $chain$1$?assignDataAsMime@Image@@QEAA?AW4_cairo_status@@PEAEHPEBD@Z 00000001800402d4     Image.obj
 0002:0000e2e8       $chain$2$?assignDataAsMime@Image@@QEAA?AW4_cairo_status@@PEAEHPEBD@Z 00000001800402e8     Image.obj
 0002:0000e2f8       $chain$3$?assignDataAsMime@Image@@QEAA?AW4_cairo_status@@PEAEHPEBD@Z 00000001800402f8     Image.obj
 0002:0000e308       $unwind$?loadJPEGFromBuffer@Image@@QEAA?AW4_cairo_status@@PEAEI@Z 0000000180040308     Image.obj
 0002:0000e320       $unwind$?Initialize@ImageData@@SAXV?$Local@VObject@v8@@@v8@@@Z 0000000180040320     ImageData.obj
 0002:0000e340       $ip2state$?Initialize@ImageData@@SAXV?$Local@VObject@v8@@@v8@@@Z 0000000180040340     ImageData.obj
 0002:0000e360       $unwind$?New@ImageData@@SAXAEBV?$FunctionCallbackInfo@VValue@v8@@@Nan@@@Z 0000000180040360     ImageData.obj
 0002:0000e374       $unwind$?init@@YAXV?$Local@VObject@v8@@@v8@@@Z 0000000180040374     init.obj
 0002:0000e39c       $stateUnwindMap$?init@@YAXV?$Local@VObject@v8@@@v8@@@Z 000000018004039c     init.obj
 0002:0000e3b0       $ip2state$?init@@YAXV?$Local@VObject@v8@@@v8@@@Z 00000001800403b0     init.obj
 0002:0000e3d8       $unwind$?New@FontFace@@SAXAEBV?$FunctionCallbackInfo@VValue@v8@@@Nan@@@Z 00000001800403d8     FontFace.obj
 0002:0000e3f0       $ip2state$?New@FontFace@@SAXAEBV?$FunctionCallbackInfo@VValue@v8@@@Nan@@@Z 00000001800403f0     FontFace.obj
 0002:0000e418       xdata                      0000000180040418     node:node.exe
 0002:0000e420       $unwind$_raise_exc         0000000180040420     libucrt:fpexcept.obj
 0002:0000e420       $unwind$?__scrt_throw_std_bad_array_new_length@@YAXXZ 0000000180040420     LIBCMT:throw_bad_alloc.obj
 0002:0000e420       $unwind$?__scrt_throw_std_bad_alloc@@YAXXZ 0000000180040420     LIBCMT:throw_bad_alloc.obj
 0002:0000e420       $unwind$_raise_excf        0000000180040420     libucrt:fpexcept.obj
 0002:0000e420       $unwind$?_Xlength_error@std@@YAXPEBD@Z 0000000180040420     libcpmt:xthrow.obj
 0002:0000e428       $unwind$??0length_error@std@@QEAA@PEBD@Z 0000000180040428     libcpmt:xthrow.obj
 0002:0000e428       $unwind$??$common_xtox_s@K_W@@YAHKQEA_W_KI_N@Z 0000000180040428     libucrt:xtoa.obj
 0002:0000e430       $xdatasym                  0000000180040430     LIBCMT:_amdsecgs_.obj
 0002:0000e434       $unwind$__scrt_is_nonwritable_in_current_image 0000000180040434     LIBCMT:utility.obj
 0002:0000e454       $unwind$__scrt_is_nonwritable_in_current_image$filt$0 0000000180040454     LIBCMT:utility.obj
 0002:0000e45c       $unwind$__scrt_initialize_onexit_tables 000000018004045c     LIBCMT:utility.obj
 0002:0000e468       $unwind$?dllmain_crt_process_attach@@YAHQEAUHINSTANCE__@@QEAX@Z 0000000180040468     LIBCMT:dll_dllmain.obj
 0002:0000e4a4       $unwind$?dllmain_crt_process_detach@@YAH_N@Z 00000001800404a4     LIBCMT:dll_dllmain.obj
 0002:0000e4dc       $unwind$?dllmain_dispatch@@YAHQEAUHINSTANCE__@@KQEAX@Z 00000001800404dc     LIBCMT:dll_dllmain.obj
 0002:0000e504       $unwind$?fin$0@?0???$common_getenv_s@D@@YAHQEA_KQEAD_KQEBD@Z@4HA 0000000180040504     libucrt:getenv.obj
 0002:0000e504       $unwind$?filt$0@?0??dllmain_dispatch@@YAHQEAUHINSTANCE__@@KQEAX@Z@4HA 0000000180040504     LIBCMT:dll_dllmain.obj
 0002:0000e504       $unwind$fread_s$fin$0      0000000180040504     libucrt:fread.obj
 0002:0000e50c       $unwind$__report_securityfailure 000000018004050c     LIBCMT:gs_report.obj
 0002:0000e514       $unwind$__report_gsfailure 0000000180040514     LIBCMT:gs_report.obj
 0002:0000e51c       $unwind$capture_current_context 000000018004051c     LIBCMT:gs_report.obj
 0002:0000e528       $unwind$capture_previous_context 0000000180040528     LIBCMT:gs_report.obj
 0002:0000e534       $unwind$__isa_available_init 0000000180040534     LIBCMT:_cpu_disp_.obj
 0002:0000e548       $unwind$__scrt_fastfail    0000000180040548     LIBCMT:utility_desktop.obj
 0002:0000e558       $unwind$__security_init_cookie 0000000180040558     LIBCMT:gs_support.obj
 0002:0000e568       $xdatasym                  0000000180040568     LIBCMT:_guard_dispatch_.obj
 0002:0000e570       $xdatasym                  0000000180040570     LIBCMT:_rfgfailure_.obj
 0002:0000e580       $unwind$?_GetEstablisherFrame@@YAPEA_KPEA_KPEAU_xDISPATCHER_CONTEXT@@PEBU_s_FuncInfo@@0@Z 0000000180040580     libvcruntime:risctrnsctrl.obj
 0002:0000e598       $unwind$?__FrameUnwindToEmptyState@@YAXPEA_KPEAU_xDISPATCHER_CONTEXT@@PEBU_s_FuncInfo@@@Z 0000000180040598     libvcruntime:risctrnsctrl.obj
 0002:0000e5ac       $unwind$_CallSETranslator  00000001800405ac     libvcruntime:risctrnsctrl.obj
 0002:0000e5d0       $unwind$_CallSETranslator$filt$0 00000001800405d0     libvcruntime:risctrnsctrl.obj
 0002:0000e5dc       $unwind$??R<lambda_a10e4b102d4a2c3aac6f4f48bbdf488f>@@QEBAHXZ 00000001800405dc     libucrt:onexit.obj
 0002:0000e5dc       $unwind$??$parse_command_line@D@@YAXPEADPEAPEAD0PEA_K2@Z 00000001800405dc     libucrt:argv_parsing.obj
 0002:0000e5dc       $unwind$?_GetRangeOfTrysToCheck@@YAPEBU_s_TryBlockMapEntry@@PEA_KPEBU_s_FuncInfo@@HHPEAI2PEAU_xDISPATCHER_CONTEXT@@@Z 00000001800405dc     libvcruntime:risctrnsctrl.obj
 0002:0000e5dc       $unwind$?write_string_impl@?$output_adapter_common@_WV?$stream_output_adapter@_W@__crt_stdio_output@@@__crt_stdio_output@@IEBAXQEB_WHQEAHAEAV__crt_deferred_errno_cache@@@Z 00000001800405dc     libucrt:output.obj
 0002:0000e5f8       $unwind$_UnwindNestedFrames 00000001800405f8     libvcruntime:risctrnsctrl.obj
 0002:0000e60c       $unwind$__CxxFrameHandler3 000000018004060c     libvcruntime:risctrnsctrl.obj
 0002:0000e61c       $unwind$__DestructExceptionObject 000000018004061c     libvcruntime:ehhelpers.obj
 0002:0000e640       $unwind$strstr             0000000180040640     libvcruntime:strstr.obj
 0002:0000e650       $unwind$__acrt_stdio_refill_and_read_narrow_nolock 0000000180040650     libucrt:_filbuf.obj
 0002:0000e650       $unwind$?initialize_stdio_handles_nolock@@YAXXZ 0000000180040650     libucrt:ioinit.obj
 0002:0000e650       $unwind$_free_osfhnd       0000000180040650     libucrt:osfinfo.obj
 0002:0000e650       $unwind$__std_exception_copy 0000000180040650     libvcruntime:std_exception.obj
 0002:0000e664       $unwind$_CxxThrowException 0000000180040664     libvcruntime:throw.obj
 0002:0000e678       $unwind$__C_specific_handler 0000000180040678     libvcruntime:_riscchandler_.obj
 0002:0000e678       $unwind$__InternalCxxFrameHandler 0000000180040678     libvcruntime:frame.obj
 0002:0000e698       $xdatasym                  0000000180040698     libvcruntime:memset.obj
 0002:0000e69c       $unwind$__CxxCallCatchBlock 000000018004069c     libvcruntime:frame.obj
 0002:0000e6d8       $unwind$__CxxCallCatchBlock$fin$1 00000001800406d8     libvcruntime:frame.obj
 0002:0000e6e4       $unwind$__BuildCatchObject 00000001800406e4     libvcruntime:frame.obj
 0002:0000e710       $unwind$__TypeMatch        0000000180040710     libvcruntime:frame.obj
 0002:0000e710       $unwind$?process@?$output_processor@_WV?$string_output_adapter@_W@__crt_stdio_output@@V?$standard_base@_WV?$string_output_adapter@_W@__crt_stdio_output@@@2@@__crt_stdio_output@@QEAAHXZ 0000000180040710     libucrt:output.obj
 0002:0000e710       $unwind$__acrt_initialize_stdio 0000000180040710     libucrt:_file.obj
 0002:0000e710       $unwind$__acrt_lowio_set_os_handle 0000000180040710     libucrt:osfinfo.obj
 0002:0000e710       $unwind$?process@?$output_processor@_WV?$stream_output_adapter@_W@__crt_stdio_output@@V?$standard_base@_WV?$stream_output_adapter@_W@__crt_stdio_output@@@2@@__crt_stdio_output@@QEAAHXZ 0000000180040710     libucrt:output.obj
 0002:0000e710       $unwind$__GSHandlerCheck_EH 0000000180040710     LIBCMT:gshandlereh.obj
 0002:0000e728       $unwind$__FrameUnwindToState 0000000180040728     libvcruntime:frame.obj
 0002:0000e774       $unwind$?FindHandler@@YAXPEAUEHExceptionRecord@@PEA_KPEAU_CONTEXT@@PEAU_xDISPATCHER_CONTEXT@@PEBU_s_FuncInfo@@EH1@Z 0000000180040774     libvcruntime:frame.obj
 0002:0000e794       $unwind$?CatchIt@@YAXPEAUEHExceptionRecord@@PEA_KPEAU_CONTEXT@@PEAU_xDISPATCHER_CONTEXT@@PEBU_s_FuncInfo@@PEBU_s_HandlerType@@PEBU_s_CatchableType@@PEBU_s_TryBlockMapEntry@@H1EE@Z 0000000180040794     libvcruntime:frame.obj
 0002:0000e7ac       $unwind$?FindHandlerForForeignException@@YAXPEAUEHExceptionRecord@@PEA_KPEAU_CONTEXT@@PEAU_xDISPATCHER_CONTEXT@@PEBU_s_FuncInfo@@HH1@Z 00000001800407ac     libvcruntime:frame.obj
 0002:0000e7c4       $unwind$?IsInExceptionSpec@@YAEPEAUEHExceptionRecord@@PEBU_s_ESTypeList@@@Z 00000001800407c4     libvcruntime:frame.obj
 0002:0000e7c4       $unwind$??R<lambda_f03950bc5685219e0bcd2087efbe011e>@@QEBAHXZ 00000001800407c4     libucrt:onexit.obj
 0002:0000e7c4       $unwind$?try_get_function@@YAPEAXW4function_id@?A0xbfbae6a7@@QEBDQEBW4module_id@2@2@Z 00000001800407c4     libvcruntime:winapi_downlevel.obj
 0002:0000e7c4       $unwind$?try_get_function@@YAPEAXW4function_id@?A0x391cf84c@@QEBDQEBW4module_id@2@2@Z 00000001800407c4     libucrt:winapi_thunks.obj
 0002:0000e7e0       $unwind$__BuildCatchObjectHelper 00000001800407e0     libvcruntime:frame.obj
 0002:0000e820       $xdatasym                  0000000180040820     libvcruntime:_longjmp_.obj
 0002:0000e828       $unwind$__acrt_initialize_winapi_thunks 0000000180040828     libucrt:winapi_thunks.obj
 0002:0000e828       $unwind$__vcrt_initialize_winapi_thunks 0000000180040828     libvcruntime:winapi_downlevel.obj
 0002:0000e830       $unwind$__vcrt_uninitialize_winapi_thunks 0000000180040830     libvcruntime:winapi_downlevel.obj
 0002:0000e830       $unwind$__acrt_stdio_end_temporary_buffering_nolock 0000000180040830     libucrt:_sftbuf.obj
 0002:0000e838       $xdatasym                  0000000180040838     libvcruntime:_jmpuwind_.obj
 0002:0000e850       $xdatasym                  0000000180040850     libvcruntime:memcpy.obj
 0002:0000e858       $xdatasym                  0000000180040858     libvcruntime:handlers.obj
 0002:0000e860       $unwind$fwprintf           0000000180040860     libucrt:assert.obj
 0002:0000e86c       $unwind$??$common_assert_to_stderr@_W@@YAXQEB_W0I@Z 000000018004086c     libucrt:assert.obj
 0002:0000e888       $unwind$??$common_assert_to_message_box@_W@@YAXQEB_W0IQEAX@Z 0000000180040888     libucrt:assert.obj
 0002:0000e8a4       $unwind$??$common_assert_to_message_box_build_string@_W@@YAXQEA_W_KQEB_W2IQEAX@Z 00000001800408a4     libucrt:assert.obj
 0002:0000e8c4       $unwind$_invalid_parameter_noinfo_noreturn 00000001800408c4     libucrt:invalid_parameter.obj
 0002:0000e8c4       $unwind$fflush             00000001800408c4     libucrt:fflush.obj
 0002:0000e8c4       $unwind$fread              00000001800408c4     libucrt:fread.obj
 0002:0000e8c4       $unwind$_invalid_parameter_noinfo 00000001800408c4     libucrt:invalid_parameter.obj
 0002:0000e8c4       $unwind$_itow_s            00000001800408c4     libucrt:xtoa.obj
 0002:0000e8c4       $unwind$strtol             00000001800408c4     libucrt:strtox.obj
 0002:0000e8c4       $unwind$wcstol             00000001800408c4     libucrt:strtox.obj
 0002:0000e8c4       $unwind$_sopen_s           00000001800408c4     libucrt:open.obj
 0002:0000e8c4       $unwind$wctomb_s           00000001800408c4     libucrt:wctomb.obj
 0002:0000e8c4       $unwind$_log10_special     00000001800408c4     libucrt:log_special.obj
 0002:0000e8c4       $unwind$atol               00000001800408c4     libucrt:atox.obj
 0002:0000e8cc       $unwind$__acrt_call_reportfault 00000001800408cc     libucrt:invalid_parameter.obj
 0002:0000e8ec       $unwind$__acrt_MessageBoxW 00000001800408ec     libucrt:winapi_thunks.obj
 0002:0000e8ec       $unwind$_invalid_parameter 00000001800408ec     libucrt:invalid_parameter.obj
 0002:0000e900       $unwind$__stdio_common_vfwprintf 0000000180040900     libucrt:output.obj
 0002:0000e908       $unwind$??$common_vsprintf@Vstandard_base@__crt_stdio_output@@_W@@YAH_KQEA_W0QEB_WQEAU__crt_locale_pointers@@QEAD@Z 0000000180040908     libucrt:output.obj
 0002:0000e908       $unwind$??$common_vsprintf@Vstandard_base@__crt_stdio_output@@D@@YAH_KQEAD0QEBDQEAU__crt_locale_pointers@@1@Z 0000000180040908     libucrt:output.obj
 0002:0000e928       $unwind$?parse_int_from_format_string@?$output_processor@_WV?$stream_output_adapter@_W@__crt_stdio_output@@V?$standard_base@_WV?$stream_output_adapter@_W@__crt_stdio_output@@@2@@__crt_stdio_output@@AEAA_NQEAH@Z 0000000180040928     libucrt:output.obj
 0002:0000e928       $unwind$?parse_int_from_format_string@?$output_processor@_WV?$string_output_adapter@_W@__crt_stdio_output@@V?$standard_base@_WV?$string_output_adapter@_W@__crt_stdio_output@@@2@@__crt_stdio_output@@AEAA_NQEAH@Z 0000000180040928     libucrt:output.obj
 0002:0000e93c       $unwind$?state_case_type@?$output_processor@_WV?$stream_output_adapter@_W@__crt_stdio_output@@V?$standard_base@_WV?$stream_output_adapter@_W@__crt_stdio_output@@@2@@__crt_stdio_output@@AEAA_NXZ 000000018004093c     libucrt:output.obj
 0002:0000e95c       $unwind$?type_case_a@?$output_processor@_WV?$string_output_adapter@_W@__crt_stdio_output@@V?$standard_base@_WV?$string_output_adapter@_W@__crt_stdio_output@@@2@@__crt_stdio_output@@AEAA_NXZ 000000018004095c     libucrt:output.obj
 0002:0000e95c       $unwind$?type_case_a@?$output_processor@_WV?$stream_output_adapter@_W@__crt_stdio_output@@V?$standard_base@_WV?$stream_output_adapter@_W@__crt_stdio_output@@@2@@__crt_stdio_output@@AEAA_NXZ 000000018004095c     libucrt:output.obj
 0002:0000e96c       $unwind$?type_case_integer@?$output_processor@_WV?$string_output_adapter@_W@__crt_stdio_output@@V?$standard_base@_WV?$string_output_adapter@_W@__crt_stdio_output@@@2@@__crt_stdio_output@@AEAA_NI_N@Z 000000018004096c     libucrt:output.obj
 0002:0000e96c       $unwind$?type_case_integer@?$output_processor@DV?$string_output_adapter@D@__crt_stdio_output@@V?$standard_base@DV?$string_output_adapter@D@__crt_stdio_output@@@2@@__crt_stdio_output@@AEAA_NI_N@Z 000000018004096c     libucrt:output.obj
 0002:0000e96c       $unwind$_chsize_nolock     000000018004096c     libucrt:chsize.obj
 0002:0000e96c       $unwind$?type_case_integer@?$output_processor@_WV?$stream_output_adapter@_W@__crt_stdio_output@@V?$standard_base@_WV?$stream_output_adapter@_W@__crt_stdio_output@@@2@@__crt_stdio_output@@AEAA_NI_N@Z 000000018004096c     libucrt:output.obj
 0002:0000e984       $unwind$??R<lambda_a775ed57af18ba8e4d5dc780aa9068fe>@@QEBAHXZ 0000000180040984     libucrt:output.obj
 0002:0000e9a4       $unwind$?write_string@?$string_output_adapter@D@__crt_stdio_output@@QEBAXQEBDHQEAHAEAV__crt_deferred_errno_cache@@@Z 00000001800409a4     libucrt:output.obj
 0002:0000e9a4       $unwind$??$write_multiple_characters@V?$stream_output_adapter@_W@__crt_stdio_output@@D@__crt_stdio_output@@YAXAEBV?$stream_output_adapter@_W@0@DHQEAH@Z 00000001800409a4     libucrt:output.obj
 0002:0000e9bc       $unwind$?process@?$output_processor@DV?$string_output_adapter@D@__crt_stdio_output@@V?$standard_base@DV?$string_output_adapter@D@__crt_stdio_output@@@2@@__crt_stdio_output@@QEAAHXZ 00000001800409bc     libucrt:output.obj
 0002:0000e9cc       $unwind$?parse_int_from_format_string@?$output_processor@DV?$string_output_adapter@D@__crt_stdio_output@@V?$standard_base@DV?$string_output_adapter@D@__crt_stdio_output@@@2@@__crt_stdio_output@@AEAA_NQEAH@Z 00000001800409cc     libucrt:output.obj
 0002:0000e9e0       $unwind$?write_stored_string_tchar@?$output_processor@DV?$string_output_adapter@D@__crt_stdio_output@@V?$standard_base@DV?$string_output_adapter@D@__crt_stdio_output@@@2@@__crt_stdio_output@@AEAA_ND@Z 00000001800409e0     libucrt:output.obj
 0002:0000e9f8       $unwind$?write_string@?$string_output_adapter@_W@__crt_stdio_output@@QEBAXQEB_WHQEAHAEAV__crt_deferred_errno_cache@@@Z 00000001800409f8     libucrt:output.obj
 0002:0000ea10       $unwind$?state_case_type@?$output_processor@_WV?$string_output_adapter@_W@__crt_stdio_output@@V?$standard_base@_WV?$string_output_adapter@_W@__crt_stdio_output@@@2@@__crt_stdio_output@@AEAA_NXZ 0000000180040a10     libucrt:output.obj
 0002:0000ea34       $unwind$?write_stored_string_tchar@?$output_processor@_WV?$string_output_adapter@_W@__crt_stdio_output@@V?$standard_base@_WV?$string_output_adapter@_W@__crt_stdio_output@@@2@@__crt_stdio_output@@AEAA_N_W@Z 0000000180040a34     libucrt:output.obj
 0002:0000ea34       $unwind$?cvtdate@@YAXW4transition_type@?A0x7639d0b4@@W4date_type@2@HHHHHHHHH@Z 0000000180040a34     libucrt:tzset.obj
 0002:0000ea48       $unwind$??$write_multiple_characters@V?$string_output_adapter@_W@__crt_stdio_output@@D@__crt_stdio_output@@YAXAEBV?$string_output_adapter@_W@0@DHQEAH@Z 0000000180040a48     libucrt:output.obj
 0002:0000ea54       $unwind$??$type_case_integer_parse_into_buffer@I@?$output_processor@_WV?$stream_output_adapter@_W@__crt_stdio_output@@V?$standard_base@_WV?$stream_output_adapter@_W@__crt_stdio_output@@@2@@__crt_stdio_output@@AEAAXII_N@Z 0000000180040a54     libucrt:output.obj
 0002:0000ea54       $unwind$??$type_case_integer_parse_into_buffer@_K@?$output_processor@DV?$string_output_adapter@D@__crt_stdio_output@@V?$standard_base@DV?$string_output_adapter@D@__crt_stdio_output@@@2@@__crt_stdio_output@@AEAAX_KI_N@Z 0000000180040a54     libucrt:output.obj
 0002:0000ea54       $unwind$??$write_multiple_characters@V?$string_output_adapter@D@__crt_stdio_output@@D@__crt_stdio_output@@YAXAEBV?$string_output_adapter@D@0@DHQEAH@Z 0000000180040a54     libucrt:output.obj
 0002:0000ea54       $unwind$__ascii_strnicmp   0000000180040a54     libucrt:strnicmp.obj
 0002:0000ea54       $unwind$??$type_case_integer_parse_into_buffer@_K@?$output_processor@_WV?$string_output_adapter@_W@__crt_stdio_output@@V?$standard_base@_WV?$string_output_adapter@_W@__crt_stdio_output@@@2@@__crt_stdio_output@@AEAAX_KI_N@Z 0000000180040a54     libucrt:output.obj
 0002:0000ea54       $unwind$??$type_case_integer_parse_into_buffer@I@?$output_processor@_WV?$string_output_adapter@_W@__crt_stdio_output@@V?$standard_base@_WV?$string_output_adapter@_W@__crt_stdio_output@@@2@@__crt_stdio_output@@AEAAXII_N@Z 0000000180040a54     libucrt:output.obj
 0002:0000ea54       $unwind$??$type_case_integer_parse_into_buffer@I@?$output_processor@DV?$string_output_adapter@D@__crt_stdio_output@@V?$standard_base@DV?$string_output_adapter@D@__crt_stdio_output@@@2@@__crt_stdio_output@@AEAAXII_N@Z 0000000180040a54     libucrt:output.obj
 0002:0000ea54       $unwind$??$type_case_integer_parse_into_buffer@_K@?$output_processor@_WV?$stream_output_adapter@_W@__crt_stdio_output@@V?$standard_base@_WV?$stream_output_adapter@_W@__crt_stdio_output@@@2@@__crt_stdio_output@@AEAAX_KI_N@Z 0000000180040a54     libucrt:output.obj
 0002:0000ea5c       $unwind$??$?RV<lambda_0d412022a4b28cc8a401ea49574e8ae6>@@AEAV<lambda_a775ed57af18ba8e4d5dc780aa9068fe>@@V<lambda_975a71a6baa488a08f4e15f6b0339b9e>@@@?$__crt_seh_guarded_call@H@@QEAAH$$QEAV<lambda_0d412022a4b28cc8a401ea49574e8ae6>@@AEAV<lambda_a775ed57af18ba8e4d5dc780aa9068fe>@@$$QEAV<lambda_975a71a6baa488a08f4e15f6b0339b9e>@@@Z 0000000180040a5c     libucrt:output.obj
 0002:0000ea80       $unwind$?common_ftell_translated_utf8_nolock@@YA_JV__crt_stdio_stream@@_J@Z 0000000180040a80     libucrt:ftell.obj
 0002:0000eaa8       $unwind$?common_ftell_read_mode_nolock@@YA_JV__crt_stdio_stream@@_J1@Z 0000000180040aa8     libucrt:ftell.obj
 0002:0000eac0       $unwind$??$common_ftell@J@@YAJV__crt_stdio_stream@@@Z 0000000180040ac0     libucrt:ftell.obj
 0002:0000eae4       $unwind$??$common_fsopen@D@@YAPEAU_iobuf@@QEBD0H@Z 0000000180040ae4     libucrt:fopen.obj
 0002:0000eb0c       $unwind$fclose             0000000180040b0c     libucrt:fclose.obj
 0002:0000eb30       $unwind$?common_fseek@@YAHV__crt_stdio_stream@@_JH@Z 0000000180040b30     libucrt:fseek.obj
 0002:0000eb58       $unwind$fread_s            0000000180040b58     libucrt:fread.obj
 0002:0000eb88       $unwind$_fread_nolock_s    0000000180040b88     libucrt:fread.obj
 0002:0000eba0       $unwind$_fstat64i32        0000000180040ba0     libucrt:stat.obj
 0002:0000ebac       $unwind$??$common_stat_handle_file_opened@U_stat64i32@@@@YA_NQEB_WHQEAXAEAU_stat64i32@@@Z 0000000180040bac     libucrt:stat.obj
 0002:0000ebc8       $unwind$??$convert_filetime_to_time_t@_J@@YA_JU_FILETIME@@_J@Z 0000000180040bc8     libucrt:stat.obj
 0002:0000ebd8       $unwind$??$?RV<lambda_3a04bfe258a31910a526c90b4d849d20>@@AEAV<lambda_1b3ad63c02abf531fe15530b52bade31>@@V<lambda_1755787d260f86bf828f8bf7552b2658>@@@?$__crt_seh_guarded_call@H@@QEAAH$$QEAV<lambda_3a04bfe258a31910a526c90b4d849d20>@@AEAV<lambda_1b3ad63c02abf531fe15530b52bade31>@@$$QEAV<lambda_1755787d260f86bf828f8bf7552b2658>@@@Z 0000000180040bd8     libucrt:stat.obj
 0002:0000ec00       $unwind$_stricmp_l         0000000180040c00     libucrt:stricmp.obj
 0002:0000ec00       $unwind$?x_ismbbtype_l@@YAHPEAU__crt_locale_pointers@@IHH@Z 0000000180040c00     libucrt:ismbbyte.obj
 0002:0000ec10       $unwind$_query_new_handler 0000000180040c10     libucrt:new_handler.obj
 0002:0000ec30       $unwind$?common_exit@@YAXHW4_crt_exit_cleanup_mode@@W4_crt_exit_return_mode@@@Z 0000000180040c30     libucrt:exit.obj
 0002:0000ec3c       $unwind$??R<lambda_6e4b09c48022b2350581041d5f6b0c4c>@@QEBA@XZ 0000000180040c3c     libucrt:exit.obj
 0002:0000ec5c       $unwind$??$?RV<lambda_d80eeec6fff315bfe5c115232f3240e3>@@AEAV<lambda_6e4b09c48022b2350581041d5f6b0c4c>@@V<lambda_2358e3775559c9db80273638284d5e45>@@@?$__crt_seh_guarded_call@X@@QEAAX$$QEAV<lambda_d80eeec6fff315bfe5c115232f3240e3>@@AEAV<lambda_6e4b09c48022b2350581041d5f6b0c4c>@@$$QEAV<lambda_2358e3775559c9db80273638284d5e45>@@@Z 0000000180040c5c     libucrt:exit.obj
 0002:0000ec80       $unwind$_configure_narrow_argv 0000000180040c80     libucrt:argv_parsing.obj
 0002:0000ec94       $unwind$??$free_environment@D@@YAXQEAPEAD@Z 0000000180040c94     libucrt:environment_initialization.obj
 0002:0000ec94       $unwind$??$free_environment@_W@@YAXQEAPEA_W@Z 0000000180040c94     libucrt:environment_initialization.obj
 0002:0000eca0       $unwind$??$create_environment@D@@YAQEAPEADQEAD@Z 0000000180040ca0     libucrt:environment_initialization.obj
 0002:0000eca0       $unwind$__acrt_copy_path_to_wide_string 0000000180040ca0     libucrt:string_utilities.obj
 0002:0000ecb8       $unwind$??$initialize_environment_by_cloning_nolock@D@@YAHXZ 0000000180040cb8     libucrt:environment_initialization.obj
 0002:0000ecc8       $unwind$_register_onexit_function 0000000180040cc8     libucrt:onexit.obj
 0002:0000ecd0       $unwind$_execute_onexit_table 0000000180040cd0     libucrt:onexit.obj
 0002:0000ecd8       $unwind$??$?RV<lambda_8369fcb7c4df1e85de37618bd2b85f07>@@AEAV<lambda_a10e4b102d4a2c3aac6f4f48bbdf488f>@@V<lambda_5b7707bd6d7a0c4713179f36c7fd995d>@@@?$__crt_seh_guarded_call@H@@QEAAH$$QEAV<lambda_8369fcb7c4df1e85de37618bd2b85f07>@@AEAV<lambda_a10e4b102d4a2c3aac6f4f48bbdf488f>@@$$QEAV<lambda_5b7707bd6d7a0c4713179f36c7fd995d>@@@Z 0000000180040cd8     libucrt:onexit.obj
 0002:0000ecfc       $unwind$??$?RV<lambda_7777bce6b2f8c936911f934f8298dc43>@@AEAV<lambda_f03950bc5685219e0bcd2087efbe011e>@@V<lambda_3883c3dff614d5e0c5f61bb1ac94921c>@@@?$__crt_seh_guarded_call@H@@QEAAH$$QEAV<lambda_7777bce6b2f8c936911f934f8298dc43>@@AEAV<lambda_f03950bc5685219e0bcd2087efbe011e>@@$$QEAV<lambda_3883c3dff614d5e0c5f61bb1ac94921c>@@@Z 0000000180040cfc     libucrt:onexit.obj
 0002:0000ed20       $unwind$terminate          0000000180040d20     libucrt:terminate.obj
 0002:0000ed40       $unwind$_strdup            0000000180040d40     libucrt:strdup.obj
 0002:0000ed40       $unwind$strpbrk            0000000180040d40     libucrt:strpbrk.obj
 0002:0000ed50       $unwind$?destroy_fls@@YAXPEAX@Z 0000000180040d50     libucrt:per_thread_data.obj
 0002:0000ed50       $unwind$__acrt_locale_free_lc_time_if_unreferenced 0000000180040d50     libucrt:locale_refcounting.obj
 0002:0000ed50       $unwind$__acrt_locale_free_numeric 0000000180040d50     libucrt:initnum.obj
 0002:0000ed50       $unwind$_free_base         0000000180040d50     libucrt:free_base.obj
 0002:0000ed58       $unwind$??$parse_integer@KV?$c_string_character_source@D@__crt_strtox@@@__crt_strtox@@YAKQEAU__crt_locale_pointers@@V?$c_string_character_source@D@0@H_N@Z 0000000180040d58     libucrt:atox.obj
 0002:0000ed74       $unwind$??$parse_integer@KV?$c_string_character_source@_W@__crt_strtox@@@__crt_strtox@@YAKQEAU__crt_locale_pointers@@V?$c_string_character_source@_W@0@H_N@Z 0000000180040d74     libucrt:atox.obj
 0002:0000ed90       $xdatasym                  0000000180040d90     libucrt:strncmp.obj
 0002:0000ed94       $unwind$?common_flush_all@@YAH_N@Z 0000000180040d94     libucrt:fflush.obj
 0002:0000ed9c       $unwind$??$?RV<lambda_842d9ff0dc9ef11c61343bbaebe7f885>@@AEAV<lambda_c5860995281e5c4ce005b3de8f5874ee>@@V<lambda_d90129c13df834fdcbf8d2b88dafcf2d>@@@?$__crt_seh_guarded_call@X@@QEAAX$$QEAV<lambda_842d9ff0dc9ef11c61343bbaebe7f885>@@AEAV<lambda_c5860995281e5c4ce005b3de8f5874ee>@@$$QEAV<lambda_d90129c13df834fdcbf8d2b88dafcf2d>@@@Z 0000000180040d9c     libucrt:fflush.obj
 0002:0000edc0       $unwind$??$?RV<lambda_886d6c58226a84441f68b9f2b8217b83>@@AEAV<lambda_ab61a845afdef5b7c387490eaf3616ee>@@V<lambda_f7f22ab5edc0698d5f6905b0d3f44752>@@@?$__crt_seh_guarded_call@X@@QEAAX$$QEAV<lambda_886d6c58226a84441f68b9f2b8217b83>@@AEAV<lambda_ab61a845afdef5b7c387490eaf3616ee>@@$$QEAV<lambda_f7f22ab5edc0698d5f6905b0d3f44752>@@@Z 0000000180040dc0     libucrt:fflush.obj
 0002:0000ede8       $unwind$??$?RV<lambda_c376a267cfb53b6959b3b692ec76b120>@@AEAV<lambda_9a32fed5bf61b6b509b2d3f6003082a1>@@V<lambda_572fbb9fa0ab338edf41edfd4b5fcc8d>@@@?$__crt_seh_guarded_call@H@@QEAAH$$QEAV<lambda_c376a267cfb53b6959b3b692ec76b120>@@AEAV<lambda_9a32fed5bf61b6b509b2d3f6003082a1>@@$$QEAV<lambda_572fbb9fa0ab338edf41edfd4b5fcc8d>@@@Z 0000000180040de8     libucrt:fflush.obj
 0002:0000ee0c       $unwind$setvbuf            0000000180040e0c     libucrt:setvbuf.obj
 0002:0000ee14       $unwind$??$?RV<lambda_84ec643ea9557e2f7dc01bb0e9624395>@@AEAV<lambda_ca71763b3c0644891230e4f79ea54fa6>@@V<lambda_439a761618c59b0600e24586724d733b>@@@?$__crt_seh_guarded_call@H@@QEAAH$$QEAV<lambda_84ec643ea9557e2f7dc01bb0e9624395>@@AEAV<lambda_ca71763b3c0644891230e4f79ea54fa6>@@$$QEAV<lambda_439a761618c59b0600e24586724d733b>@@@Z 0000000180040e14     libucrt:setvbuf.obj
 0002:0000ee38       $unwind$__acrt_get_sigabrt_handler 0000000180040e38     libucrt:signal.obj
 0002:0000ee38       $unwind$__acrt_uninitialize_locale 0000000180040e38     libucrt:wsetlocale.obj
 0002:0000ee40       $unwind$raise              0000000180040e40     libucrt:signal.obj
 0002:0000ee6c       $unwind$??$?RV<lambda_450d765d439847d4c735a33c368b5fc0>@@AEAV<lambda_44731a7d0e6d81c3e6aa82d741081786>@@V<lambda_601a2a7da3b7a96e9554ac7215c4b07c>@@@?$__crt_seh_guarded_call@P6AXH@Z@@QEAAP6AXH@Z$$QEAV<lambda_450d765d439847d4c735a33c368b5fc0>@@AEAV<lambda_44731a7d0e6d81c3e6aa82d741081786>@@$$QEAV<lambda_601a2a7da3b7a96e9554ac7215c4b07c>@@@Z 0000000180040e6c     libucrt:signal.obj
 0002:0000ee90       $unwind$_call_matherr      0000000180040e90     libucrt:libm_error.obj
 0002:0000ee98       $unwind$_handle_errorf     0000000180040e98     libucrt:libm_error.obj
 0002:0000ee98       $unwind$_handle_error      0000000180040e98     libucrt:libm_error.obj
 0002:0000eeb8       $unwind$?construct_ptd_array@@YAXQEAU__acrt_ptd@@@Z 0000000180040eb8     libucrt:per_thread_data.obj
 0002:0000eec0       $unwind$?destroy_ptd_array@@YAXQEAU__acrt_ptd@@@Z 0000000180040ec0     libucrt:per_thread_data.obj
 0002:0000eec8       $unwind$??$?RV<lambda_0ae27a3a962d80f24befdcbee591983d>@@AEAV<lambda_8d0ee55de4b1038c4002e0adecdf1839>@@V<lambda_dc504788e8f1664fe9b84e20bfb512f2>@@@?$__crt_seh_guarded_call@X@@QEAAX$$QEAV<lambda_0ae27a3a962d80f24befdcbee591983d>@@AEAV<lambda_8d0ee55de4b1038c4002e0adecdf1839>@@$$QEAV<lambda_dc504788e8f1664fe9b84e20bfb512f2>@@@Z 0000000180040ec8     libucrt:per_thread_data.obj
 0002:0000eeec       $unwind$??$?RV<lambda_aa87e3671a710a21b5dc78c0bdf72e11>@@AEAV<lambda_92619d2358a28f41a33ba319515a20b9>@@V<lambda_6992ecaafeb10aed2b74cb1fae11a551>@@@?$__crt_seh_guarded_call@X@@QEAAX$$QEAV<lambda_aa87e3671a710a21b5dc78c0bdf72e11>@@AEAV<lambda_92619d2358a28f41a33ba319515a20b9>@@$$QEAV<lambda_6992ecaafeb10aed2b74cb1fae11a551>@@@Z 0000000180040eec     libucrt:per_thread_data.obj
 0002:0000ef10       $unwind$??$?RV<lambda_f2e299630e499de9f9a165e60fcd3db5>@@AEAV<lambda_2ae9d31cdba2644fcbeaf08da7c24588>@@V<lambda_40d01ff24d0e7b3814fdbdcee8eab3c7>@@@?$__crt_seh_guarded_call@X@@QEAAX$$QEAV<lambda_f2e299630e499de9f9a165e60fcd3db5>@@AEAV<lambda_2ae9d31cdba2644fcbeaf08da7c24588>@@$$QEAV<lambda_40d01ff24d0e7b3814fdbdcee8eab3c7>@@@Z 0000000180040f10     libucrt:per_thread_data.obj
 0002:0000ef34       $unwind$??$?RV<lambda_2d41944a1d46af3157314b8a01080d33>@@AEAV<lambda_8f455de75cd7d7f24b4096f044d8b9e6>@@V<lambda_aa500f224e6afead328df44964fe2772>@@@?$__crt_seh_guarded_call@X@@QEAAX$$QEAV<lambda_2d41944a1d46af3157314b8a01080d33>@@AEAV<lambda_8f455de75cd7d7f24b4096f044d8b9e6>@@$$QEAV<lambda_aa500f224e6afead328df44964fe2772>@@@Z 0000000180040f34     libucrt:per_thread_data.obj
 0002:0000ef58       $unwind$?fp_format_e@@YAHQEBNQEAD_K12H_NIQEAU__crt_locale_pointers@@@Z 0000000180040f58     libucrt:cvt.obj
 0002:0000ef58       $unwind$__acrt_LCMapStringW 0000000180040f58     libucrt:lcmapstringw.obj
 0002:0000ef58       $unwind$__acrt_CompareStringEx 0000000180040f58     libucrt:winapi_thunks.obj
 0002:0000ef58       $unwind$_sopen_nolock      0000000180040f58     libucrt:open.obj
 0002:0000ef58       $unwind$__acrt_LCMapStringEx 0000000180040f58     libucrt:winapi_thunks.obj
 0002:0000ef6c       $unwind$__acrt_is_interactive 0000000180040f6c     libucrt:winapi_thunks.obj
 0002:0000ef80       $unwind$_fcloseall         0000000180040f80     libucrt:closeall.obj
 0002:0000efa4       $unwind$__acrt_initialize_lowio 0000000180040fa4     libucrt:ioinit.obj
 0002:0000efc4       $unwind$?initialize_inherited_file_handles_nolock@@YAXXZ 0000000180040fc4     libucrt:ioinit.obj
 0002:0000efe0       $unwind$_tolower_l         0000000180040fe0     libucrt:tolower_toupper.obj
 0002:0000eff0       $unwind$_mbtowc_l          0000000180040ff0     libucrt:mbtowc.obj
 0002:0000f008       $unwind$_wctomb_s_l        0000000180041008     libucrt:wctomb.obj
 0002:0000f018       $unwind$__acrt_fp_format   0000000180041018     libucrt:cvt.obj
 0002:0000f02c       $unwind$?fp_format_nan_or_infinity@@YAHW4__acrt_fp_class@@_NPEAD_K1@Z 000000018004102c     libucrt:cvt.obj
 0002:0000f040       $unwind$?fp_format_e_internal@@YAHQEAD_KH_NIQEAU_strflt@@2QEAU__crt_locale_pointers@@@Z 0000000180041040     libucrt:cvt.obj
 0002:0000f058       $unwind$?fp_format_a@@YAHQEBNPEAD_KQEAD2H_NIQEAU__crt_locale_pointers@@@Z 0000000180041058     libucrt:cvt.obj
 0002:0000f074       $unwind$?fp_format_f_internal@@YAHQEAD_KHQEAU_strflt@@_NQEAU__crt_locale_pointers@@@Z 0000000180041074     libucrt:cvt.obj
 0002:0000f074       $unwind$__dcrt_get_narrow_environment_from_os 0000000180041074     libucrt:get_environment_from_os.obj
 0002:0000f08c       $unwind$?fp_format_g@@YAHQEBNQEAD_K12H_NIQEAU__crt_locale_pointers@@@Z 000000018004108c     libucrt:cvt.obj
 0002:0000f0a0       $unwind$_fputwc_nolock     00000001800410a0     libucrt:fputwc.obj
 0002:0000f0bc       $unwind$??$?RV<lambda_410d79af7f07d98d83a3f525b3859a53>@@AEAV<lambda_3e16ef9562a7dcce91392c22ab16ea36>@@V<lambda_38119f0e861e05405d8a144b9b982f0a>@@@?$__crt_seh_guarded_call@X@@QEAAX$$QEAV<lambda_410d79af7f07d98d83a3f525b3859a53>@@AEAV<lambda_3e16ef9562a7dcce91392c22ab16ea36>@@$$QEAV<lambda_38119f0e861e05405d8a144b9b982f0a>@@@Z 00000001800410bc     libucrt:wsetlocale.obj
 0002:0000f0e4       $unwind$??$common_lseek@_J@@YA_JH_JH@Z 00000001800410e4     libucrt:lseek.obj
 0002:0000f114       $unwind$_read              0000000180041114     libucrt:read.obj
 0002:0000f144       $unwind$_read_nolock       0000000180041144     libucrt:read.obj
 0002:0000f15c       $unwind$?translate_ansi_or_utf8_nolock@@YAHHQEAD_KQEA_W1@Z 000000018004115c     libucrt:read.obj
 0002:0000f178       $unwind$??$translate_text_mode_nolock@D@@YAHHQEAD_K@Z 0000000180041178     libucrt:read.obj
 0002:0000f190       $unwind$??$translate_text_mode_nolock@_W@@YAHHQEA_W_K@Z 0000000180041190     libucrt:read.obj
 0002:0000f1a8       $unwind$?__acrt_stdio_allocate_stream@@YA?AV__crt_stdio_stream@@XZ 00000001800411a8     libucrt:stream.obj
 0002:0000f1c8       $unwind$_openfile          00000001800411c8     libucrt:openfile.obj
 0002:0000f1dc       $unwind$_close             00000001800411dc     libucrt:close.obj
 0002:0000f1dc       $unwind$_commit            00000001800411dc     libucrt:commit.obj
 0002:0000f1e4       $unwind$??$?RV<lambda_751a882b2c74d4b022dec766aa51a29a>@@AEAV<lambda_628dfdc04ba53c8bfc02c9951375f3f5>@@V<lambda_f6c7be5f7998530c34de24c7437d6b54>@@@?$__crt_seh_guarded_call@H@@QEAAH$$QEAV<lambda_751a882b2c74d4b022dec766aa51a29a>@@AEAV<lambda_628dfdc04ba53c8bfc02c9951375f3f5>@@$$QEAV<lambda_f6c7be5f7998530c34de24c7437d6b54>@@@Z 00000001800411e4     libucrt:close.obj
 0002:0000f208       $unwind$_getdrive          0000000180041208     libucrt:drive.obj
 0002:0000f224       $unwind$_strnicmp_l        0000000180041224     libucrt:strnicmp.obj
 0002:0000f224       $unwind$_wcsicmp_l         0000000180041224     libucrt:wcsicmp.obj
 0002:0000f224       $unwind$__dcrt_write_console_w 0000000180041224     libucrt:initcon.obj
 0002:0000f238       $unwind$_alloc_osfhnd      0000000180041238     libucrt:osfinfo.obj
 0002:0000f268       $unwind$__acrt_lowio_destroy_handle_array 0000000180041268     libucrt:osfinfo.obj
 0002:0000f278       $unwind$__acrt_lowio_ensure_fh_exists 0000000180041278     libucrt:osfinfo.obj
 0002:0000f2a4       $unwind$??$common_loctotime_t@_J@@YA_JHHHHHHH@Z 00000001800412a4     libucrt:loctotime.obj
 0002:0000f2c4       $unwind$??$common_expand_argv_wildcards@D@@YAHQEAPEADQEAPEAPEAD@Z 00000001800412c4     libucrt:argv_wildcards.obj
 0002:0000f2dc       $unwind$??$copy_and_add_argument_to_buffer@D@@YAHQEBD0_KAEAV?$argument_list@D@?A0x5f5c8891@@@Z 00000001800412dc     libucrt:argv_wildcards.obj
 0002:0000f2f8       $unwind$??$expand_argument_wildcards@D@@YAHQEAD0AEAV?$argument_list@D@?A0x5f5c8891@@@Z 00000001800412f8     libucrt:argv_wildcards.obj
 0002:0000f318       $unwind$_setmbcp_nolock    0000000180041318     libucrt:mbctype.obj
 0002:0000f338       $unwind$?update_thread_multibyte_data_internal@@YAPEAU__crt_multibyte_data@@QEAU__acrt_ptd@@QEAPEAU1@@Z 0000000180041338     libucrt:mbctype.obj
 0002:0000f360       $unwind$?setmbcp_internal@@YAHH_NQEAU__acrt_ptd@@QEAPEAU__crt_multibyte_data@@@Z 0000000180041360     libucrt:mbctype.obj
 0002:0000f370       $unwind$?setSBUpLow@@YAXPEAU__crt_multibyte_data@@@Z 0000000180041370     libucrt:mbctype.obj
 0002:0000f38c       $unwind$??$?RV<lambda_efdfa57d1f175319df784efa44bb7b81>@@AEAV<lambda_5f0a4c1567f8adc6734073e5d1e1b35c>@@V<lambda_2e8a7d3640ea6ccb4c2413664c2db6fd>@@@?$__crt_seh_guarded_call@X@@QEAAX$$QEAV<lambda_efdfa57d1f175319df784efa44bb7b81>@@AEAV<lambda_5f0a4c1567f8adc6734073e5d1e1b35c>@@$$QEAV<lambda_2e8a7d3640ea6ccb4c2413664c2db6fd>@@@Z 000000018004138c     libucrt:mbctype.obj
 0002:0000f3b4       $unwind$??$common_set_variable_in_environment_nolock@D@@YAHQEADH@Z 00000001800413b4     libucrt:setenv.obj
 0002:0000f3cc       $unwind$??$copy_environment@D@@YAPEAPEADQEAPEAD@Z 00000001800413cc     libucrt:setenv.obj
 0002:0000f3e0       $unwind$iswctype           00000001800413e0     libucrt:iswctype.obj
 0002:0000f3ec       $unwind$_isctype_l         00000001800413ec     libucrt:isctype.obj
 0002:0000f408       $unwind$??$?RV<lambda_a37b2b86f63e897a80ea819b0eb08c01>@@AEAV<lambda_38ce7e780aa69e748d6df282ebc68efe>@@V<lambda_99fb1378e971ab6e7edea83e3a7a83a2>@@@?$__crt_seh_guarded_call@H@@QEAAH$$QEAV<lambda_a37b2b86f63e897a80ea819b0eb08c01>@@AEAV<lambda_38ce7e780aa69e748d6df282ebc68efe>@@$$QEAV<lambda_99fb1378e971ab6e7edea83e3a7a83a2>@@@Z 0000000180041408     libucrt:commit.obj
 0002:0000f42c       $unwind$_write             000000018004142c     libucrt:write.obj
 0002:0000f45c       $unwind$_write_nolock      000000018004145c     libucrt:write.obj
 0002:0000f474       $unwind$?write_double_translated_ansi_nolock@@YA?AUwrite_result@?A0x17268360@@HQEBDI@Z 0000000180041474     libucrt:write.obj
 0002:0000f494       $unwind$?write_text_ansi_nolock@@YA?AUwrite_result@?A0x17268360@@HQEBDI@Z 0000000180041494     libucrt:write.obj
 0002:0000f494       $unwind$?write_text_utf16le_nolock@@YA?AUwrite_result@?A0x17268360@@HQEBDI@Z 0000000180041494     libucrt:write.obj
 0002:0000f4b4       $unwind$?write_text_utf8_nolock@@YA?AUwrite_result@?A0x17268360@@HQEBDI@Z 00000001800414b4     libucrt:write.obj
 0002:0000f4d8       $unwind$_raise_exc_ex      00000001800414d8     libucrt:fpexcept.obj
 0002:0000f4ec       $unwind$_ctrlfp            00000001800414ec     libucrt:fpctrl.obj
 0002:0000f514       $unwind$__acrt_update_thread_locale_data 0000000180041514     libucrt:locale_refcounting.obj
 0002:0000f538       $unwind$?GetTableIndexFromLocaleName@@YAHPEB_W@Z 0000000180041538     libucrt:lcidtoname_downlevel.obj
 0002:0000f550       $unwind$__acrt_LCMapStringA 0000000180041550     libucrt:lcmapstringa.obj
 0002:0000f560       $unwind$?__acrt_LCMapStringA_stat@@YAHPEAU__crt_locale_pointers@@PEB_WKPEBDHPEADHHH@Z 0000000180041560     libucrt:lcmapstringa.obj
 0002:0000f588       $unwind$__acrt_fltout      0000000180041588     libucrt:cfout.obj
 0002:0000f5a8       $unwind$?divide@__crt_strtox@@YA_KAEAUbig_integer@1@AEBU21@@Z 00000001800415a8     libucrt:cfout.obj
 0002:0000f5c8       $chain$5$?divide@__crt_strtox@@YA_KAEAUbig_integer@1@AEBU21@@Z 00000001800415c8     libucrt:cfout.obj
 0002:0000f5dc       $chain$6$?divide@__crt_strtox@@YA_KAEAUbig_integer@1@AEBU21@@Z 00000001800415dc     libucrt:cfout.obj
 0002:0000f5ec       $unwind$??$write_buffer_nolock@D@@YA_NDV__crt_stdio_stream@@@Z 00000001800415ec     libucrt:_flsbuf.obj
 0002:0000f5fc       $unwind$??$write_buffer_nolock@_W@@YA_N_WV__crt_stdio_stream@@@Z 00000001800415fc     libucrt:_flsbuf.obj
 0002:0000f60c       $unwind$__acrt_locale_free_monetary 000000018004160c     libucrt:initmon.obj
 0002:0000f614       $unwind$__acrt_locale_free_time 0000000180041614     libucrt:inittime.obj
 0002:0000f624       $unwind$__acrt_GetStringTypeA 0000000180041624     libucrt:getstringtypea.obj
 0002:0000f64c       $unwind$_wsopen_nolock     000000018004164c     libucrt:open.obj
 0002:0000f668       $unwind$??$common_sopen_dispatch@D@@YAHQEBDHHHQEAHH@Z 0000000180041668     libucrt:open.obj
 0002:0000f68c       $unwind$?fin$0@?0???$common_sopen_dispatch@D@@YAHQEBDHHHQEAHH@Z@4HA 000000018004168c     libucrt:open.obj
 0002:0000f694       $unwind$?decode_options@@YA?AUfile_options@?A0xa9d50aae@@HHH@Z 0000000180041694     libucrt:open.obj
 0002:0000f6a8       $unwind$?truncate_ctrl_z_if_present@@YAHH@Z 00000001800416a8     libucrt:open.obj
 0002:0000f6b8       $unwind$_towlower_l        00000001800416b8     libucrt:towlower.obj
 0002:0000f6c0       $unwind$_isindst           00000001800416c0     libucrt:tzset.obj
 0002:0000f6e0       $unwind$__tzset            00000001800416e0     libucrt:tzset.obj
 0002:0000f700       $unwind$?tzset_from_system_nolock@@YAXXZ 0000000180041700     libucrt:tzset.obj
 0002:0000f710       $unwind$?tzset_from_environment_nolock@@YAXPEAD@Z 0000000180041710     libucrt:tzset.obj
 0002:0000f728       $unwind$?tzset_nolock@@YAXXZ 0000000180041728     libucrt:tzset.obj
 0002:0000f744       $unwind$?_isindst_nolock@@YAHQEAUtm@@@Z 0000000180041744     libucrt:tzset.obj
 0002:0000f760       $unwind$qsort              0000000180041760     libucrt:qsort.obj
 0002:0000f778       $chain$4$qsort             0000000180041778     libucrt:qsort.obj
 0002:0000f79c       $chain$5$qsort             000000018004179c     libucrt:qsort.obj
 0002:0000f7ac       $unwind$fallbackMethod     00000001800417ac     libucrt:strpbrk.obj
 0002:0000f7bc       $unwind$_mbsdec_l          00000001800417bc     libucrt:mbsdec.obj
 0002:0000f7c8       $unwind$_strnicoll_l       00000001800417c8     libucrt:strnicol.obj
 0002:0000f7dc       $unwind$_putwch_nolock     00000001800417dc     libucrt:putwch.obj
 0002:0000f7e8       $xdatasym                  00000001800417e8     libucrt:fpsr.obj
 0002:0000f7f0       $xdatasym                  00000001800417f0     libucrt:log10.obj
 0002:0000f7fc       $unwind$_setmode_nolock    00000001800417fc     libucrt:setmode.obj
 0002:0000f80c       $unwind$??$common_getenv_s@D@@YAHQEA_KQEAD_KQEBD@Z 000000018004180c     libucrt:getenv.obj
 0002:0000f84c       $unwind$__acrt_CompareStringA 000000018004184c     libucrt:comparestringa.obj
 0002:0000f85c       $unwind$?InternalCompareStringA@@YAHPEAU__crt_locale_pointers@@PEB_WKPEBDH2HH@Z 000000018004185c     libucrt:comparestringa.obj
 0002:0000f880       $unwind$__acrt_fenv_set_control 0000000180041880     libucrt:_fenvutils.obj
 0002:0000f890       $unwind$__acrt_initialize_fma3 0000000180041890     libucrt:fma3_available.obj
 0002:0000f898       $unwind$_log_special_common 0000000180041898     libucrt:log_special.obj
 0002:0000f8a4       $unwind$?DloadObtainSection@@YAPEAXPEAK0@Z 00000001800418a4     DelayImp:delayhlp.obj
 0002:0000f8b0       $unwind$?DloadMakePermanentImageCommit@@YAXPEAX_K@Z 00000001800418b0     DelayImp:delayhlp.obj
 0002:0000f8bc       $unwind$?DloadProtectSection@@YAXKPEAK@Z 00000001800418bc     DelayImp:delayhlp.obj
 0002:0000f8cc       $unwind$__delayLoadHelper2 00000001800418cc     DelayImp:delayhlp.obj
 0002:0000f8e4       $unwind$__GSHandlerCheckCommon 00000001800418e4     LIBCMT:_gshandler_.obj
 0002:0000f8ec       $unwind$_IsNonwritableInCurrentImage 00000001800418ec     LIBCMT:pesect.obj
 0002:0000f910       $xdatasym                  0000000180041910     LIBCMT:_chkstk_.obj
 0002:0000f918       $unwind$strchr             0000000180041918     libvcruntime:strchr.obj
 0002:0000f918       $unwind$strrchr            0000000180041918     libvcruntime:strrchr.obj
 0002:0000f920       $xdatasym                  0000000180041920     libvcruntime:memcmp.obj
 0002:0000f928       $xdatasym                  0000000180041928     libvcruntime:_setjmp_.obj
 0002:0000f930       $unwind$acos               0000000180041930     libucrt:acos.obj
 0002:0000f93c       $unwind$acosf              000000018004193c     libucrt:acosf.obj
 0002:0000f948       $unwind$fmodf              0000000180041948     libucrt:fmodf.obj
 0002:0000f948       $unwind$sqrtf              0000000180041948     libucrt:sqrtf.obj
 0002:0000f950       $xdatasym                  0000000180041950     libucrt:strcmp.obj
 0002:0000f958       $xdatasym                  0000000180041958     libucrt:tan.obj
 0002:0000f974       $unwind$_sincos_special    0000000180041974     libucrt:sincos_special.obj
 0002:0000f980       $xdatasym                  0000000180041980     libucrt:remainder_piby2_forfma3.obj
 0002:0000f990       $xdatasym                  0000000180041990     libucrt:remainder_piby2_forasm.obj
 0002:00011ac0       .edata                     0000000180043ac0     canvas.exp
 0002:00011ae8       rgpv                       0000000180043ae8     canvas.exp
 0002:00011aec       rgszName                   0000000180043aec     canvas.exp
 0002:00011af0       rgwOrd                     0000000180043af0     canvas.exp
 0002:00011af2       szName                     0000000180043af2     canvas.exp
 0002:00011afe       $N00001                    0000000180043afe     canvas.exp
 0002:00011e58       .idata$4                   0000000180043e58     libpng16-16:daofs00011.o
 0002:00011e60       .idata$4                   0000000180043e60     libpng16-16:daofs00015.o
 0002:00011e68       .idata$4                   0000000180043e68     libpng16-16:daofs00019.o
 0002:00011e70       .idata$4                   0000000180043e70     libpng16-16:daofs00020.o
 0002:00011e78       .idata$4                   0000000180043e78     libpng16-16:daofs00044.o
 0002:00011e80       .idata$4                   0000000180043e80     libpng16-16:daofs00058.o
 0002:00011e88       .idata$4                   0000000180043e88     libpng16-16:daofs00149.o
 0002:00011e90       .idata$4                   0000000180043e90     libpng16-16:daofs00155.o
 0002:00011e98       .idata$4                   0000000180043e98     libpng16-16:daofs00168.o
 0002:00011ea0       .idata$4                   0000000180043ea0     libpng16-16:daofs00180.o
 0002:00011ea8       .idata$4                   0000000180043ea8     libpng16-16:daofs00181.o
 0002:00011eb0       .idata$4                   0000000180043eb0     libpng16-16:daofs00198.o
 0002:00011eb8       .idata$4                   0000000180043eb8     libpng16-16:daofs00206.o
 0002:00011ec0       .idata$4                   0000000180043ec0     libpng16-16:daofs00245.o
 0002:00011ec8       .idata$4                   0000000180043ec8     libpng16-16:daofs00247.o
 0002:00011ed0       .idata$4                   0000000180043ed0     libpng16-16:daofs00255.o
 0002:00011ed8       .idata$4                   0000000180043ed8     libpng16-16:daofs00259.o
 0002:00011ee0       .idata$4                   0000000180043ee0     libpng16-16:daofs00260.o
 0002:00011ef0       .idata$4                   0000000180043ef0     libcairo-2:deqes00000.o
 0002:00011ef8       .idata$4                   0000000180043ef8     libcairo-2:deqes00001.o
 0002:00011f00       .idata$4                   0000000180043f00     libcairo-2:deqes00002.o
 0002:00011f08       .idata$4                   0000000180043f08     libcairo-2:deqes00003.o
 0002:00011f10       .idata$4                   0000000180043f10     libcairo-2:deqes00005.o
 0002:00011f18       .idata$4                   0000000180043f18     libcairo-2:deqes00006.o
 0002:00011f20       .idata$4                   0000000180043f20     libcairo-2:deqes00010.o
 0002:00011f28       .idata$4                   0000000180043f28     libcairo-2:deqes00011.o
 0002:00011f30       .idata$4                   0000000180043f30     libcairo-2:deqes00012.o
 0002:00011f38       .idata$4                   0000000180043f38     libcairo-2:deqes00014.o
 0002:00011f40       .idata$4                   0000000180043f40     libcairo-2:deqes00035.o
 0002:00011f48       .idata$4                   0000000180043f48     libcairo-2:deqes00036.o
 0002:00011f50       .idata$4                   0000000180043f50     libcairo-2:deqes00037.o
 0002:00011f58       .idata$4                   0000000180043f58     libcairo-2:deqes00038.o
 0002:00011f60       .idata$4                   0000000180043f60     libcairo-2:deqes00039.o
 0002:00011f68       .idata$4                   0000000180043f68     libcairo-2:deqes00043.o
 0002:00011f70       .idata$4                   0000000180043f70     libcairo-2:deqes00044.o
 0002:00011f78       .idata$4                   0000000180043f78     libcairo-2:deqes00061.o
 0002:00011f80       .idata$4                   0000000180043f80     libcairo-2:deqes00062.o
 0002:00011f88       .idata$4                   0000000180043f88     libcairo-2:deqes00070.o
 0002:00011f90       .idata$4                   0000000180043f90     libcairo-2:deqes00071.o
 0002:00011f98       .idata$4                   0000000180043f98     libcairo-2:deqes00072.o
 0002:00011fa0       .idata$4                   0000000180043fa0     libcairo-2:deqes00073.o
 0002:00011fa8       .idata$4                   0000000180043fa8     libcairo-2:deqes00079.o
 0002:00011fb0       .idata$4                   0000000180043fb0     libcairo-2:deqes00080.o
 0002:00011fb8       .idata$4                   0000000180043fb8     libcairo-2:deqes00081.o
 0002:00011fc0       .idata$4                   0000000180043fc0     libcairo-2:deqes00082.o
 0002:00011fc8       .idata$4                   0000000180043fc8     libcairo-2:deqes00083.o
 0002:00011fd0       .idata$4                   0000000180043fd0     libcairo-2:deqes00084.o
 0002:00011fd8       .idata$4                   0000000180043fd8     libcairo-2:deqes00087.o
 0002:00011fe0       .idata$4                   0000000180043fe0     libcairo-2:deqes00096.o
 0002:00011fe8       .idata$4                   0000000180043fe8     libcairo-2:deqes00097.o
 0002:00011ff0       .idata$4                   0000000180043ff0     libcairo-2:deqes00098.o
 0002:00011ff8       .idata$4                   0000000180043ff8     libcairo-2:deqes00099.o
 0002:00012000       .idata$4                   0000000180044000     libcairo-2:deqes00100.o
 0002:00012008       .idata$4                   0000000180044008     libcairo-2:deqes00101.o
 0002:00012010       .idata$4                   0000000180044010     libcairo-2:deqes00102.o
 0002:00012018       .idata$4                   0000000180044018     libcairo-2:deqes00103.o
 0002:00012020       .idata$4                   0000000180044020     libcairo-2:deqes00104.o
 0002:00012028       .idata$4                   0000000180044028     libcairo-2:deqes00105.o
 0002:00012030       .idata$4                   0000000180044030     libcairo-2:deqes00107.o
 0002:00012038       .idata$4                   0000000180044038     libcairo-2:deqes00108.o
 0002:00012040       .idata$4                   0000000180044040     libcairo-2:deqes00109.o
 0002:00012048       .idata$4                   0000000180044048     libcairo-2:deqes00111.o
 0002:00012050       .idata$4                   0000000180044050     libcairo-2:deqes00112.o
 0002:00012058       .idata$4                   0000000180044058     libcairo-2:deqes00136.o
 0002:00012060       .idata$4                   0000000180044060     libcairo-2:deqes00137.o
 0002:00012068       .idata$4                   0000000180044068     libcairo-2:deqes00139.o
 0002:00012070       .idata$4                   0000000180044070     libcairo-2:deqes00140.o
 0002:00012078       .idata$4                   0000000180044078     libcairo-2:deqes00141.o
 0002:00012080       .idata$4                   0000000180044080     libcairo-2:deqes00144.o
 0002:00012088       .idata$4                   0000000180044088     libcairo-2:deqes00145.o
 0002:00012090       .idata$4                   0000000180044090     libcairo-2:deqes00146.o
 0002:00012098       .idata$4                   0000000180044098     libcairo-2:deqes00148.o
 0002:000120a0       .idata$4                   00000001800440a0     libcairo-2:deqes00152.o
 0002:000120a8       .idata$4                   00000001800440a8     libcairo-2:deqes00156.o
 0002:000120b0       .idata$4                   00000001800440b0     libcairo-2:deqes00166.o
 0002:000120b8       .idata$4                   00000001800440b8     libcairo-2:deqes00167.o
 0002:000120c0       .idata$4                   00000001800440c0     libcairo-2:deqes00174.o
 0002:000120c8       .idata$4                   00000001800440c8     libcairo-2:deqes00178.o
 0002:000120d0       .idata$4                   00000001800440d0     libcairo-2:deqes00182.o
 0002:000120d8       .idata$4                   00000001800440d8     libcairo-2:deqes00194.o
 0002:000120e0       .idata$4                   00000001800440e0     libcairo-2:deqes00209.o
 0002:000120e8       .idata$4                   00000001800440e8     libcairo-2:deqes00239.o
 0002:000120f0       .idata$4                   00000001800440f0     libcairo-2:deqes00240.o
 0002:000120f8       .idata$4                   00000001800440f8     libcairo-2:deqes00241.o
 0002:00012100       .idata$4                   0000000180044100     libcairo-2:deqes00242.o
 0002:00012108       .idata$4                   0000000180044108     libcairo-2:deqes00268.o
 0002:00012110       .idata$4                   0000000180044110     libcairo-2:deqes00269.o
 0002:00012118       .idata$4                   0000000180044118     libcairo-2:deqes00270.o
 0002:00012120       .idata$4                   0000000180044120     libcairo-2:deqes00271.o
 0002:00012128       .idata$4                   0000000180044128     libcairo-2:deqes00272.o
 0002:00012130       .idata$4                   0000000180044130     libcairo-2:deqes00275.o
 0002:00012138       .idata$4                   0000000180044138     libcairo-2:deqes00276.o
 0002:00012140       .idata$4                   0000000180044140     libcairo-2:deqes00277.o
 0002:00012148       .idata$4                   0000000180044148     libcairo-2:deqes00278.o
 0002:00012150       .idata$4                   0000000180044150     libcairo-2:deqes00280.o
 0002:00012158       .idata$4                   0000000180044158     libcairo-2:deqes00281.o
 0002:00012160       .idata$4                   0000000180044160     libcairo-2:deqes00283.o
 0002:00012168       .idata$4                   0000000180044168     libcairo-2:deqes00285.o
 0002:00012170       .idata$4                   0000000180044170     libcairo-2:deqes00286.o
 0002:00012178       .idata$4                   0000000180044178     libcairo-2:deqes00290.o
 0002:00012180       .idata$4                   0000000180044180     libcairo-2:deqes00291.o
 0002:00012188       .idata$4                   0000000180044188     libcairo-2:deqes00294.o
 0002:00012190       .idata$4                   0000000180044190     libcairo-2:deqes00295.o
 0002:00012198       .idata$4                   0000000180044198     libcairo-2:deqes00296.o
 0002:000121a0       .idata$4                   00000001800441a0     libcairo-2:deqes00297.o
 0002:000121a8       .idata$4                   00000001800441a8     libcairo-2:deqes00303.o
 0002:000121b0       .idata$4                   00000001800441b0     libcairo-2:deqes00304.o
 0002:000121b8       .idata$4                   00000001800441b8     libcairo-2:deqes00305.o
 0002:000121c0       .idata$4                   00000001800441c0     libcairo-2:deqes00318.o
 0002:000121c8       .idata$4                   00000001800441c8     libcairo-2:deqes00319.o
 0002:000121d0       .idata$4                   00000001800441d0     libcairo-2:deqes00333.o
 0002:000121d8       .idata$4                   00000001800441d8     libcairo-2:deqes00336.o
 0002:000121e0       .idata$4                   00000001800441e0     libcairo-2:deqes00343.o
 0002:000121e8       .idata$4                   00000001800441e8     libcairo-2:deqes00356.o
 0002:000121f0       .idata$4                   00000001800441f0     libcairo-2:deqes00357.o
 0002:000121f8       .idata$4                   00000001800441f8     libcairo-2:deqes00362.o
 0002:00012200       .idata$4                   0000000180044200     libcairo-2:deqes00363.o
 0002:00012208       .idata$4                   0000000180044208     libcairo-2:deqes00374.o
 0002:00012210       .idata$4                   0000000180044210     libcairo-2:deqes00376.o
 0002:00012220       .idata$4                   0000000180044220     libgif-7:dmscs00000.o
 0002:00012228       .idata$4                   0000000180044228     libgif-7:dmscs00012.o
 0002:00012230       .idata$4                   0000000180044230     libgif-7:dmscs00016.o
 0002:00012240       .idata$4                   0000000180044240     libjpeg-8:dsfes00031.o
 0002:00012248       .idata$4                   0000000180044248     libjpeg-8:dsfes00032.o
 0002:00012250       .idata$4                   0000000180044250     libjpeg-8:dsfes00035.o
 0002:00012258       .idata$4                   0000000180044258     libjpeg-8:dsfes00049.o
 0002:00012260       .idata$4                   0000000180044260     libjpeg-8:dsfes00050.o
 0002:00012268       .idata$4                   0000000180044268     libjpeg-8:dsfes00055.o
 0002:00012270       .idata$4                   0000000180044270     libjpeg-8:dsfes00056.o
 0002:00012278       .idata$4                   0000000180044278     libjpeg-8:dsfes00089.o
 0002:00012280       .idata$4                   0000000180044280     libjpeg-8:dsfes00096.o
 0002:00012288       .idata$4                   0000000180044288     libjpeg-8:dsfes00098.o
 0002:00012290       .idata$4                   0000000180044290     libjpeg-8:dsfes00102.o
 0002:00012298       .idata$4                   0000000180044298     libjpeg-8:dsfes00105.o
 0002:000122a0       .idata$4                   00000001800442a0     libjpeg-8:dsfes00106.o
 0002:000122a8       .idata$4                   00000001800442a8     libjpeg-8:dsfes00108.o
 0002:000122b0       .idata$4                   00000001800442b0     libjpeg-8:dsfes00109.o
 0002:000122b8       .idata$4                   00000001800442b8     libjpeg-8:dsfes00111.o
 0002:000122c0       .idata$4                   00000001800442c0     libjpeg-8:dsfes00114.o
 0002:000122c8       .idata$4                   00000001800442c8     libjpeg-8:dsfes00121.o
 0002:000122d8       .idata$4                   00000001800442d8     libfreetype-6:dwbbs00033.o
 0002:000122e0       .idata$4                   00000001800442e0     libfreetype-6:dwbbs00103.o
 0002:000122e8       .idata$4                   00000001800442e8     libfreetype-6:dwbbs00121.o
 0002:0001230c       .idata$6                   000000018004430c     kernel32:KERNEL32.dll
 0002:0001231a       .idata$6                   000000018004431a     libcairo-2:deqes00303.o
 0002:00012332       .idata$6                   0000000180044332     libcairo-2:deqes00104.o
 0002:00012354       .idata$6                   0000000180044354     libcairo-2:deqes00102.o
 0002:00012376       .idata$6                   0000000180044376     libcairo-2:deqes00014.o
 0002:00012386       .idata$6                   0000000180044386     libcairo-2:deqes00304.o
 0002:0001239e       .idata$6                   000000018004439e     libcairo-2:deqes00101.o
 0002:000123be       .idata$6                   00000001800443be     libcairo-2:deqes00178.o
 0002:000123dc       .idata$6                   00000001800443dc     libcairo-2:deqes00103.o
 0002:000123fe       .idata$6                   00000001800443fe     libcairo-2:deqes00174.o
 0002:00012424       .idata$6                   0000000180044424     libcairo-2:deqes00097.o
 0002:00012442       .idata$6                   0000000180044442     libcairo-2:deqes00294.o
 0002:0001245c       .idata$6                   000000018004445c     libcairo-2:deqes00305.o
 0002:00012472       .idata$6                   0000000180044472     libcairo-2:deqes00343.o
 0002:00012498       .idata$6                   0000000180044498     libcairo-2:deqes00336.o
 0002:000124b0       .idata$6                   00000001800444b0     libcairo-2:deqes00105.o
 0002:000124d0       .idata$6                   00000001800444d0     libcairo-2:deqes00011.o
 0002:000124e0       .idata$6                   00000001800444e0     libcairo-2:deqes00144.o
 0002:00012504       .idata$6                   0000000180044504     libcairo-2:deqes00148.o
 0002:00012522       .idata$6                   0000000180044522     libcairo-2:deqes00146.o
 0002:00012540       .idata$6                   0000000180044540     libcairo-2:deqes00152.o
 0002:00012558       .idata$6                   0000000180044558     libcairo-2:deqes00145.o
 0002:0001257c       .idata$6                   000000018004457c     libcairo-2:deqes00141.o
 0002:00012592       .idata$6                   0000000180044592     libcairo-2:deqes00107.o
 0002:000125a2       .idata$6                   00000001800445a2     libcairo-2:deqes00268.o
 0002:000125bc       .idata$6                   00000001800445bc     libcairo-2:deqes00281.o
 0002:000125d2       .idata$6                   00000001800445d2     libcairo-2:deqes00319.o
 0002:000125f8       .idata$6                   00000001800445f8     libcairo-2:deqes00241.o
 0002:00012606       .idata$6                   0000000180044606     libcairo-2:deqes00082.o
 0002:0001261a       .idata$6                   000000018004461a     libcairo-2:deqes00002.o
 0002:00012630       .idata$6                   0000000180044630     libcairo-2:deqes00297.o
 0002:00012648       .idata$6                   0000000180044648     libcairo-2:deqes00209.o
 0002:0001265a       .idata$6                   000000018004465a     libcairo-2:deqes00277.o
 0002:00012670       .idata$6                   0000000180044670     libcairo-2:deqes00156.o
 0002:0001268c       .idata$6                   000000018004468c     libcairo-2:deqes00286.o
 0002:000126a8       .idata$6                   00000001800446a8     libcairo-2:deqes00035.o
 0002:000126b6       .idata$6                   00000001800446b6     libcairo-2:deqes00276.o
 0002:000126cc       .idata$6                   00000001800446cc     libcairo-2:deqes00087.o
 0002:000126e0       .idata$6                   00000001800446e0     libcairo-2:deqes00111.o
 0002:000126f6       .idata$6                   00000001800446f6     libcairo-2:deqes00167.o
 0002:00012712       .idata$6                   0000000180044712     libcairo-2:deqes00036.o
 0002:00012728       .idata$6                   0000000180044728     libcairo-2:deqes00290.o
 0002:0001273a       .idata$6                   000000018004473a     libcairo-2:deqes00239.o
 0002:0001274a       .idata$6                   000000018004474a     libcairo-2:deqes00038.o
 0002:00012760       .idata$6                   0000000180044760     libcairo-2:deqes00109.o
 0002:00012770       .idata$6                   0000000180044770     libcairo-2:deqes00271.o
 0002:00012786       .idata$6                   0000000180044786     libcairo-2:deqes00139.o
 0002:00012794       .idata$6                   0000000180044794     libcairo-2:deqes00194.o
 0002:000127a8       .idata$6                   00000001800447a8     libcairo-2:deqes00295.o
 0002:000127b8       .idata$6                   00000001800447b8     libcairo-2:deqes00136.o
 0002:000127c8       .idata$6                   00000001800447c8     libcairo-2:deqes00079.o
 0002:000127de       .idata$6                   00000001800447de     libcairo-2:deqes00166.o
 0002:000127fa       .idata$6                   00000001800447fa     libcairo-2:deqes00084.o
 0002:00012810       .idata$6                   0000000180044810     libcairo-2:deqes00357.o
 0002:00012822       .idata$6                   0000000180044822     libcairo-2:deqes00003.o
 0002:00012830       .idata$6                   0000000180044830     libcairo-2:deqes00070.o
 0002:00012846       .idata$6                   0000000180044846     libcairo-2:deqes00285.o
 0002:0001285e       .idata$6                   000000018004485e     libcairo-2:deqes00010.o
 0002:00012876       .idata$6                   0000000180044876     libcairo-2:deqes00283.o
 0002:0001288a       .idata$6                   000000018004488a     libcairo-2:deqes00242.o
 0002:00012898       .idata$6                   0000000180044898     libcairo-2:deqes00374.o
 0002:000128b8       .idata$6                   00000001800448b8     libcairo-2:deqes00291.o
 0002:000128ca       .idata$6                   00000001800448ca     libcairo-2:deqes00318.o
 0002:000128e6       .idata$6                   00000001800448e6     libcairo-2:deqes00275.o
 0002:000128fc       .idata$6                   00000001800448fc     libcairo-2:deqes00037.o
 0002:00012912       .idata$6                   0000000180044912     libcairo-2:deqes00272.o
 0002:00012928       .idata$6                   0000000180044928     libcairo-2:deqes00240.o
 0002:00012938       .idata$6                   0000000180044938     libcairo-2:deqes00296.o
 0002:00012950       .idata$6                   0000000180044950     libcairo-2:deqes00112.o
 0002:00012964       .idata$6                   0000000180044964     libcairo-2:deqes00356.o
 0002:0001297a       .idata$6                   000000018004497a     libcairo-2:deqes00182.o
 0002:00012996       .idata$6                   0000000180044996     libcairo-2:deqes00072.o
 0002:000129a8       .idata$6                   00000001800449a8     libcairo-2:deqes00083.o
 0002:000129c0       .idata$6                   00000001800449c0     libcairo-2:deqes00000.o
 0002:000129d4       .idata$6                   00000001800449d4     libcairo-2:deqes00137.o
 0002:000129e6       .idata$6                   00000001800449e6     libcairo-2:deqes00096.o
 0002:000129fe       .idata$6                   00000001800449fe     libcairo-2:deqes00080.o
 0002:00012a14       .idata$6                   0000000180044a14     libcairo-2:deqes00108.o
 0002:00012a26       .idata$6                   0000000180044a26     libcairo-2:deqes00140.o
 0002:00012a40       .idata$6                   0000000180044a40     libcairo-2:deqes00269.o
 0002:00012a56       .idata$6                   0000000180044a56     libcairo-2:deqes00073.o
 0002:00012a6e       .idata$6                   0000000180044a6e     libcairo-2:deqes00270.o
 0002:00012a80       .idata$6                   0000000180044a80     libcairo-2:deqes00362.o
 0002:00012a92       .idata$6                   0000000180044a92     libcairo-2:deqes00006.o
 0002:00012aa6       .idata$6                   0000000180044aa6     libcairo-2:deqes00001.o
 0002:00012ab2       .idata$6                   0000000180044ab2     libcairo-2:deqes00081.o
 0002:00012aca       .idata$6                   0000000180044aca     libcairo-2:deqes00005.o
 0002:00012ae0       .idata$6                   0000000180044ae0     libcairo-2:deqes00278.o
 0002:00012af8       .idata$6                   0000000180044af8     libcairo-2:deqes00280.o
 0002:00012b10       .idata$6                   0000000180044b10     libcairo-2:deqes00071.o
 0002:00012b2a       .idata$6                   0000000180044b2a     libcairo-2:deqes00363.o
 0002:00012b3c       .idata$6                   0000000180044b3c     libcairo-2:deqes00012.o
 0002:00012b4e       .idata$6                   0000000180044b4e     libcairo-2:deqes00061.o
 0002:00012b6e       .idata$6                   0000000180044b6e     libcairo-2:deqes00099.o
 0002:00012b94       .idata$6                   0000000180044b94     libcairo-2:deqes00100.o
 0002:00012bc2       .idata$6                   0000000180044bc2     libcairo-2:deqes00098.o
 0002:00012be8       .idata$6                   0000000180044be8     libcairo-2:deqes00333.o
 0002:00012c06       .idata$6                   0000000180044c06     libcairo-2:deqes00376.o
 0002:00012c1e       .idata$6                   0000000180044c1e     libcairo-2:deqes00062.o
 0002:00012c46       .idata$6                   0000000180044c46     libcairo-2:deqes00044.o
 0002:00012c66       .idata$6                   0000000180044c66     libcairo-2:deqes00039.o
 0002:00012c80       .idata$6                   0000000180044c80     libcairo-2:deqes00043.o
 0002:00012c9c       .idata$6                   0000000180044c9c     libpng16-16:daofs00019.o
 0002:00012cb8       .idata$6                   0000000180044cb8     libpng16-16:daofs00155.o
 0002:00012cc8       .idata$6                   0000000180044cc8     libpng16-16:daofs00247.o
 0002:00012cea       .idata$6                   0000000180044cea     libpng16-16:daofs00198.o
 0002:00012d00       .idata$6                   0000000180044d00     libpng16-16:daofs00058.o
 0002:00012d12       .idata$6                   0000000180044d12     libpng16-16:daofs00260.o
 0002:00012d24       .idata$6                   0000000180044d24     libpng16-16:daofs00206.o
 0002:00012d38       .idata$6                   0000000180044d38     libpng16-16:daofs00259.o
 0002:00012d4a       .idata$6                   0000000180044d4a     libpng16-16:daofs00044.o
 0002:00012d5e       .idata$6                   0000000180044d5e     libpng16-16:daofs00181.o
 0002:00012d70       .idata$6                   0000000180044d70     libpng16-16:daofs00168.o
 0002:00012d8c       .idata$6                   0000000180044d8c     libpng16-16:daofs00149.o
 0002:00012d9c       .idata$6                   0000000180044d9c     libpng16-16:daofs00245.o
 0002:00012db0       .idata$6                   0000000180044db0     libpng16-16:daofs00011.o
 0002:00012dca       .idata$6                   0000000180044dca     libpng16-16:daofs00180.o
 0002:00012ddc       .idata$6                   0000000180044ddc     libpng16-16:daofs00255.o
 0002:00012dec       .idata$6                   0000000180044dec     libpng16-16:daofs00020.o
 0002:00012df8       .idata$6                   0000000180044df8     libpng16-16:daofs00015.o
 0002:00012e14       .idata$6                   0000000180044e14     libjpeg-8:dsfes00106.o
 0002:00012e2e       .idata$6                   0000000180044e2e     libjpeg-8:dsfes00105.o
 0002:00012e42       .idata$6                   0000000180044e42     libjpeg-8:dsfes00031.o
 0002:00012e58       .idata$6                   0000000180044e58     libjpeg-8:dsfes00111.o
 0002:00012e6a       .idata$6                   0000000180044e6a     libjpeg-8:dsfes00049.o
 0002:00012e82       .idata$6                   0000000180044e82     libjpeg-8:dsfes00102.o
 0002:00012e96       .idata$6                   0000000180044e96     libjpeg-8:dsfes00055.o
 0002:00012eae       .idata$6                   0000000180044eae     libjpeg-8:dsfes00121.o
 0002:00012ec6       .idata$6                   0000000180044ec6     libjpeg-8:dsfes00108.o
 0002:00012edc       .idata$6                   0000000180044edc     libjpeg-8:dsfes00032.o
 0002:00012ef4       .idata$6                   0000000180044ef4     libjpeg-8:dsfes00050.o
 0002:00012f0e       .idata$6                   0000000180044f0e     libjpeg-8:dsfes00096.o
 0002:00012f22       .idata$6                   0000000180044f22     libjpeg-8:dsfes00109.o
 0002:00012f3a       .idata$6                   0000000180044f3a     libjpeg-8:dsfes00114.o
 0002:00012f4c       .idata$6                   0000000180044f4c     libjpeg-8:dsfes00056.o
 0002:00012f66       .idata$6                   0000000180044f66     libjpeg-8:dsfes00035.o
 0002:00012f7e       .idata$6                   0000000180044f7e     libjpeg-8:dsfes00089.o
 0002:00012f8e       .idata$6                   0000000180044f8e     libjpeg-8:dsfes00098.o
 0002:00012fa4       .idata$6                   0000000180044fa4     libgif-7:dmscs00012.o
 0002:00012fb0       .idata$6                   0000000180044fb0     libgif-7:dmscs00016.o
 0002:00012fbc       .idata$6                   0000000180044fbc     libgif-7:dmscs00000.o
 0002:00012fcc       .idata$6                   0000000180044fcc     libfreetype-6:dwbbs00121.o
 0002:00012fda       .idata$6                   0000000180044fda     libfreetype-6:dwbbs00033.o
 0002:00012fea       .idata$6                   0000000180044fea     libfreetype-6:dwbbs00103.o
 0002:00013658       .idata$7                   0000000180045658     libcairo-2:deqes00303.o
 0002:0001365c       .idata$7                   000000018004565c     libcairo-2:deqes00104.o
 0002:00013660       .idata$7                   0000000180045660     libcairo-2:deqes00102.o
 0002:00013664       .idata$7                   0000000180045664     libcairo-2:deqes00014.o
 0002:00013668       .idata$7                   0000000180045668     libcairo-2:deqes00304.o
 0002:0001366c       .idata$7                   000000018004566c     libcairo-2:deqes00101.o
 0002:00013670       .idata$7                   0000000180045670     libcairo-2:deqes00178.o
 0002:00013674       .idata$7                   0000000180045674     libcairo-2:deqes00103.o
 0002:00013678       .idata$7                   0000000180045678     libcairo-2:deqes00174.o
 0002:0001367c       .idata$7                   000000018004567c     libcairo-2:deqes00097.o
 0002:00013680       .idata$7                   0000000180045680     libcairo-2:deqes00294.o
 0002:00013684       .idata$7                   0000000180045684     libcairo-2:deqes00305.o
 0002:00013688       .idata$7                   0000000180045688     libcairo-2:deqes00343.o
 0002:0001368c       .idata$7                   000000018004568c     libcairo-2:deqes00336.o
 0002:00013690       .idata$7                   0000000180045690     libcairo-2:deqes00105.o
 0002:00013694       .idata$7                   0000000180045694     libcairo-2:deqes00011.o
 0002:00013698       .idata$7                   0000000180045698     libcairo-2:deqes00144.o
 0002:0001369c       .idata$7                   000000018004569c     libcairo-2:deqes00148.o
 0002:000136a0       .idata$7                   00000001800456a0     libcairo-2:deqes00146.o
 0002:000136a4       .idata$7                   00000001800456a4     libcairo-2:deqes00152.o
 0002:000136a8       .idata$7                   00000001800456a8     libcairo-2:deqes00145.o
 0002:000136ac       .idata$7                   00000001800456ac     libcairo-2:deqes00141.o
 0002:000136b0       .idata$7                   00000001800456b0     libcairo-2:deqes00107.o
 0002:000136b4       .idata$7                   00000001800456b4     libcairo-2:deqes00268.o
 0002:000136b8       .idata$7                   00000001800456b8     libcairo-2:deqes00281.o
 0002:000136bc       .idata$7                   00000001800456bc     libcairo-2:deqes00319.o
 0002:000136c0       .idata$7                   00000001800456c0     libcairo-2:deqes00241.o
 0002:000136c4       .idata$7                   00000001800456c4     libcairo-2:deqes00082.o
 0002:000136c8       .idata$7                   00000001800456c8     libcairo-2:deqes00002.o
 0002:000136cc       .idata$7                   00000001800456cc     libcairo-2:deqes00297.o
 0002:000136d0       .idata$7                   00000001800456d0     libcairo-2:deqes00209.o
 0002:000136d4       .idata$7                   00000001800456d4     libcairo-2:deqes00277.o
 0002:000136d8       .idata$7                   00000001800456d8     libcairo-2:deqes00156.o
 0002:000136dc       .idata$7                   00000001800456dc     libcairo-2:deqes00286.o
 0002:000136e0       .idata$7                   00000001800456e0     libcairo-2:deqes00035.o
 0002:000136e4       .idata$7                   00000001800456e4     libcairo-2:deqes00276.o
 0002:000136e8       .idata$7                   00000001800456e8     libcairo-2:deqes00087.o
 0002:000136ec       .idata$7                   00000001800456ec     libcairo-2:deqes00111.o
 0002:000136f0       .idata$7                   00000001800456f0     libcairo-2:deqes00167.o
 0002:000136f4       .idata$7                   00000001800456f4     libcairo-2:deqes00036.o
 0002:000136f8       .idata$7                   00000001800456f8     libcairo-2:deqes00290.o
 0002:000136fc       .idata$7                   00000001800456fc     libcairo-2:deqes00239.o
 0002:00013700       .idata$7                   0000000180045700     libcairo-2:deqes00038.o
 0002:00013704       .idata$7                   0000000180045704     libcairo-2:deqes00109.o
 0002:00013708       .idata$7                   0000000180045708     libcairo-2:deqes00271.o
 0002:0001370c       .idata$7                   000000018004570c     libcairo-2:deqes00139.o
 0002:00013710       .idata$7                   0000000180045710     libcairo-2:deqes00194.o
 0002:00013714       .idata$7                   0000000180045714     libcairo-2:deqes00295.o
 0002:00013718       .idata$7                   0000000180045718     libcairo-2:deqes00136.o
 0002:0001371c       .idata$7                   000000018004571c     libcairo-2:deqes00079.o
 0002:00013720       .idata$7                   0000000180045720     libcairo-2:deqes00166.o
 0002:00013724       .idata$7                   0000000180045724     libcairo-2:deqes00084.o
 0002:00013728       .idata$7                   0000000180045728     libcairo-2:deqes00357.o
 0002:0001372c       .idata$7                   000000018004572c     libcairo-2:deqes00003.o
 0002:00013730       .idata$7                   0000000180045730     libcairo-2:deqes00070.o
 0002:00013734       .idata$7                   0000000180045734     libcairo-2:deqes00285.o
 0002:00013738       .idata$7                   0000000180045738     libcairo-2:deqes00010.o
 0002:0001373c       .idata$7                   000000018004573c     libcairo-2:deqes00283.o
 0002:00013740       .idata$7                   0000000180045740     libcairo-2:deqes00242.o
 0002:00013744       .idata$7                   0000000180045744     libcairo-2:deqes00374.o
 0002:00013748       .idata$7                   0000000180045748     libcairo-2:deqes00291.o
 0002:0001374c       .idata$7                   000000018004574c     libcairo-2:deqes00318.o
 0002:00013750       .idata$7                   0000000180045750     libcairo-2:deqes00275.o
 0002:00013754       .idata$7                   0000000180045754     libcairo-2:deqes00037.o
 0002:00013758       .idata$7                   0000000180045758     libcairo-2:deqes00272.o
 0002:0001375c       .idata$7                   000000018004575c     libcairo-2:deqes00240.o
 0002:00013760       .idata$7                   0000000180045760     libcairo-2:deqes00296.o
 0002:00013764       .idata$7                   0000000180045764     libcairo-2:deqes00112.o
 0002:00013768       .idata$7                   0000000180045768     libcairo-2:deqes00356.o
 0002:0001376c       .idata$7                   000000018004576c     libcairo-2:deqes00182.o
 0002:00013770       .idata$7                   0000000180045770     libcairo-2:deqes00072.o
 0002:00013774       .idata$7                   0000000180045774     libcairo-2:deqes00083.o
 0002:00013778       .idata$7                   0000000180045778     libcairo-2:deqes00000.o
 0002:0001377c       .idata$7                   000000018004577c     libcairo-2:deqes00137.o
 0002:00013780       .idata$7                   0000000180045780     libcairo-2:deqes00096.o
 0002:00013784       .idata$7                   0000000180045784     libcairo-2:deqes00080.o
 0002:00013788       .idata$7                   0000000180045788     libcairo-2:deqes00108.o
 0002:0001378c       .idata$7                   000000018004578c     libcairo-2:deqes00140.o
 0002:00013790       .idata$7                   0000000180045790     libcairo-2:deqes00269.o
 0002:00013794       .idata$7                   0000000180045794     libcairo-2:deqes00073.o
 0002:00013798       .idata$7                   0000000180045798     libcairo-2:deqes00270.o
 0002:0001379c       .idata$7                   000000018004579c     libcairo-2:deqes00362.o
 0002:000137a0       .idata$7                   00000001800457a0     libcairo-2:deqes00006.o
 0002:000137a4       .idata$7                   00000001800457a4     libcairo-2:deqes00001.o
 0002:000137a8       .idata$7                   00000001800457a8     libcairo-2:deqes00081.o
 0002:000137ac       .idata$7                   00000001800457ac     libcairo-2:deqes00005.o
 0002:000137b0       .idata$7                   00000001800457b0     libcairo-2:deqes00278.o
 0002:000137b4       .idata$7                   00000001800457b4     libcairo-2:deqes00280.o
 0002:000137b8       .idata$7                   00000001800457b8     libcairo-2:deqes00071.o
 0002:000137bc       .idata$7                   00000001800457bc     libcairo-2:deqes00363.o
 0002:000137c0       .idata$7                   00000001800457c0     libcairo-2:deqes00012.o
 0002:000137c4       .idata$7                   00000001800457c4     libcairo-2:deqes00061.o
 0002:000137c8       .idata$7                   00000001800457c8     libcairo-2:deqes00099.o
 0002:000137cc       .idata$7                   00000001800457cc     libcairo-2:deqes00100.o
 0002:000137d0       .idata$7                   00000001800457d0     libcairo-2:deqes00098.o
 0002:000137d4       .idata$7                   00000001800457d4     libcairo-2:deqes00333.o
 0002:000137d8       .idata$7                   00000001800457d8     libcairo-2:deqes00376.o
 0002:000137dc       .idata$7                   00000001800457dc     libcairo-2:deqes00062.o
 0002:000137e0       .idata$7                   00000001800457e0     libcairo-2:deqes00044.o
 0002:000137e4       .idata$7                   00000001800457e4     libcairo-2:deqes00039.o
 0002:000137e8       .idata$7                   00000001800457e8     libcairo-2:deqes00043.o
 0002:000137fc       .idata$7                   00000001800457fc     libpng16-16:daofs00019.o
 0002:00013800       .idata$7                   0000000180045800     libpng16-16:daofs00155.o
 0002:00013804       .idata$7                   0000000180045804     libpng16-16:daofs00247.o
 0002:00013808       .idata$7                   0000000180045808     libpng16-16:daofs00198.o
 0002:0001380c       .idata$7                   000000018004580c     libpng16-16:daofs00058.o
 0002:00013810       .idata$7                   0000000180045810     libpng16-16:daofs00260.o
 0002:00013814       .idata$7                   0000000180045814     libpng16-16:daofs00206.o
 0002:00013818       .idata$7                   0000000180045818     libpng16-16:daofs00259.o
 0002:0001381c       .idata$7                   000000018004581c     libpng16-16:daofs00044.o
 0002:00013820       .idata$7                   0000000180045820     libpng16-16:daofs00181.o
 0002:00013824       .idata$7                   0000000180045824     libpng16-16:daofs00168.o
 0002:00013828       .idata$7                   0000000180045828     libpng16-16:daofs00149.o
 0002:0001382c       .idata$7                   000000018004582c     libpng16-16:daofs00245.o
 0002:00013830       .idata$7                   0000000180045830     libpng16-16:daofs00011.o
 0002:00013834       .idata$7                   0000000180045834     libpng16-16:daofs00180.o
 0002:00013838       .idata$7                   0000000180045838     libpng16-16:daofs00255.o
 0002:0001383c       .idata$7                   000000018004583c     libpng16-16:daofs00020.o
 0002:00013840       .idata$7                   0000000180045840     libpng16-16:daofs00015.o
 0002:00013854       .idata$7                   0000000180045854     libjpeg-8:dsfes00106.o
 0002:00013858       .idata$7                   0000000180045858     libjpeg-8:dsfes00105.o
 0002:0001385c       .idata$7                   000000018004585c     libjpeg-8:dsfes00031.o
 0002:00013860       .idata$7                   0000000180045860     libjpeg-8:dsfes00111.o
 0002:00013864       .idata$7                   0000000180045864     libjpeg-8:dsfes00049.o
 0002:00013868       .idata$7                   0000000180045868     libjpeg-8:dsfes00102.o
 0002:0001386c       .idata$7                   000000018004586c     libjpeg-8:dsfes00055.o
 0002:00013870       .idata$7                   0000000180045870     libjpeg-8:dsfes00121.o
 0002:00013874       .idata$7                   0000000180045874     libjpeg-8:dsfes00108.o
 0002:00013878       .idata$7                   0000000180045878     libjpeg-8:dsfes00032.o
 0002:0001387c       .idata$7                   000000018004587c     libjpeg-8:dsfes00050.o
 0002:00013880       .idata$7                   0000000180045880     libjpeg-8:dsfes00096.o
 0002:00013884       .idata$7                   0000000180045884     libjpeg-8:dsfes00109.o
 0002:00013888       .idata$7                   0000000180045888     libjpeg-8:dsfes00114.o
 0002:0001388c       .idata$7                   000000018004588c     libjpeg-8:dsfes00056.o
 0002:00013890       .idata$7                   0000000180045890     libjpeg-8:dsfes00035.o
 0002:00013894       .idata$7                   0000000180045894     libjpeg-8:dsfes00089.o
 0002:00013898       .idata$7                   0000000180045898     libjpeg-8:dsfes00098.o
 0002:000138ac       .idata$7                   00000001800458ac     libgif-7:dmscs00012.o
 0002:000138b0       .idata$7                   00000001800458b0     libgif-7:dmscs00016.o
 0002:000138b4       .idata$7                   00000001800458b4     libgif-7:dmscs00000.o
 0002:000138c8       .idata$7                   00000001800458c8     libfreetype-6:dwbbs00121.o
 0002:000138cc       .idata$7                   00000001800458cc     libfreetype-6:dwbbs00033.o
 0002:000138d0       .idata$7                   00000001800458d0     libfreetype-6:dwbbs00103.o
 0003:00000030       ?__vcrt_flsindex@@3KA      0000000180046030     libvcruntime:per_thread_data.obj
 0003:00000150       ?errno_no_memory@@3HA      0000000180046150     libucrt:errno.obj
 0003:00000154       ?doserrno_no_memory@@3KA   0000000180046154     libucrt:errno.obj
 0003:00000158       ?__acrt_flsindex@@3KA      0000000180046158     libucrt:per_thread_data.obj
 0003:00000640       _mbctypes                  0000000180046640     libucrt:mbctype.obj
 0003:00000750       _mbcasemaps                0000000180046750     libucrt:mbctype.obj
 0003:00000850       ?__rgctypeflag@@3PADA      0000000180046850     libucrt:mbctype.obj
 0003:00000860       ?__rgcode_page_info@@3PAUcode_page_info@@A 0000000180046860     libucrt:mbctype.obj
 0003:00000958       ?dazSupported@?1??_ctrlfp@@9@9 0000000180046958     libucrt:fpctrl.obj
 0003:00000a00       ?tzstd_program@@3PADA      0000000180046a00     libucrt:timeset.obj
 0003:00000a40       ?tzdst_program@@3PADA      0000000180046a40     libucrt:timeset.obj
 0003:00000a80       ?tzname_states@@3PAY01PEADA 0000000180046a80     libucrt:timeset.obj
 0003:00000a90       ?dststart@@3Utransitiondate@?A0x7639d0b4@@A 0000000180046a90     libucrt:tzset.obj
 0003:00000aa0       ?dstend@@3Utransitiondate@?A0x7639d0b4@@A 0000000180046aa0     libucrt:tzset.obj
 0003:00000ab0       ?__dcrt_lowio_console_output_handle@@3PEAXEA 0000000180046ab0     libucrt:initcon.obj
 0003:00000ad0       _module                    0000000180046ad0     init.obj
 0003:00000f60       ?module_local_atexit_table@@3U_onexit_table_t@@A 0000000180046f60     LIBCMT:utility.obj
 0003:00000f78       ?module_local_at_quick_exit_table@@3U_onexit_table_t@@A 0000000180046f78     LIBCMT:utility.obj
 0003:00000f90       ?module_local_atexit_table_initialized@@3_NA 0000000180046f90     LIBCMT:utility.obj
 0003:00000fa0       ?is_initialized_as_dll@@3_NA 0000000180046fa0     LIBCMT:utility.obj
 0003:00000fa4       ?__proc_attached@@3HA      0000000180046fa4     LIBCMT:dll_dllmain.obj
 0003:00000fb0       GS_ExceptionRecord         0000000180046fb0     LIBCMT:gs_report.obj
 0003:00001050       GS_ContextRecord           0000000180047050     LIBCMT:gs_report.obj
 0003:00001550       ?__vcrt_startup_thread_ptd@@3U__vcrt_ptd@@A 0000000180047550     libvcruntime:per_thread_data.obj
 0003:000015c8       __vcrt_lock_table          00000001800475c8     libvcruntime:locks.obj
 0003:000015f0       __vcrt_locks_initialized   00000001800475f0     libvcruntime:locks.obj
 0003:000015f8       ?module_handles@@3PAPEAUHINSTANCE__@@A 00000001800475f8     libvcruntime:winapi_downlevel.obj
 0003:00001610       ?encoded_function_pointers@@3PAPEAXA 0000000180047610     libvcruntime:winapi_downlevel.obj
 0003:00001680       ?heap@@3V_HeapManager@@A   0000000180047680     libvcruntime:undname.obj
 0003:000016a8       ?__acrt_invalid_parameter_handler@@3V?$dual_state_global@P6AXPEB_W00I_K@Z@__crt_state_management@@A 00000001800476a8     libucrt:invalid_parameter.obj
 0003:000016c8       ?__acrt_new_handler@@3V?$dual_state_global@P6AH_K@Z@__crt_state_management@@A 00000001800476c8     libucrt:new_handler.obj
 0003:000016d0       ?c_termination_complete@@3JA 00000001800476d0     libucrt:exit.obj
 0003:000016d8       ?thread_local_exit_callback_func@@3P6AXPEAXK0@ZEA 00000001800476d8     libucrt:exit.obj
 0003:000016f0       ?program_name@?1???$common_configure_argv@D@@YAHW4_crt_argv_mode@@@Z@4PADA 00000001800476f0     libucrt:argv_parsing.obj
 0003:00001848       ?__acrt_app_type@@3W4_crt_app_type@@A 0000000180047848     libucrt:report_runtime_error.obj
 0003:0000184c       __acrt_error_mode          000000018004784c     libucrt:set_error_mode.obj
 0003:00001850       ?ctrlc_action@@3V?$dual_state_global@P6AXH@Z@__crt_state_management@@A 0000000180047850     libucrt:signal.obj
 0003:00001858       ?ctrlbreak_action@@3V?$dual_state_global@P6AXH@Z@__crt_state_management@@A 0000000180047858     libucrt:signal.obj
 0003:00001860       ?abort_action@@3V?$dual_state_global@P6AXH@Z@__crt_state_management@@A 0000000180047860     libucrt:signal.obj
 0003:00001868       ?term_action@@3V?$dual_state_global@P6AXH@Z@__crt_state_management@@A 0000000180047868     libucrt:signal.obj
 0003:00001870       ?module_handles@@3PAPEAUHINSTANCE__@@A 0000000180047870     libucrt:winapi_thunks.obj
 0003:00001910       ?encoded_function_pointers@@3PAPEAXA 0000000180047910     libucrt:winapi_thunks.obj
 0003:00001e28       ?enable_percent_n@@3_KA    0000000180047e28     libucrt:printf_count_output.obj
 0003:00001e50       ?__acrt_lock_table@@3PAU_RTL_CRITICAL_SECTION@@A 0000000180047e50     libucrt:locks.obj
 0003:00002080       ?__acrt_locks_initialized@@3IA 0000000180048080     libucrt:locks.obj
 0003:00002084       ?state_cache@?1???$get_cached_win_policy@Udeveloper_information_policy_properties@?1??__acrt_get_developer_information_policy@@YA?AW4developer_information_policy@@XZ@@@YA?AW4developer_information_policy@@W4AppPolicyShowDeveloperDiagnostic@@@Z@4JA 0000000180048084     libucrt:win_policies.obj
 0003:00002088       ?state_cache@?1???$get_cached_win_policy@Uwindowing_model_policy_properties@?1??__acrt_get_windowing_model_policy@@YA?AW4windowing_model_policy@@XZ@@@YA?AW4windowing_model_policy@@W4AppPolicyWindowingModel@@@Z@4JA 0000000180048088     libucrt:win_policies.obj
 0003:000020a8       ?fSystemSet@@3HA           00000001800480a8     libucrt:mbctype.obj
 0003:000020ac       ?initialized@?1??__acrt_initialize_multibyte@@9@4_NA 00000001800480ac     libucrt:mbctype.obj
 0003:000020e8       ?user_matherr@@3V?$dual_state_global@P6AHPEAU_exception@@@Z@__crt_state_management@@A 00000001800480e8     libucrt:matherr.obj
 0003:000020f0       ?__acrt_global_new_mode@@3V?$dual_state_global@J@__crt_state_management@@A 00000001800480f0     libucrt:new_mode.obj
 0003:00002110       ?_tzname@@3V?$dual_state_global@PEAPEAD@__crt_state_management@@A 0000000180048110     libucrt:timeset.obj
 0003:00002118       ?last_tz@@3PEADEA          0000000180048118     libucrt:tzset.obj
 0003:00002120       ?tz_api_used@@3HA          0000000180048120     libucrt:tzset.obj
 0003:00002130       ?tz_info@@3U_TIME_ZONE_INFORMATION@@A 0000000180048130     libucrt:tzset.obj
 0003:000021dc       ?first_time@?1??__tzset@@9@4JA 00000001800481dc     libucrt:tzset.obj
 0003:00002268       ?key@@3U_cairo_user_data_key@@A 0000000180048268     FontFace.obj
 0004:00000000       $pdata$?FunctionCallbackWrapper@imp@Nan@@YAXAEBV?$FunctionCallbackInfo@VValue@v8@@@v8@@@Z 0000000180049000     Canvas.obj
 0004:0000000c       $pdata$?GetterCallbackWrapper@imp@Nan@@YAXV?$Local@VName@v8@@@v8@@AEBV?$PropertyCallbackInfo@VValue@v8@@@4@@Z 000000018004900c     Canvas.obj
 0004:00000018       $pdata$?SetterCallbackWrapper@imp@Nan@@YAXV?$Local@VName@v8@@@v8@@V?$Local@VValue@v8@@@4@AEBV?$PropertyCallbackInfo@X@4@@Z 0000000180049018     Canvas.obj
 0004:00000024       $pdata$?New@?$Factory@VFunctionTemplate@v8@@@imp@Nan@@SA?AV?$Local@VFunctionTemplate@v8@@@v8@@P6AXAEBV?$FunctionCallbackInfo@VValue@v8@@@3@@ZV?$Local@VValue@v8@@@5@V?$Local@VSignature@v8@@@5@@Z 0000000180049024     Canvas.obj
 0004:00000030       $pdata$??1AsyncResource@Nan@@QEAA@XZ 0000000180049030     Canvas.obj
 0004:0000003c       $pdata$?ThrowRangeError@Nan@@YAXPEBD@Z 000000018004903c     Canvas.obj
 0004:00000048       $pdata$?ThrowTypeError@Nan@@YAXPEBD@Z 0000000180049048     Canvas.obj
 0004:00000054       $pdata$?MakeCallback@Nan@@YA?AV?$Local@VValue@v8@@@v8@@V?$Local@VObject@v8@@@3@V?$Local@VFunction@v8@@@3@HPEAV23@@Z 0000000180049054     Canvas.obj
 0004:00000060       $pdata$?Call@Callback@Nan@@QEBA?AV?$Local@VValue@v8@@@v8@@HQEAV34@@Z 0000000180049060     Canvas.obj
 0004:0000006c       $pdata$??_GCallback@Nan@@QEAAPEAXI@Z 000000018004906c     Canvas.obj
 0004:00000078       $pdata$?SetPrototypeMethod@Nan@@YAXV?$Local@VFunctionTemplate@v8@@@v8@@PEBDP6AXAEBV?$FunctionCallbackInfo@VValue@v8@@@1@@Z@Z 0000000180049078     Canvas.obj
 0004:00000084       $pdata$?SetAccessor@Nan@@YAXV?$Local@VObjectTemplate@v8@@@v8@@V?$Local@VString@v8@@@3@P6AX1AEBV?$PropertyCallbackInfo@VValue@v8@@@1@@ZP6AX1V?$Local@VValue@v8@@@3@AEBV?$PropertyCallbackInfo@X@1@@Z4W4AccessControl@3@W4PropertyAttribute@3@V?$Local@VAccessorSignature@v8@@@3@@Z 0000000180049084     Canvas.obj
 0004:00000090       $pdata$??1ObjectWrap@Nan@@UEAA@XZ 0000000180049090     Canvas.obj
 0004:0000009c       $pdata$?Wrap@ObjectWrap@Nan@@IEAAXV?$Local@VObject@v8@@@v8@@@Z 000000018004909c     Canvas.obj
 0004:000000a8       $pdata$?Ref@ObjectWrap@Nan@@MEAAXXZ 00000001800490a8     Canvas.obj
 0004:000000b4       $pdata$?Unref@ObjectWrap@Nan@@MEAAXXZ 00000001800490b4     Canvas.obj
 0004:000000c0       $pdata$?WeakCallback@ObjectWrap@Nan@@CAXAEBV?$WeakCallbackInfo@VObjectWrap@Nan@@@v8@@@Z 00000001800490c0     Canvas.obj
 0004:000000cc       $pdata$??_GObjectWrap@Nan@@UEAAPEAXI@Z 00000001800490cc     Canvas.obj
 0004:000000d8       $pdata$?closure_init@@YA?AW4_cairo_status@@PEAUclosure_t@@PEAVCanvas@@II@Z 00000001800490d8     Canvas.obj
 0004:000000e4       $pdata$?closure_destroy@@YAXPEAUclosure_t@@@Z 00000001800490e4     Canvas.obj
 0004:000000f0       $pdata$0$?closure_destroy@@YAXPEAUclosure_t@@@Z 00000001800490f0     Canvas.obj
 0004:000000fc       $pdata$1$?closure_destroy@@YAXPEAUclosure_t@@@Z 00000001800490fc     Canvas.obj
 0004:00000108       $pdata$2$?closure_destroy@@YAXPEAUclosure_t@@@Z 0000000180049108     Canvas.obj
 0004:00000114       $pdata$3$?closure_destroy@@YAXPEAUclosure_t@@@Z 0000000180049114     Canvas.obj
 0004:00000120       $pdata$?canvas_unpremultiply_data@@YAXPEAUpng_struct_def@@PEAUpng_row_info_struct@@PEAE@Z 0000000180049120     Canvas.obj
 0004:0000012c       $pdata$1$?canvas_unpremultiply_data@@YAXPEAUpng_struct_def@@PEAUpng_row_info_struct@@PEAE@Z 000000018004912c     Canvas.obj
 0004:00000138       $pdata$2$?canvas_unpremultiply_data@@YAXPEAUpng_struct_def@@PEAUpng_row_info_struct@@PEAE@Z 0000000180049138     Canvas.obj
 0004:00000144       $pdata$?canvas_write_png@@YA?AW4_cairo_status@@PEAU_cairo_surface@@P6AXPEAUpng_struct_def@@PEAE_K@ZPEAX@Z 0000000180049144     Canvas.obj
 0004:00000150       $pdata$?canvas_stream_write_func@@YAXPEAUpng_struct_def@@PEAE_K@Z 0000000180049150     Canvas.obj
 0004:0000015c       $pdata$?empty_closure_output_buffer@@YAEPEAUjpeg_compress_struct@@@Z 000000018004915c     Canvas.obj
 0004:00000168       $pdata$?term_closure_destination@@YAXPEAUjpeg_compress_struct@@@Z 0000000180049168     Canvas.obj
 0004:00000174       $pdata$?write_to_jpeg_stream@@YAXPEAU_cairo_surface@@HH_NPEAUclosure_t@@@Z 0000000180049174     Canvas.obj
 0004:00000180       $pdata$?Initialize@Canvas@@SAXV?$Local@VObject@v8@@@v8@@@Z 0000000180049180     Canvas.obj
 0004:0000018c       $pdata$?New@Canvas@@SAXAEBV?$FunctionCallbackInfo@VValue@v8@@@Nan@@@Z 000000018004918c     Canvas.obj
 0004:00000198       $pdata$?GetType@Canvas@@SAXV?$Local@VString@v8@@@v8@@AEBV?$PropertyCallbackInfo@VValue@v8@@@Nan@@@Z 0000000180049198     Canvas.obj
 0004:000001a4       $pdata$?GetStride@Canvas@@SAXV?$Local@VString@v8@@@v8@@AEBV?$PropertyCallbackInfo@VValue@v8@@@Nan@@@Z 00000001800491a4     Canvas.obj
 0004:000001b0       $pdata$?GetWidth@Canvas@@SAXV?$Local@VString@v8@@@v8@@AEBV?$PropertyCallbackInfo@VValue@v8@@@Nan@@@Z 00000001800491b0     Canvas.obj
 0004:000001b0       $pdata$?GetWidth@ImageData@@SAXV?$Local@VString@v8@@@v8@@AEBV?$PropertyCallbackInfo@VValue@v8@@@Nan@@@Z 00000001800491b0     ImageData.obj
 0004:000001bc       $pdata$?SetWidth@Canvas@@SAXV?$Local@VString@v8@@@v8@@V?$Local@VValue@v8@@@3@AEBV?$PropertyCallbackInfo@X@Nan@@@Z 00000001800491bc     Canvas.obj
 0004:000001c8       $pdata$0$?SetWidth@Canvas@@SAXV?$Local@VString@v8@@@v8@@V?$Local@VValue@v8@@@3@AEBV?$PropertyCallbackInfo@X@Nan@@@Z 00000001800491c8     Canvas.obj
 0004:000001d4       $pdata$1$?SetWidth@Canvas@@SAXV?$Local@VString@v8@@@v8@@V?$Local@VValue@v8@@@3@AEBV?$PropertyCallbackInfo@X@Nan@@@Z 00000001800491d4     Canvas.obj
 0004:000001e0       $pdata$?GetHeight@ImageData@@SAXV?$Local@VString@v8@@@v8@@AEBV?$PropertyCallbackInfo@VValue@v8@@@Nan@@@Z 00000001800491e0     ImageData.obj
 0004:000001e0       $pdata$?GetHeight@Canvas@@SAXV?$Local@VString@v8@@@v8@@AEBV?$PropertyCallbackInfo@VValue@v8@@@Nan@@@Z 00000001800491e0     Canvas.obj
 0004:000001ec       $pdata$?SetHeight@Canvas@@SAXV?$Local@VString@v8@@@v8@@V?$Local@VValue@v8@@@3@AEBV?$PropertyCallbackInfo@X@Nan@@@Z 00000001800491ec     Canvas.obj
 0004:000001f8       $pdata$0$?SetHeight@Canvas@@SAXV?$Local@VString@v8@@@v8@@V?$Local@VValue@v8@@@3@AEBV?$PropertyCallbackInfo@X@Nan@@@Z 00000001800491f8     Canvas.obj
 0004:00000204       $pdata$1$?SetHeight@Canvas@@SAXV?$Local@VString@v8@@@v8@@V?$Local@VValue@v8@@@3@AEBV?$PropertyCallbackInfo@X@Nan@@@Z 0000000180049204     Canvas.obj
 0004:00000210       $pdata$?toBuffer@@YA?AW4_cairo_status@@PEAXPEBEI@Z 0000000180049210     Canvas.obj
 0004:0000021c       $pdata$?ToBufferAsync@Canvas@@SAXPEAUuv_work_s@@@Z 000000018004921c     Canvas.obj
 0004:00000228       $pdata$?ToBufferAsyncAfter@Canvas@@SAXPEAUuv_work_s@@@Z 0000000180049228     Canvas.obj
 0004:00000234       $pdata$?ToBuffer@Canvas@@SAXAEBV?$FunctionCallbackInfo@VValue@v8@@@Nan@@@Z 0000000180049234     Canvas.obj
 0004:00000240       $pdata$?streamPNG@@YA?AW4_cairo_status@@PEAXPEBEI@Z 0000000180049240     Canvas.obj
 0004:0000024c       $pdata$?StreamPNGSync@Canvas@@SAXAEBV?$FunctionCallbackInfo@VValue@v8@@@Nan@@@Z 000000018004924c     Canvas.obj
 0004:00000258       $pdata$?StreamPDFSync@Canvas@@SAXAEBV?$FunctionCallbackInfo@VValue@v8@@@Nan@@@Z 0000000180049258     Canvas.obj
 0004:00000264       $pdata$?StreamJPEGSync@Canvas@@SAXAEBV?$FunctionCallbackInfo@VValue@v8@@@Nan@@@Z 0000000180049264     Canvas.obj
 0004:00000270       $pdata$??0Canvas@@QEAA@HHW4canvas_type_t@@@Z 0000000180049270     Canvas.obj
 0004:0000027c       $pdata$??_GCanvas@@EEAAPEAXI@Z 000000018004927c     Canvas.obj
 0004:00000288       $pdata$?resurface@Canvas@@QEAAXV?$Local@VObject@v8@@@v8@@@Z 0000000180049288     Canvas.obj
 0004:00000294       $pdata$??$Unwrap@VGradient@@@ObjectWrap@Nan@@SAPEAVGradient@@V?$Local@VObject@v8@@@v8@@@Z 0000000180049294     CanvasGradient.obj
 0004:00000294       $pdata$??$Unwrap@VPattern@@@ObjectWrap@Nan@@SAPEAVPattern@@V?$Local@VObject@v8@@@v8@@@Z 0000000180049294     CanvasRenderingContext2d.obj
 0004:00000294       $pdata$??$Unwrap@VImageData@@@ObjectWrap@Nan@@SAPEAVImageData@@V?$Local@VObject@v8@@@v8@@@Z 0000000180049294     CanvasRenderingContext2d.obj
 0004:00000294       $pdata$??$Unwrap@VContext2d@@@ObjectWrap@Nan@@SAPEAVContext2d@@V?$Local@VObject@v8@@@v8@@@Z 0000000180049294     Canvas.obj
 0004:00000294       $pdata$??$Unwrap@VImage@@@ObjectWrap@Nan@@SAPEAVImage@@V?$Local@VObject@v8@@@v8@@@Z 0000000180049294     CanvasPattern.obj
 0004:00000294       $pdata$??$Unwrap@VCanvas@@@ObjectWrap@Nan@@SAPEAVCanvas@@V?$Local@VObject@v8@@@v8@@@Z 0000000180049294     Canvas.obj
 0004:000002a0       $pdata$?Initialize@Gradient@@SAXV?$Local@VObject@v8@@@v8@@@Z 00000001800492a0     CanvasGradient.obj
 0004:000002ac       $pdata$?New@Gradient@@SAXAEBV?$FunctionCallbackInfo@VValue@v8@@@Nan@@@Z 00000001800492ac     CanvasGradient.obj
 0004:000002b8       $pdata$?AddColorStop@Gradient@@SAXAEBV?$FunctionCallbackInfo@VValue@v8@@@Nan@@@Z 00000001800492b8     CanvasGradient.obj
 0004:000002c4       $pdata$??_GGradient@@EEAAPEAXI@Z 00000001800492c4     CanvasGradient.obj
 0004:000002c4       $pdata$??_GPattern@@EEAAPEAXI@Z 00000001800492c4     CanvasPattern.obj
 0004:000002d0       $pdata$?ThrowError@Nan@@YAXPEBD@Z 00000001800492d0     CanvasPattern.obj
 0004:000002dc       $pdata$?Initialize@Pattern@@SAXV?$Local@VObject@v8@@@v8@@@Z 00000001800492dc     CanvasPattern.obj
 0004:000002e8       $pdata$?New@Pattern@@SAXAEBV?$FunctionCallbackInfo@VValue@v8@@@Nan@@@Z 00000001800492e8     CanvasPattern.obj
 0004:000002f4       $pdata$1$?New@Pattern@@SAXAEBV?$FunctionCallbackInfo@VValue@v8@@@Nan@@@Z 00000001800492f4     CanvasPattern.obj
 0004:00000300       $pdata$3$?New@Pattern@@SAXAEBV?$FunctionCallbackInfo@VValue@v8@@@Nan@@@Z 0000000180049300     CanvasPattern.obj
 0004:0000030c       $pdata$5$?New@Pattern@@SAXAEBV?$FunctionCallbackInfo@VValue@v8@@@Nan@@@Z 000000018004930c     CanvasPattern.obj
 0004:00000318       $pdata$7$?New@Pattern@@SAXAEBV?$FunctionCallbackInfo@VValue@v8@@@Nan@@@Z 0000000180049318     CanvasPattern.obj
 0004:00000324       $pdata$?Initialize@Context2d@@SAXV?$Local@VObject@v8@@@v8@@@Z 0000000180049324     CanvasRenderingContext2d.obj
 0004:00000330       $pdata$??_GContext2d@@EEAAPEAXI@Z 0000000180049330     CanvasRenderingContext2d.obj
 0004:0000033c       $pdata$?savePath@Context2d@@QEAAXXZ 000000018004933c     CanvasRenderingContext2d.obj
 0004:00000348       $pdata$?restorePath@Context2d@@QEAAXXZ 0000000180049348     CanvasRenderingContext2d.obj
 0004:00000354       $pdata$?setFillRule@Context2d@@QEAAXV?$Local@VValue@v8@@@v8@@@Z 0000000180049354     CanvasRenderingContext2d.obj
 0004:00000360       $pdata$0$?setFillRule@Context2d@@QEAAXV?$Local@VValue@v8@@@v8@@@Z 0000000180049360     CanvasRenderingContext2d.obj
 0004:0000036c       $pdata$1$?setFillRule@Context2d@@QEAAXV?$Local@VValue@v8@@@v8@@@Z 000000018004936c     CanvasRenderingContext2d.obj
 0004:00000378       $pdata$?fill@Context2d@@QEAAX_N@Z 0000000180049378     CanvasRenderingContext2d.obj
 0004:00000384       $pdata$?stroke@Context2d@@QEAAX_N@Z 0000000180049384     CanvasRenderingContext2d.obj
 0004:00000390       $pdata$?shadow@Context2d@@QEAAXP6AXPEAU_cairo@@@Z@Z 0000000180049390     CanvasRenderingContext2d.obj
 0004:0000039c       $pdata$3$?shadow@Context2d@@QEAAXP6AXPEAU_cairo@@@Z@Z 000000018004939c     CanvasRenderingContext2d.obj
 0004:000003a8       $pdata$4$?shadow@Context2d@@QEAAXP6AXPEAU_cairo@@@Z@Z 00000001800493a8     CanvasRenderingContext2d.obj
 0004:000003b4       $pdata$?blur@Context2d@@QEAAXPEAU_cairo_surface@@H@Z 00000001800493b4     CanvasRenderingContext2d.obj
 0004:000003c0       $pdata$?New@Context2d@@SAXAEBV?$FunctionCallbackInfo@VValue@v8@@@Nan@@@Z 00000001800493c0     CanvasRenderingContext2d.obj
 0004:000003cc       $pdata$1$?New@Context2d@@SAXAEBV?$FunctionCallbackInfo@VValue@v8@@@Nan@@@Z 00000001800493cc     CanvasRenderingContext2d.obj
 0004:000003d8       $pdata$3$?New@Context2d@@SAXAEBV?$FunctionCallbackInfo@VValue@v8@@@Nan@@@Z 00000001800493d8     CanvasRenderingContext2d.obj
 0004:000003e4       $pdata$4$?New@Context2d@@SAXAEBV?$FunctionCallbackInfo@VValue@v8@@@Nan@@@Z 00000001800493e4     CanvasRenderingContext2d.obj
 0004:000003f0       $pdata$5$?New@Context2d@@SAXAEBV?$FunctionCallbackInfo@VValue@v8@@@Nan@@@Z 00000001800493f0     CanvasRenderingContext2d.obj
 0004:000003fc       $pdata$7$?New@Context2d@@SAXAEBV?$FunctionCallbackInfo@VValue@v8@@@Nan@@@Z 00000001800493fc     CanvasRenderingContext2d.obj
 0004:00000408       $pdata$?AddPage@Context2d@@SAXAEBV?$FunctionCallbackInfo@VValue@v8@@@Nan@@@Z 0000000180049408     CanvasRenderingContext2d.obj
 0004:00000414       $pdata$?PutImageData@Context2d@@SAXAEBV?$FunctionCallbackInfo@VValue@v8@@@Nan@@@Z 0000000180049414     CanvasRenderingContext2d.obj
 0004:00000420       $pdata$0$?PutImageData@Context2d@@SAXAEBV?$FunctionCallbackInfo@VValue@v8@@@Nan@@@Z 0000000180049420     CanvasRenderingContext2d.obj
 0004:0000042c       $pdata$8$?PutImageData@Context2d@@SAXAEBV?$FunctionCallbackInfo@VValue@v8@@@Nan@@@Z 000000018004942c     CanvasRenderingContext2d.obj
 0004:00000438       $pdata$?GetImageData@Context2d@@SAXAEBV?$FunctionCallbackInfo@VValue@v8@@@Nan@@@Z 0000000180049438     CanvasRenderingContext2d.obj
 0004:00000444       $pdata$?DrawImage@Context2d@@SAXAEBV?$FunctionCallbackInfo@VValue@v8@@@Nan@@@Z 0000000180049444     CanvasRenderingContext2d.obj
 0004:00000450       $pdata$3$?DrawImage@Context2d@@SAXAEBV?$FunctionCallbackInfo@VValue@v8@@@Nan@@@Z 0000000180049450     CanvasRenderingContext2d.obj
 0004:0000045c       $pdata$11$?DrawImage@Context2d@@SAXAEBV?$FunctionCallbackInfo@VValue@v8@@@Nan@@@Z 000000018004945c     CanvasRenderingContext2d.obj
 0004:00000468       $pdata$12$?DrawImage@Context2d@@SAXAEBV?$FunctionCallbackInfo@VValue@v8@@@Nan@@@Z 0000000180049468     CanvasRenderingContext2d.obj
 0004:00000474       $pdata$14$?DrawImage@Context2d@@SAXAEBV?$FunctionCallbackInfo@VValue@v8@@@Nan@@@Z 0000000180049474     CanvasRenderingContext2d.obj
 0004:00000480       $pdata$17$?DrawImage@Context2d@@SAXAEBV?$FunctionCallbackInfo@VValue@v8@@@Nan@@@Z 0000000180049480     CanvasRenderingContext2d.obj
 0004:0000048c       $pdata$19$?DrawImage@Context2d@@SAXAEBV?$FunctionCallbackInfo@VValue@v8@@@Nan@@@Z 000000018004948c     CanvasRenderingContext2d.obj
 0004:00000498       $pdata$?GetGlobalAlpha@Context2d@@SAXV?$Local@VString@v8@@@v8@@AEBV?$PropertyCallbackInfo@VValue@v8@@@Nan@@@Z 0000000180049498     CanvasRenderingContext2d.obj
 0004:000004a4       $pdata$?SetGlobalAlpha@Context2d@@SAXV?$Local@VString@v8@@@v8@@V?$Local@VValue@v8@@@3@AEBV?$PropertyCallbackInfo@X@Nan@@@Z 00000001800494a4     CanvasRenderingContext2d.obj
 0004:000004b0       $pdata$?GetGlobalCompositeOperation@Context2d@@SAXV?$Local@VString@v8@@@v8@@AEBV?$PropertyCallbackInfo@VValue@v8@@@Nan@@@Z 00000001800494b0     CanvasRenderingContext2d.obj
 0004:000004bc       $pdata$?SetPatternQuality@Context2d@@SAXV?$Local@VString@v8@@@v8@@V?$Local@VValue@v8@@@3@AEBV?$PropertyCallbackInfo@X@Nan@@@Z 00000001800494bc     CanvasRenderingContext2d.obj
 0004:000004c8       $pdata$?GetPatternQuality@Context2d@@SAXV?$Local@VString@v8@@@v8@@AEBV?$PropertyCallbackInfo@VValue@v8@@@Nan@@@Z 00000001800494c8     CanvasRenderingContext2d.obj
 0004:000004d4       $pdata$?SetGlobalCompositeOperation@Context2d@@SAXV?$Local@VString@v8@@@v8@@V?$Local@VValue@v8@@@3@AEBV?$PropertyCallbackInfo@X@Nan@@@Z 00000001800494d4     CanvasRenderingContext2d.obj
 0004:000004e0       $pdata$?GetShadowOffsetX@Context2d@@SAXV?$Local@VString@v8@@@v8@@AEBV?$PropertyCallbackInfo@VValue@v8@@@Nan@@@Z 00000001800494e0     CanvasRenderingContext2d.obj
 0004:000004ec       $pdata$?SetShadowOffsetX@Context2d@@SAXV?$Local@VString@v8@@@v8@@V?$Local@VValue@v8@@@3@AEBV?$PropertyCallbackInfo@X@Nan@@@Z 00000001800494ec     CanvasRenderingContext2d.obj
 0004:000004f8       $pdata$?GetShadowOffsetY@Context2d@@SAXV?$Local@VString@v8@@@v8@@AEBV?$PropertyCallbackInfo@VValue@v8@@@Nan@@@Z 00000001800494f8     CanvasRenderingContext2d.obj
 0004:00000504       $pdata$?SetShadowOffsetY@Context2d@@SAXV?$Local@VString@v8@@@v8@@V?$Local@VValue@v8@@@3@AEBV?$PropertyCallbackInfo@X@Nan@@@Z 0000000180049504     CanvasRenderingContext2d.obj
 0004:00000510       $pdata$?GetShadowBlur@Context2d@@SAXV?$Local@VString@v8@@@v8@@AEBV?$PropertyCallbackInfo@VValue@v8@@@Nan@@@Z 0000000180049510     CanvasRenderingContext2d.obj
 0004:0000051c       $pdata$?SetShadowBlur@Context2d@@SAXV?$Local@VString@v8@@@v8@@V?$Local@VValue@v8@@@3@AEBV?$PropertyCallbackInfo@X@Nan@@@Z 000000018004951c     CanvasRenderingContext2d.obj
 0004:00000528       $pdata$?GetAntiAlias@Context2d@@SAXV?$Local@VString@v8@@@v8@@AEBV?$PropertyCallbackInfo@VValue@v8@@@Nan@@@Z 0000000180049528     CanvasRenderingContext2d.obj
 0004:00000534       $pdata$?SetAntiAlias@Context2d@@SAXV?$Local@VString@v8@@@v8@@V?$Local@VValue@v8@@@3@AEBV?$PropertyCallbackInfo@X@Nan@@@Z 0000000180049534     CanvasRenderingContext2d.obj
 0004:00000540       $pdata$?GetTextDrawingMode@Context2d@@SAXV?$Local@VString@v8@@@v8@@AEBV?$PropertyCallbackInfo@VValue@v8@@@Nan@@@Z 0000000180049540     CanvasRenderingContext2d.obj
 0004:0000054c       $pdata$?SetTextDrawingMode@Context2d@@SAXV?$Local@VString@v8@@@v8@@V?$Local@VValue@v8@@@3@AEBV?$PropertyCallbackInfo@X@Nan@@@Z 000000018004954c     CanvasRenderingContext2d.obj
 0004:00000558       $pdata$?GetFilter@Context2d@@SAXV?$Local@VString@v8@@@v8@@AEBV?$PropertyCallbackInfo@VValue@v8@@@Nan@@@Z 0000000180049558     CanvasRenderingContext2d.obj
 0004:00000564       $pdata$?SetFilter@Context2d@@SAXV?$Local@VString@v8@@@v8@@V?$Local@VValue@v8@@@3@AEBV?$PropertyCallbackInfo@X@Nan@@@Z 0000000180049564     CanvasRenderingContext2d.obj
 0004:00000570       $pdata$?GetMiterLimit@Context2d@@SAXV?$Local@VString@v8@@@v8@@AEBV?$PropertyCallbackInfo@VValue@v8@@@Nan@@@Z 0000000180049570     CanvasRenderingContext2d.obj
 0004:0000057c       $pdata$?SetMiterLimit@Context2d@@SAXV?$Local@VString@v8@@@v8@@V?$Local@VValue@v8@@@3@AEBV?$PropertyCallbackInfo@X@Nan@@@Z 000000018004957c     CanvasRenderingContext2d.obj
 0004:00000588       $pdata$?GetLineWidth@Context2d@@SAXV?$Local@VString@v8@@@v8@@AEBV?$PropertyCallbackInfo@VValue@v8@@@Nan@@@Z 0000000180049588     CanvasRenderingContext2d.obj
 0004:00000594       $pdata$?SetLineWidth@Context2d@@SAXV?$Local@VString@v8@@@v8@@V?$Local@VValue@v8@@@3@AEBV?$PropertyCallbackInfo@X@Nan@@@Z 0000000180049594     CanvasRenderingContext2d.obj
 0004:000005a0       $pdata$?GetLineJoin@Context2d@@SAXV?$Local@VString@v8@@@v8@@AEBV?$PropertyCallbackInfo@VValue@v8@@@Nan@@@Z 00000001800495a0     CanvasRenderingContext2d.obj
 0004:000005ac       $pdata$?SetLineJoin@Context2d@@SAXV?$Local@VString@v8@@@v8@@V?$Local@VValue@v8@@@3@AEBV?$PropertyCallbackInfo@X@Nan@@@Z 00000001800495ac     CanvasRenderingContext2d.obj
 0004:000005b8       $pdata$?GetLineCap@Context2d@@SAXV?$Local@VString@v8@@@v8@@AEBV?$PropertyCallbackInfo@VValue@v8@@@Nan@@@Z 00000001800495b8     CanvasRenderingContext2d.obj
 0004:000005c4       $pdata$?SetLineCap@Context2d@@SAXV?$Local@VString@v8@@@v8@@V?$Local@VValue@v8@@@3@AEBV?$PropertyCallbackInfo@X@Nan@@@Z 00000001800495c4     CanvasRenderingContext2d.obj
 0004:000005d0       $pdata$?IsPointInPath@Context2d@@SAXAEBV?$FunctionCallbackInfo@VValue@v8@@@Nan@@@Z 00000001800495d0     CanvasRenderingContext2d.obj
 0004:000005dc       $pdata$3$?IsPointInPath@Context2d@@SAXAEBV?$FunctionCallbackInfo@VValue@v8@@@Nan@@@Z 00000001800495dc     CanvasRenderingContext2d.obj
 0004:000005e8       $pdata$4$?IsPointInPath@Context2d@@SAXAEBV?$FunctionCallbackInfo@VValue@v8@@@Nan@@@Z 00000001800495e8     CanvasRenderingContext2d.obj
 0004:000005f4       $pdata$?SetFillPattern@Context2d@@SAXAEBV?$FunctionCallbackInfo@VValue@v8@@@Nan@@@Z 00000001800495f4     CanvasRenderingContext2d.obj
 0004:00000600       $pdata$?SetStrokePattern@Context2d@@SAXAEBV?$FunctionCallbackInfo@VValue@v8@@@Nan@@@Z 0000000180049600     CanvasRenderingContext2d.obj
 0004:0000060c       $pdata$?SetShadowColor@Context2d@@SAXV?$Local@VString@v8@@@v8@@V?$Local@VValue@v8@@@3@AEBV?$PropertyCallbackInfo@X@Nan@@@Z 000000018004960c     CanvasRenderingContext2d.obj
 0004:00000618       $pdata$?GetShadowColor@Context2d@@SAXV?$Local@VString@v8@@@v8@@AEBV?$PropertyCallbackInfo@VValue@v8@@@Nan@@@Z 0000000180049618     CanvasRenderingContext2d.obj
 0004:00000624       $pdata$?SetFillColor@Context2d@@SAXAEBV?$FunctionCallbackInfo@VValue@v8@@@Nan@@@Z 0000000180049624     CanvasRenderingContext2d.obj
 0004:00000630       $pdata$?GetFillColor@Context2d@@SAXV?$Local@VString@v8@@@v8@@AEBV?$PropertyCallbackInfo@VValue@v8@@@Nan@@@Z 0000000180049630     CanvasRenderingContext2d.obj
 0004:0000063c       $pdata$?SetStrokeColor@Context2d@@SAXAEBV?$FunctionCallbackInfo@VValue@v8@@@Nan@@@Z 000000018004963c     CanvasRenderingContext2d.obj
 0004:00000648       $pdata$?GetStrokeColor@Context2d@@SAXV?$Local@VString@v8@@@v8@@AEBV?$PropertyCallbackInfo@VValue@v8@@@Nan@@@Z 0000000180049648     CanvasRenderingContext2d.obj
 0004:00000654       $pdata$?BezierCurveTo@Context2d@@SAXAEBV?$FunctionCallbackInfo@VValue@v8@@@Nan@@@Z 0000000180049654     CanvasRenderingContext2d.obj
 0004:00000660       $pdata$9$?BezierCurveTo@Context2d@@SAXAEBV?$FunctionCallbackInfo@VValue@v8@@@Nan@@@Z 0000000180049660     CanvasRenderingContext2d.obj
 0004:0000066c       $pdata$10$?BezierCurveTo@Context2d@@SAXAEBV?$FunctionCallbackInfo@VValue@v8@@@Nan@@@Z 000000018004966c     CanvasRenderingContext2d.obj
 0004:00000678       $pdata$?QuadraticCurveTo@Context2d@@SAXAEBV?$FunctionCallbackInfo@VValue@v8@@@Nan@@@Z 0000000180049678     CanvasRenderingContext2d.obj
 0004:00000684       $pdata$4$?QuadraticCurveTo@Context2d@@SAXAEBV?$FunctionCallbackInfo@VValue@v8@@@Nan@@@Z 0000000180049684     CanvasRenderingContext2d.obj
 0004:00000690       $pdata$5$?QuadraticCurveTo@Context2d@@SAXAEBV?$FunctionCallbackInfo@VValue@v8@@@Nan@@@Z 0000000180049690     CanvasRenderingContext2d.obj
 0004:0000069c       $pdata$?Save@Context2d@@SAXAEBV?$FunctionCallbackInfo@VValue@v8@@@Nan@@@Z 000000018004969c     CanvasRenderingContext2d.obj
 0004:000006a8       $pdata$?Restore@Context2d@@SAXAEBV?$FunctionCallbackInfo@VValue@v8@@@Nan@@@Z 00000001800496a8     CanvasRenderingContext2d.obj
 0004:000006b4       $pdata$?BeginPath@Context2d@@SAXAEBV?$FunctionCallbackInfo@VValue@v8@@@Nan@@@Z 00000001800496b4     CanvasRenderingContext2d.obj
 0004:000006c0       $pdata$?ClosePath@Context2d@@SAXAEBV?$FunctionCallbackInfo@VValue@v8@@@Nan@@@Z 00000001800496c0     CanvasRenderingContext2d.obj
 0004:000006cc       $pdata$?Rotate@Context2d@@SAXAEBV?$FunctionCallbackInfo@VValue@v8@@@Nan@@@Z 00000001800496cc     CanvasRenderingContext2d.obj
 0004:000006d8       $pdata$?Transform@Context2d@@SAXAEBV?$FunctionCallbackInfo@VValue@v8@@@Nan@@@Z 00000001800496d8     CanvasRenderingContext2d.obj
 0004:000006e4       $pdata$?ResetTransform@Context2d@@SAXAEBV?$FunctionCallbackInfo@VValue@v8@@@Nan@@@Z 00000001800496e4     CanvasRenderingContext2d.obj
 0004:000006f0       $pdata$?Translate@Context2d@@SAXAEBV?$FunctionCallbackInfo@VValue@v8@@@Nan@@@Z 00000001800496f0     CanvasRenderingContext2d.obj
 0004:000006fc       $pdata$?Scale@Context2d@@SAXAEBV?$FunctionCallbackInfo@VValue@v8@@@Nan@@@Z 00000001800496fc     CanvasRenderingContext2d.obj
 0004:00000708       $pdata$?Clip@Context2d@@SAXAEBV?$FunctionCallbackInfo@VValue@v8@@@Nan@@@Z 0000000180049708     CanvasRenderingContext2d.obj
 0004:00000714       $pdata$?Fill@Context2d@@SAXAEBV?$FunctionCallbackInfo@VValue@v8@@@Nan@@@Z 0000000180049714     CanvasRenderingContext2d.obj
 0004:00000720       $pdata$?Stroke@Context2d@@SAXAEBV?$FunctionCallbackInfo@VValue@v8@@@Nan@@@Z 0000000180049720     CanvasRenderingContext2d.obj
 0004:0000072c       $pdata$?FillText@Context2d@@SAXAEBV?$FunctionCallbackInfo@VValue@v8@@@Nan@@@Z 000000018004972c     CanvasRenderingContext2d.obj
 0004:00000738       $pdata$?StrokeText@Context2d@@SAXAEBV?$FunctionCallbackInfo@VValue@v8@@@Nan@@@Z 0000000180049738     CanvasRenderingContext2d.obj
 0004:00000744       $pdata$?setTextPath@Context2d@@QEAAXPEBDNN@Z 0000000180049744     CanvasRenderingContext2d.obj
 0004:00000750       $pdata$?LineTo@Context2d@@SAXAEBV?$FunctionCallbackInfo@VValue@v8@@@Nan@@@Z 0000000180049750     CanvasRenderingContext2d.obj
 0004:0000075c       $pdata$?MoveTo@Context2d@@SAXAEBV?$FunctionCallbackInfo@VValue@v8@@@Nan@@@Z 000000018004975c     CanvasRenderingContext2d.obj
 0004:00000768       $pdata$?SetFontFace@Context2d@@SAXAEBV?$FunctionCallbackInfo@VValue@v8@@@Nan@@@Z 0000000180049768     CanvasRenderingContext2d.obj
 0004:00000774       $pdata$0$?SetFontFace@Context2d@@SAXAEBV?$FunctionCallbackInfo@VValue@v8@@@Nan@@@Z 0000000180049774     CanvasRenderingContext2d.obj
 0004:00000780       $pdata$4$?SetFontFace@Context2d@@SAXAEBV?$FunctionCallbackInfo@VValue@v8@@@Nan@@@Z 0000000180049780     CanvasRenderingContext2d.obj
 0004:0000078c       $pdata$5$?SetFontFace@Context2d@@SAXAEBV?$FunctionCallbackInfo@VValue@v8@@@Nan@@@Z 000000018004978c     CanvasRenderingContext2d.obj
 0004:00000798       $pdata$?SetFont@Context2d@@SAXAEBV?$FunctionCallbackInfo@VValue@v8@@@Nan@@@Z 0000000180049798     CanvasRenderingContext2d.obj
 0004:000007a4       $pdata$?MeasureText@Context2d@@SAXAEBV?$FunctionCallbackInfo@VValue@v8@@@Nan@@@Z 00000001800497a4     CanvasRenderingContext2d.obj
 0004:000007b0       $pdata$?SetTextBaseline@Context2d@@SAXAEBV?$FunctionCallbackInfo@VValue@v8@@@Nan@@@Z 00000001800497b0     CanvasRenderingContext2d.obj
 0004:000007bc       $pdata$0$?SetTextBaseline@Context2d@@SAXAEBV?$FunctionCallbackInfo@VValue@v8@@@Nan@@@Z 00000001800497bc     CanvasRenderingContext2d.obj
 0004:000007c8       $pdata$1$?SetTextBaseline@Context2d@@SAXAEBV?$FunctionCallbackInfo@VValue@v8@@@Nan@@@Z 00000001800497c8     CanvasRenderingContext2d.obj
 0004:000007d4       $pdata$?SetTextAlignment@Context2d@@SAXAEBV?$FunctionCallbackInfo@VValue@v8@@@Nan@@@Z 00000001800497d4     CanvasRenderingContext2d.obj
 0004:000007e0       $pdata$0$?SetTextAlignment@Context2d@@SAXAEBV?$FunctionCallbackInfo@VValue@v8@@@Nan@@@Z 00000001800497e0     CanvasRenderingContext2d.obj
 0004:000007ec       $pdata$1$?SetTextAlignment@Context2d@@SAXAEBV?$FunctionCallbackInfo@VValue@v8@@@Nan@@@Z 00000001800497ec     CanvasRenderingContext2d.obj
 0004:000007f8       $pdata$?SetLineDash@Context2d@@SAXAEBV?$FunctionCallbackInfo@VValue@v8@@@Nan@@@Z 00000001800497f8     CanvasRenderingContext2d.obj
 0004:00000804       $pdata$?GetLineDash@Context2d@@SAXAEBV?$FunctionCallbackInfo@VValue@v8@@@Nan@@@Z 0000000180049804     CanvasRenderingContext2d.obj
 0004:00000810       $pdata$?SetLineDashOffset@Context2d@@SAXV?$Local@VString@v8@@@v8@@V?$Local@VValue@v8@@@3@AEBV?$PropertyCallbackInfo@X@Nan@@@Z 0000000180049810     CanvasRenderingContext2d.obj
 0004:0000081c       $pdata$3$?SetLineDashOffset@Context2d@@SAXV?$Local@VString@v8@@@v8@@V?$Local@VValue@v8@@@3@AEBV?$PropertyCallbackInfo@X@Nan@@@Z 000000018004981c     CanvasRenderingContext2d.obj
 0004:00000828       $pdata$4$?SetLineDashOffset@Context2d@@SAXV?$Local@VString@v8@@@v8@@V?$Local@VValue@v8@@@3@AEBV?$PropertyCallbackInfo@X@Nan@@@Z 0000000180049828     CanvasRenderingContext2d.obj
 0004:00000834       $pdata$5$?SetLineDashOffset@Context2d@@SAXV?$Local@VString@v8@@@v8@@V?$Local@VValue@v8@@@3@AEBV?$PropertyCallbackInfo@X@Nan@@@Z 0000000180049834     CanvasRenderingContext2d.obj
 0004:00000840       $pdata$?GetLineDashOffset@Context2d@@SAXV?$Local@VString@v8@@@v8@@AEBV?$PropertyCallbackInfo@VValue@v8@@@Nan@@@Z 0000000180049840     CanvasRenderingContext2d.obj
 0004:0000084c       $pdata$?FillRect@Context2d@@SAXAEBV?$FunctionCallbackInfo@VValue@v8@@@Nan@@@Z 000000018004984c     CanvasRenderingContext2d.obj
 0004:00000858       $pdata$3$?FillRect@Context2d@@SAXAEBV?$FunctionCallbackInfo@VValue@v8@@@Nan@@@Z 0000000180049858     CanvasRenderingContext2d.obj
 0004:00000864       $pdata$4$?FillRect@Context2d@@SAXAEBV?$FunctionCallbackInfo@VValue@v8@@@Nan@@@Z 0000000180049864     CanvasRenderingContext2d.obj
 0004:00000870       $pdata$5$?FillRect@Context2d@@SAXAEBV?$FunctionCallbackInfo@VValue@v8@@@Nan@@@Z 0000000180049870     CanvasRenderingContext2d.obj
 0004:0000087c       $pdata$6$?FillRect@Context2d@@SAXAEBV?$FunctionCallbackInfo@VValue@v8@@@Nan@@@Z 000000018004987c     CanvasRenderingContext2d.obj
 0004:00000888       $pdata$?StrokeRect@Context2d@@SAXAEBV?$FunctionCallbackInfo@VValue@v8@@@Nan@@@Z 0000000180049888     CanvasRenderingContext2d.obj
 0004:00000894       $pdata$3$?StrokeRect@Context2d@@SAXAEBV?$FunctionCallbackInfo@VValue@v8@@@Nan@@@Z 0000000180049894     CanvasRenderingContext2d.obj
 0004:000008a0       $pdata$4$?StrokeRect@Context2d@@SAXAEBV?$FunctionCallbackInfo@VValue@v8@@@Nan@@@Z 00000001800498a0     CanvasRenderingContext2d.obj
 0004:000008ac       $pdata$5$?StrokeRect@Context2d@@SAXAEBV?$FunctionCallbackInfo@VValue@v8@@@Nan@@@Z 00000001800498ac     CanvasRenderingContext2d.obj
 0004:000008b8       $pdata$6$?StrokeRect@Context2d@@SAXAEBV?$FunctionCallbackInfo@VValue@v8@@@Nan@@@Z 00000001800498b8     CanvasRenderingContext2d.obj
 0004:000008c4       $pdata$?ClearRect@Context2d@@SAXAEBV?$FunctionCallbackInfo@VValue@v8@@@Nan@@@Z 00000001800498c4     CanvasRenderingContext2d.obj
 0004:000008d0       $pdata$3$?ClearRect@Context2d@@SAXAEBV?$FunctionCallbackInfo@VValue@v8@@@Nan@@@Z 00000001800498d0     CanvasRenderingContext2d.obj
 0004:000008dc       $pdata$4$?ClearRect@Context2d@@SAXAEBV?$FunctionCallbackInfo@VValue@v8@@@Nan@@@Z 00000001800498dc     CanvasRenderingContext2d.obj
 0004:000008e8       $pdata$5$?ClearRect@Context2d@@SAXAEBV?$FunctionCallbackInfo@VValue@v8@@@Nan@@@Z 00000001800498e8     CanvasRenderingContext2d.obj
 0004:000008f4       $pdata$6$?ClearRect@Context2d@@SAXAEBV?$FunctionCallbackInfo@VValue@v8@@@Nan@@@Z 00000001800498f4     CanvasRenderingContext2d.obj
 0004:00000900       $pdata$?Rect@Context2d@@SAXAEBV?$FunctionCallbackInfo@VValue@v8@@@Nan@@@Z 0000000180049900     CanvasRenderingContext2d.obj
 0004:0000090c       $pdata$3$?Rect@Context2d@@SAXAEBV?$FunctionCallbackInfo@VValue@v8@@@Nan@@@Z 000000018004990c     CanvasRenderingContext2d.obj
 0004:00000918       $pdata$4$?Rect@Context2d@@SAXAEBV?$FunctionCallbackInfo@VValue@v8@@@Nan@@@Z 0000000180049918     CanvasRenderingContext2d.obj
 0004:00000924       $pdata$?Arc@Context2d@@SAXAEBV?$FunctionCallbackInfo@VValue@v8@@@Nan@@@Z 0000000180049924     CanvasRenderingContext2d.obj
 0004:00000930       $pdata$7$?Arc@Context2d@@SAXAEBV?$FunctionCallbackInfo@VValue@v8@@@Nan@@@Z 0000000180049930     CanvasRenderingContext2d.obj
 0004:0000093c       $pdata$8$?Arc@Context2d@@SAXAEBV?$FunctionCallbackInfo@VValue@v8@@@Nan@@@Z 000000018004993c     CanvasRenderingContext2d.obj
 0004:00000948       $pdata$?ArcTo@Context2d@@SAXAEBV?$FunctionCallbackInfo@VValue@v8@@@Nan@@@Z 0000000180049948     CanvasRenderingContext2d.obj
 0004:00000954       $pdata$8$?ArcTo@Context2d@@SAXAEBV?$FunctionCallbackInfo@VValue@v8@@@Nan@@@Z 0000000180049954     CanvasRenderingContext2d.obj
 0004:00000960       $pdata$9$?ArcTo@Context2d@@SAXAEBV?$FunctionCallbackInfo@VValue@v8@@@Nan@@@Z 0000000180049960     CanvasRenderingContext2d.obj
 0004:0000096c       $pdata$11$?ArcTo@Context2d@@SAXAEBV?$FunctionCallbackInfo@VValue@v8@@@Nan@@@Z 000000018004996c     CanvasRenderingContext2d.obj
 0004:00000978       $pdata$12$?ArcTo@Context2d@@SAXAEBV?$FunctionCallbackInfo@VValue@v8@@@Nan@@@Z 0000000180049978     CanvasRenderingContext2d.obj
 0004:00000984       $pdata$13$?ArcTo@Context2d@@SAXAEBV?$FunctionCallbackInfo@VValue@v8@@@Nan@@@Z 0000000180049984     CanvasRenderingContext2d.obj
 0004:00000990       $pdata$??1?$vector@NV?$allocator@N@std@@@std@@QEAA@XZ 0000000180049990     CanvasRenderingContext2d.obj
 0004:0000099c       $pdata$??0?$TypedArrayContents@E@Nan@@QEAA@V?$Local@VValue@v8@@@v8@@@Z 000000018004999c     CanvasRenderingContext2d.obj
 0004:000009a8       $pdata$?_Xlength@?$vector@NV?$allocator@N@std@@@std@@CAXXZ 00000001800499a8     CanvasRenderingContext2d.obj
 0004:000009b4       $pdata$snprintf            00000001800499b4     color.obj
 0004:000009c0       $pdata$?rgba_from_hsla@@YAHMMMM@Z 00000001800499c0     color.obj
 0004:000009cc       $pdata$?rgba_from_rgb_string@@YAHPEBDPEAF@Z 00000001800499cc     color.obj
 0004:000009d8       $pdata$0$?rgba_from_rgb_string@@YAHPEBDPEAF@Z 00000001800499d8     color.obj
 0004:000009e4       $pdata$2$?rgba_from_rgb_string@@YAHPEBDPEAF@Z 00000001800499e4     color.obj
 0004:000009f0       $pdata$3$?rgba_from_rgb_string@@YAHPEBDPEAF@Z 00000001800499f0     color.obj
 0004:000009fc       $pdata$?rgba_from_rgba_string@@YAHPEBDPEAF@Z 00000001800499fc     color.obj
 0004:00000a08       $pdata$0$?rgba_from_rgba_string@@YAHPEBDPEAF@Z 0000000180049a08     color.obj
 0004:00000a14       $pdata$2$?rgba_from_rgba_string@@YAHPEBDPEAF@Z 0000000180049a14     color.obj
 0004:00000a20       $pdata$3$?rgba_from_rgba_string@@YAHPEBDPEAF@Z 0000000180049a20     color.obj
 0004:00000a2c       $pdata$?rgba_from_hsla_string@@YAHPEBDPEAF@Z 0000000180049a2c     color.obj
 0004:00000a38       $pdata$2$?rgba_from_hsla_string@@YAHPEBDPEAF@Z 0000000180049a38     color.obj
 0004:00000a44       $pdata$4$?rgba_from_hsla_string@@YAHPEBDPEAF@Z 0000000180049a44     color.obj
 0004:00000a50       $pdata$5$?rgba_from_hsla_string@@YAHPEBDPEAF@Z 0000000180049a50     color.obj
 0004:00000a5c       $pdata$6$?rgba_from_hsla_string@@YAHPEBDPEAF@Z 0000000180049a5c     color.obj
 0004:00000a68       $pdata$?rgba_from_hsl_string@@YAHPEBDPEAF@Z 0000000180049a68     color.obj
 0004:00000a74       $pdata$1$?rgba_from_hsl_string@@YAHPEBDPEAF@Z 0000000180049a74     color.obj
 0004:00000a80       $pdata$3$?rgba_from_hsl_string@@YAHPEBDPEAF@Z 0000000180049a80     color.obj
 0004:00000a8c       $pdata$4$?rgba_from_hsl_string@@YAHPEBDPEAF@Z 0000000180049a8c     color.obj
 0004:00000a98       $pdata$?rgba_from_string@@YAHPEBDPEAF@Z 0000000180049a98     color.obj
 0004:00000aa4       $pdata$??$parse_css_number@M@@YA_NPEAPEBDPEAM@Z 0000000180049aa4     color.obj
 0004:00000ab0       $pdata$2$??$parse_css_number@M@@YA_NPEAPEBDPEAM@Z 0000000180049ab0     color.obj
 0004:00000abc       $pdata$4$??$parse_css_number@M@@YA_NPEAPEBDPEAM@Z 0000000180049abc     color.obj
 0004:00000ac8       $pdata$5$??$parse_css_number@M@@YA_NPEAPEBDPEAM@Z 0000000180049ac8     color.obj
 0004:00000ad4       $pdata$?Initialize@Image@@SAXV?$Local@VObject@v8@@@v8@@@Z 0000000180049ad4     Image.obj
 0004:00000ae0       $pdata$?New@Image@@SAXAEBV?$FunctionCallbackInfo@VValue@v8@@@Nan@@@Z 0000000180049ae0     Image.obj
 0004:00000aec       $pdata$?GetComplete@Image@@SAXV?$Local@VString@v8@@@v8@@AEBV?$PropertyCallbackInfo@VValue@v8@@@Nan@@@Z 0000000180049aec     Image.obj
 0004:00000af8       $pdata$?GetDataMode@Image@@SAXV?$Local@VString@v8@@@v8@@AEBV?$PropertyCallbackInfo@VValue@v8@@@Nan@@@Z 0000000180049af8     Image.obj
 0004:00000b04       $pdata$?SetDataMode@Image@@SAXV?$Local@VString@v8@@@v8@@V?$Local@VValue@v8@@@3@AEBV?$PropertyCallbackInfo@X@Nan@@@Z 0000000180049b04     Image.obj
 0004:00000b10       $pdata$?GetWidth@Image@@SAXV?$Local@VString@v8@@@v8@@AEBV?$PropertyCallbackInfo@VValue@v8@@@Nan@@@Z 0000000180049b10     Image.obj
 0004:00000b1c       $pdata$?GetHeight@Image@@SAXV?$Local@VString@v8@@@v8@@AEBV?$PropertyCallbackInfo@VValue@v8@@@Nan@@@Z 0000000180049b1c     Image.obj
 0004:00000b28       $pdata$?GetSource@Image@@SAXV?$Local@VString@v8@@@v8@@AEBV?$PropertyCallbackInfo@VValue@v8@@@Nan@@@Z 0000000180049b28     Image.obj
 0004:00000b34       $pdata$?clearData@Image@@QEAAXXZ 0000000180049b34     Image.obj
 0004:00000b40       $pdata$0$?clearData@Image@@QEAAXXZ 0000000180049b40     Image.obj
 0004:00000b4c       $pdata$2$?clearData@Image@@QEAAXXZ 0000000180049b4c     Image.obj
 0004:00000b58       $pdata$3$?clearData@Image@@QEAAXXZ 0000000180049b58     Image.obj
 0004:00000b64       $pdata$4$?clearData@Image@@QEAAXXZ 0000000180049b64     Image.obj
 0004:00000b70       $pdata$?SetSource@Image@@SAXV?$Local@VString@v8@@@v8@@V?$Local@VValue@v8@@@3@AEBV?$PropertyCallbackInfo@X@Nan@@@Z 0000000180049b70     Image.obj
 0004:00000b7c       $pdata$?readPNG@Image@@SA?AW4_cairo_status@@PEAXPEAEI@Z 0000000180049b7c     Image.obj
 0004:00000b88       $pdata$?GetOnload@Image@@SAXV?$Local@VString@v8@@@v8@@AEBV?$PropertyCallbackInfo@VValue@v8@@@Nan@@@Z 0000000180049b88     Image.obj
 0004:00000b94       $pdata$?SetOnload@Image@@SAXV?$Local@VString@v8@@@v8@@V?$Local@VValue@v8@@@3@AEBV?$PropertyCallbackInfo@X@Nan@@@Z 0000000180049b94     Image.obj
 0004:00000ba0       $pdata$?GetOnerror@Image@@SAXV?$Local@VString@v8@@@v8@@AEBV?$PropertyCallbackInfo@VValue@v8@@@Nan@@@Z 0000000180049ba0     Image.obj
 0004:00000bac       $pdata$?SetOnerror@Image@@SAXV?$Local@VString@v8@@@v8@@V?$Local@VValue@v8@@@3@AEBV?$PropertyCallbackInfo@X@Nan@@@Z 0000000180049bac     Image.obj
 0004:00000bb8       $pdata$??_GImage@@EEAAPEAXI@Z 0000000180049bb8     Image.obj
 0004:00000bc4       $pdata$?loadSurface@Image@@QEAA?AW4_cairo_status@@XZ 0000000180049bc4     Image.obj
 0004:00000bd0       $pdata$1$?loadSurface@Image@@QEAA?AW4_cairo_status@@XZ 0000000180049bd0     Image.obj
 0004:00000bdc       $pdata$2$?loadSurface@Image@@QEAA?AW4_cairo_status@@XZ 0000000180049bdc     Image.obj
 0004:00000be8       $pdata$4$?loadSurface@Image@@QEAA?AW4_cairo_status@@XZ 0000000180049be8     Image.obj
 0004:00000bf4       $pdata$5$?loadSurface@Image@@QEAA?AW4_cairo_status@@XZ 0000000180049bf4     Image.obj
 0004:00000c00       $pdata$6$?loadSurface@Image@@QEAA?AW4_cairo_status@@XZ 0000000180049c00     Image.obj
 0004:00000c0c       $pdata$?read_gif_from_memory@@YAHPEAUGifFileType@@PEAEH@Z 0000000180049c0c     Image.obj
 0004:00000c18       $pdata$?loadGIFFromBuffer@Image@@QEAA?AW4_cairo_status@@PEAEI@Z 0000000180049c18     Image.obj
 0004:00000c24       $pdata$0$?loadGIFFromBuffer@Image@@QEAA?AW4_cairo_status@@PEAEI@Z 0000000180049c24     Image.obj
 0004:00000c30       $pdata$6$?loadGIFFromBuffer@Image@@QEAA?AW4_cairo_status@@PEAEI@Z 0000000180049c30     Image.obj
 0004:00000c3c       $pdata$2$?loadGIFFromBuffer@Image@@QEAA?AW4_cairo_status@@PEAEI@Z 0000000180049c3c     Image.obj
 0004:00000c48       $pdata$8$?loadGIFFromBuffer@Image@@QEAA?AW4_cairo_status@@PEAEI@Z 0000000180049c48     Image.obj
 0004:00000c54       $pdata$?decodeJPEGIntoSurface@Image@@QEAA?AW4_cairo_status@@PEAUjpeg_decompress_struct@@@Z 0000000180049c54     Image.obj
 0004:00000c60       $pdata$0$?decodeJPEGIntoSurface@Image@@QEAA?AW4_cairo_status@@PEAUjpeg_decompress_struct@@@Z 0000000180049c60     Image.obj
 0004:00000c6c       $pdata$1$?decodeJPEGIntoSurface@Image@@QEAA?AW4_cairo_status@@PEAUjpeg_decompress_struct@@@Z 0000000180049c6c     Image.obj
 0004:00000c78       $pdata$?decodeJPEGBufferIntoMimeSurface@Image@@QEAA?AW4_cairo_status@@PEAEI@Z 0000000180049c78     Image.obj
 0004:00000c84       $pdata$0$?decodeJPEGBufferIntoMimeSurface@Image@@QEAA?AW4_cairo_status@@PEAEI@Z 0000000180049c84     Image.obj
 0004:00000c90       $pdata$1$?decodeJPEGBufferIntoMimeSurface@Image@@QEAA?AW4_cairo_status@@PEAEI@Z 0000000180049c90     Image.obj
 0004:00000c9c       $pdata$?clearMimeData@@YAXPEAX@Z 0000000180049c9c     Image.obj
 0004:00000ca8       $pdata$?assignDataAsMime@Image@@QEAA?AW4_cairo_status@@PEAEHPEBD@Z 0000000180049ca8     Image.obj
 0004:00000cb4       $pdata$0$?assignDataAsMime@Image@@QEAA?AW4_cairo_status@@PEAEHPEBD@Z 0000000180049cb4     Image.obj
 0004:00000cc0       $pdata$1$?assignDataAsMime@Image@@QEAA?AW4_cairo_status@@PEAEHPEBD@Z 0000000180049cc0     Image.obj
 0004:00000ccc       $pdata$2$?assignDataAsMime@Image@@QEAA?AW4_cairo_status@@PEAEHPEBD@Z 0000000180049ccc     Image.obj
 0004:00000cd8       $pdata$3$?assignDataAsMime@Image@@QEAA?AW4_cairo_status@@PEAEHPEBD@Z 0000000180049cd8     Image.obj
 0004:00000ce4       $pdata$?loadJPEGFromBuffer@Image@@QEAA?AW4_cairo_status@@PEAEI@Z 0000000180049ce4     Image.obj
 0004:00000cf0       $pdata$??_GImageData@@UEAAPEAXI@Z 0000000180049cf0     ImageData.obj
 0004:00000cfc       $pdata$?Initialize@ImageData@@SAXV?$Local@VObject@v8@@@v8@@@Z 0000000180049cfc     ImageData.obj
 0004:00000d08       $pdata$?New@ImageData@@SAXAEBV?$FunctionCallbackInfo@VValue@v8@@@Nan@@@Z 0000000180049d08     ImageData.obj
 0004:00000d14       $pdata$?init@@YAXV?$Local@VObject@v8@@@v8@@@Z 0000000180049d14     init.obj
 0004:00000d20       $pdata$??_GFontFace@@EEAAPEAXI@Z 0000000180049d20     FontFace.obj
 0004:00000d2c       $pdata$?New@FontFace@@SAXAEBV?$FunctionCallbackInfo@VValue@v8@@@Nan@@@Z 0000000180049d2c     FontFace.obj
 0004:00000d38       $pdata$?load_exe_hook@@YAP6A_JXZIPEAUDelayLoadInfo@@@Z 0000000180049d38     win_delay_load_hook.obj
 0004:00000d50       $pdata$??0bad_alloc@std@@QEAA@AEBV01@@Z 0000000180049d50     libcpmt:xthrow.obj
 0004:00000d5c       $pdata$??0exception@std@@QEAA@AEBV01@@Z 0000000180049d5c     libcpmt:xthrow.obj
 0004:00000d68       $pdata$??0length_error@std@@QEAA@AEBV01@@Z 0000000180049d68     libcpmt:xthrow.obj
 0004:00000d74       $pdata$??0length_error@std@@QEAA@PEBD@Z 0000000180049d74     libcpmt:xthrow.obj
 0004:00000d80       $pdata$??0logic_error@std@@QEAA@AEBV01@@Z 0000000180049d80     libcpmt:xthrow.obj
 0004:00000d8c       $pdata$??_Gbad_alloc@std@@UEAAPEAXI@Z 0000000180049d8c     libcpmt:xthrow.obj
 0004:00000d8c       $pdata$??_Glogic_error@std@@UEAAPEAXI@Z 0000000180049d8c     libcpmt:xthrow.obj
 0004:00000d8c       $pdata$??_Gbad_array_new_length@std@@UEAAPEAXI@Z 0000000180049d8c     LIBCMT:throw_bad_alloc.obj
 0004:00000d8c       $pdata$??_Gbad_exception@std@@UEAAPEAXI@Z 0000000180049d8c     libvcruntime:frame.obj
 0004:00000d8c       $pdata$??_Gexception@std@@UEAAPEAXI@Z 0000000180049d8c     libcpmt:xthrow.obj
 0004:00000d8c       $pdata$??_Glength_error@std@@UEAAPEAXI@Z 0000000180049d8c     libcpmt:xthrow.obj
 0004:00000d98       $pdata$?_Xlength_error@std@@YAXPEBD@Z 0000000180049d98     libcpmt:xthrow.obj
 0004:00000db0       $pdata$??2@YAPEAX_K@Z      0000000180049db0     LIBCMT:new_scalar.obj
 0004:00000dbc       $pdata$__scrt_acquire_startup_lock 0000000180049dbc     LIBCMT:utility.obj
 0004:00000dc8       $pdata$__scrt_dllmain_after_initialize_c 0000000180049dc8     LIBCMT:utility.obj
 0004:00000dd4       $pdata$__scrt_dllmain_before_initialize_c 0000000180049dd4     LIBCMT:utility.obj
 0004:00000de0       $pdata$__scrt_dllmain_crt_thread_attach 0000000180049de0     LIBCMT:utility.obj
 0004:00000dec       $pdata$__scrt_dllmain_crt_thread_detach 0000000180049dec     LIBCMT:utility.obj
 0004:00000df8       $pdata$__scrt_dllmain_exception_filter 0000000180049df8     LIBCMT:utility.obj
 0004:00000e04       $pdata$__scrt_dllmain_uninitialize_c 0000000180049e04     LIBCMT:utility.obj
 0004:00000e10       $pdata$__scrt_dllmain_uninitialize_critical 0000000180049e10     LIBCMT:utility.obj
 0004:00000e1c       $pdata$__scrt_initialize_crt 0000000180049e1c     LIBCMT:utility.obj
 0004:00000e28       $pdata$__scrt_initialize_onexit_tables 0000000180049e28     LIBCMT:utility.obj
 0004:00000e34       $pdata$__scrt_is_nonwritable_in_current_image 0000000180049e34     LIBCMT:utility.obj
 0004:00000e40       $pdata$__scrt_release_startup_lock 0000000180049e40     LIBCMT:utility.obj
 0004:00000e4c       $pdata$__scrt_uninitialize_crt 0000000180049e4c     LIBCMT:utility.obj
 0004:00000e58       $pdata$_onexit             0000000180049e58     LIBCMT:utility.obj
 0004:00000e64       $pdata$atexit              0000000180049e64     LIBCMT:utility.obj
 0004:00000e70       $pdata$?dllmain_crt_dispatch@@YAHQEAUHINSTANCE__@@KQEAX@Z 0000000180049e70     LIBCMT:dll_dllmain.obj
 0004:00000e7c       $pdata$?dllmain_crt_process_attach@@YAHQEAUHINSTANCE__@@QEAX@Z 0000000180049e7c     LIBCMT:dll_dllmain.obj
 0004:00000e88       $pdata$?dllmain_crt_process_detach@@YAH_N@Z 0000000180049e88     LIBCMT:dll_dllmain.obj
 0004:00000e94       $pdata$?dllmain_dispatch@@YAHQEAUHINSTANCE__@@KQEAX@Z 0000000180049e94     LIBCMT:dll_dllmain.obj
 0004:00000ea0       $pdata$_DllMainCRTStartup  0000000180049ea0     LIBCMT:dll_dllmain.obj
 0004:00000eac       $pdata$??_Gtype_info@@UEAAPEAXI@Z 0000000180049eac     LIBCMT:std_type_info_static.obj
 0004:00000eb8       $pdata$__raise_securityfailure 0000000180049eb8     LIBCMT:gs_report.obj
 0004:00000ec4       $pdata$__report_gsfailure  0000000180049ec4     LIBCMT:gs_report.obj
 0004:00000ed0       $pdata$__report_rangecheckfailure 0000000180049ed0     LIBCMT:gs_report.obj
 0004:00000edc       $pdata$__report_securityfailure 0000000180049edc     LIBCMT:gs_report.obj
 0004:00000ee8       $pdata$capture_current_context 0000000180049ee8     LIBCMT:gs_report.obj
 0004:00000ef4       $pdata$capture_previous_context 0000000180049ef4     LIBCMT:gs_report.obj
 0004:00000f00       $pdata$??0bad_array_new_length@std@@QEAA@AEBV01@@Z 0000000180049f00     LIBCMT:throw_bad_alloc.obj
 0004:00000f0c       $pdata$?__scrt_throw_std_bad_alloc@@YAXXZ 0000000180049f0c     LIBCMT:throw_bad_alloc.obj
 0004:00000f18       $pdata$?__scrt_throw_std_bad_array_new_length@@YAXXZ 0000000180049f18     LIBCMT:throw_bad_alloc.obj
 0004:00000f24       $pdata$__isa_available_init 0000000180049f24     LIBCMT:_cpu_disp_.obj
 0004:00000f30       $pdata$__scrt_fastfail     0000000180049f30     LIBCMT:utility_desktop.obj
 0004:00000f3c       $pdata$__security_init_cookie 0000000180049f3c     LIBCMT:gs_support.obj
 0004:00000f48       $pdata$__scrt_initialize_default_local_stdio_options 0000000180049f48     LIBCMT:default_local_stdio_options.obj
 0004:00000f54       $pdata$_RTC_Initialize     0000000180049f54     LIBCMT:_initsect_.obj
 0004:00000f60       $pdata$_RTC_Terminate      0000000180049f60     LIBCMT:_initsect_.obj
 0004:00000f6c       $pdata$?_ExecutionInCatch@@YAHPEAU_xDISPATCHER_CONTEXT@@PEBU_s_FuncInfo@@@Z 0000000180049f6c     libvcruntime:risctrnsctrl.obj
 0004:00000f78       $pdata$?_GetEstablisherFrame@@YAPEA_KPEA_KPEAU_xDISPATCHER_CONTEXT@@PEBU_s_FuncInfo@@0@Z 0000000180049f78     libvcruntime:risctrnsctrl.obj
 0004:00000f84       $pdata$?_GetRangeOfTrysToCheck@@YAPEBU_s_TryBlockMapEntry@@PEA_KPEBU_s_FuncInfo@@HHPEAI2PEAU_xDISPATCHER_CONTEXT@@@Z 0000000180049f84     libvcruntime:risctrnsctrl.obj
 0004:00000f90       $pdata$?__FrameUnwindToEmptyState@@YAXPEA_KPEAU_xDISPATCHER_CONTEXT@@PEBU_s_FuncInfo@@@Z 0000000180049f90     libvcruntime:risctrnsctrl.obj
 0004:00000f9c       $pdata$_CallSETranslator   0000000180049f9c     libvcruntime:risctrnsctrl.obj
 0004:00000fa8       $pdata$_CreateFrameInfo    0000000180049fa8     libvcruntime:risctrnsctrl.obj
 0004:00000fb4       $pdata$_FindAndUnlinkFrame 0000000180049fb4     libvcruntime:risctrnsctrl.obj
 0004:00000fc0       $pdata$_GetImageBase       0000000180049fc0     libvcruntime:risctrnsctrl.obj
 0004:00000fcc       $pdata$_GetThrowImageBase  0000000180049fcc     libvcruntime:risctrnsctrl.obj
 0004:00000fd8       $pdata$_SetImageBase       0000000180049fd8     libvcruntime:risctrnsctrl.obj
 0004:00000fe4       $pdata$_SetThrowImageBase  0000000180049fe4     libvcruntime:risctrnsctrl.obj
 0004:00000ff0       $pdata$_UnwindNestedFrames 0000000180049ff0     libvcruntime:risctrnsctrl.obj
 0004:00000ffc       $pdata$__CxxFrameHandler3  0000000180049ffc     libvcruntime:risctrnsctrl.obj
 0004:00001008       $pdata$longjmp             000000018004a008     libvcruntime:longjmpc.obj
 0004:00001014       $pdata$__DestructExceptionObject 000000018004a014     libvcruntime:ehhelpers.obj
 0004:00001020       $pdata$_IsExceptionObjectToBeDestroyed 000000018004a020     libvcruntime:ehhelpers.obj
 0004:0000102c       $pdata$__FrameUnwindFilter 000000018004a02c     libvcruntime:ehhelpers.obj
 0004:00001038       $pdata$__std_terminate     000000018004a038     libvcruntime:ehhelpers.obj
 0004:00001044       $pdata$strstr              000000018004a044     libvcruntime:strstr.obj
 0004:00001050       $pdata$__std_exception_copy 000000018004a050     libvcruntime:std_exception.obj
 0004:0000105c       $pdata$__std_exception_destroy 000000018004a05c     libvcruntime:std_exception.obj
 0004:00001068       $pdata$_CxxThrowException  000000018004a068     libvcruntime:throw.obj
 0004:00001074       $pdata$__vcrt_initialize   000000018004a074     libvcruntime:initialization.obj
 0004:00001080       $pdata$__vcrt_thread_attach 000000018004a080     libvcruntime:initialization.obj
 0004:0000108c       $pdata$__vcrt_thread_detach 000000018004a08c     libvcruntime:initialization.obj
 0004:00001098       $pdata$__vcrt_uninitialize 000000018004a098     libvcruntime:initialization.obj
 0004:000010a4       $pdata$__vcrt_uninitialize_critical 000000018004a0a4     libvcruntime:initialization.obj
 0004:000010b0       $pdata$__C_specific_handler 000000018004a0b0     libvcruntime:_riscchandler_.obj
 0004:000010c8       $pdata$__std_type_info_destroy_list 000000018004a0c8     libvcruntime:std_type_info.obj
 0004:000010d4       $pdata$__vcrt_freefls      000000018004a0d4     libvcruntime:per_thread_data.obj
 0004:000010e0       $pdata$__vcrt_freeptd      000000018004a0e0     libvcruntime:per_thread_data.obj
 0004:000010ec       $pdata$__vcrt_getptd       000000018004a0ec     libvcruntime:per_thread_data.obj
 0004:000010f8       $pdata$__vcrt_getptd_noexit 000000018004a0f8     libvcruntime:per_thread_data.obj
 0004:00001104       $pdata$__vcrt_initialize_ptd 000000018004a104     libvcruntime:per_thread_data.obj
 0004:00001110       $pdata$__vcrt_uninitialize_ptd 000000018004a110     libvcruntime:per_thread_data.obj
 0004:0000111c       $pdata$?__GetCurrentState@@YAHPEA_KPEAU_xDISPATCHER_CONTEXT@@PEBU_s_FuncInfo@@@Z 000000018004a11c     libvcruntime:riscehstate.obj
 0004:00001128       $pdata$?__GetUnwindTryBlock@@YAHPEA_KPEAU_xDISPATCHER_CONTEXT@@PEBU_s_FuncInfo@@@Z 000000018004a128     libvcruntime:riscehstate.obj
 0004:00001134       $pdata$?__SetUnwindTryBlock@@YAXPEA_KPEAU_xDISPATCHER_CONTEXT@@PEBU_s_FuncInfo@@H@Z 000000018004a134     libvcruntime:riscehstate.obj
 0004:00001140       $pdata$?__StateFromIp@@YAHPEBU_s_FuncInfo@@PEAU_xDISPATCHER_CONTEXT@@_K@Z 000000018004a140     libvcruntime:riscehstate.obj
 0004:0000114c       $pdata$??0bad_exception@std@@QEAA@AEBV01@@Z 000000018004a14c     libvcruntime:frame.obj
 0004:00001158       $pdata$?CatchIt@@YAXPEAUEHExceptionRecord@@PEA_KPEAU_CONTEXT@@PEAU_xDISPATCHER_CONTEXT@@PEBU_s_FuncInfo@@PEBU_s_HandlerType@@PEBU_s_CatchableType@@PEBU_s_TryBlockMapEntry@@H1EE@Z 000000018004a158     libvcruntime:frame.obj
 0004:00001164       $pdata$?ExFilterRethrow@@YAHPEAU_EXCEPTION_POINTERS@@PEAUEHExceptionRecord@@PEAH@Z 000000018004a164     libvcruntime:frame.obj
 0004:00001170       $pdata$?FindHandler@@YAXPEAUEHExceptionRecord@@PEA_KPEAU_CONTEXT@@PEAU_xDISPATCHER_CONTEXT@@PEBU_s_FuncInfo@@EH1@Z 000000018004a170     libvcruntime:frame.obj
 0004:0000117c       $pdata$?FindHandlerForForeignException@@YAXPEAUEHExceptionRecord@@PEA_KPEAU_CONTEXT@@PEAU_xDISPATCHER_CONTEXT@@PEBU_s_FuncInfo@@HH1@Z 000000018004a17c     libvcruntime:frame.obj
 0004:00001188       $pdata$?IsInExceptionSpec@@YAEPEAUEHExceptionRecord@@PEBU_s_ESTypeList@@@Z 000000018004a188     libvcruntime:frame.obj
 0004:00001194       $pdata$__BuildCatchObject  000000018004a194     libvcruntime:frame.obj
 0004:000011a0       $pdata$__BuildCatchObjectHelper 000000018004a1a0     libvcruntime:frame.obj
 0004:000011ac       $pdata$__CxxCallCatchBlock 000000018004a1ac     libvcruntime:frame.obj
 0004:000011b8       $pdata$__FrameUnwindToState 000000018004a1b8     libvcruntime:frame.obj
 0004:000011c4       $pdata$__InternalCxxFrameHandler 000000018004a1c4     libvcruntime:frame.obj
 0004:000011d0       $pdata$__TypeMatch         000000018004a1d0     libvcruntime:frame.obj
 0004:000011dc       $pdata$__vcrt_initialize_locks 000000018004a1dc     libvcruntime:locks.obj
 0004:000011e8       $pdata$__vcrt_uninitialize_locks 000000018004a1e8     libvcruntime:locks.obj
 0004:000011f4       $pdata$?try_get_function@@YAPEAXW4function_id@?A0xbfbae6a7@@QEBDQEBW4module_id@2@2@Z 000000018004a1f4     libvcruntime:winapi_downlevel.obj
 0004:00001200       $pdata$__vcrt_FlsAlloc     000000018004a200     libvcruntime:winapi_downlevel.obj
 0004:0000120c       $pdata$__vcrt_FlsFree      000000018004a20c     libvcruntime:winapi_downlevel.obj
 0004:00001218       $pdata$__vcrt_FlsGetValue  000000018004a218     libvcruntime:winapi_downlevel.obj
 0004:00001224       $pdata$__vcrt_FlsSetValue  000000018004a224     libvcruntime:winapi_downlevel.obj
 0004:00001230       $pdata$__vcrt_InitializeCriticalSectionEx 000000018004a230     libvcruntime:winapi_downlevel.obj
 0004:0000123c       $pdata$__vcrt_initialize_winapi_thunks 000000018004a23c     libvcruntime:winapi_downlevel.obj
 0004:00001248       $pdata$__vcrt_uninitialize_winapi_thunks 000000018004a248     libvcruntime:winapi_downlevel.obj
 0004:0000129c       $pdata$??$common_assert_to_message_box@_W@@YAXQEB_W0IQEAX@Z 000000018004a29c     libucrt:assert.obj
 0004:000012a8       $pdata$??$common_assert_to_message_box_build_string@_W@@YAXQEA_W_KQEB_W2IQEAX@Z 000000018004a2a8     libucrt:assert.obj
 0004:000012b4       $pdata$??$common_assert_to_stderr@_W@@YAXQEB_W0I@Z 000000018004a2b4     libucrt:assert.obj
 0004:000012c0       $pdata$_wassert            000000018004a2c0     libucrt:assert.obj
 0004:000012cc       $pdata$fwprintf            000000018004a2cc     libucrt:assert.obj
 0004:000012d8       $pdata$swprintf            000000018004a2d8     libucrt:assert.obj
 0004:000012e4       $pdata$__acrt_call_reportfault 000000018004a2e4     libucrt:invalid_parameter.obj
 0004:000012f0       $pdata$_invalid_parameter  000000018004a2f0     libucrt:invalid_parameter.obj
 0004:000012fc       $pdata$_invalid_parameter_noinfo 000000018004a2fc     libucrt:invalid_parameter.obj
 0004:00001308       $pdata$_invalid_parameter_noinfo_noreturn 000000018004a308     libucrt:invalid_parameter.obj
 0004:00001314       $pdata$_invoke_watson      000000018004a314     libucrt:invalid_parameter.obj
 0004:00001320       $pdata$__acrt_initialize_stdio 000000018004a320     libucrt:_file.obj
 0004:0000132c       $pdata$__acrt_uninitialize_stdio 000000018004a32c     libucrt:_file.obj
 0004:00001338       $pdata$??$?RV<lambda_0d412022a4b28cc8a401ea49574e8ae6>@@AEAV<lambda_a775ed57af18ba8e4d5dc780aa9068fe>@@V<lambda_975a71a6baa488a08f4e15f6b0339b9e>@@@?$__crt_seh_guarded_call@H@@QEAAH$$QEAV<lambda_0d412022a4b28cc8a401ea49574e8ae6>@@AEAV<lambda_a775ed57af18ba8e4d5dc780aa9068fe>@@$$QEAV<lambda_975a71a6baa488a08f4e15f6b0339b9e>@@@Z 000000018004a338     libucrt:output.obj
 0004:00001344       $pdata$??$common_vsprintf@Vstandard_base@__crt_stdio_output@@D@@YAH_KQEAD0QEBDQEAU__crt_locale_pointers@@1@Z 000000018004a344     libucrt:output.obj
 0004:00001350       $pdata$??$common_vsprintf@Vstandard_base@__crt_stdio_output@@_W@@YAH_KQEA_W0QEB_WQEAU__crt_locale_pointers@@QEAD@Z 000000018004a350     libucrt:output.obj
 0004:0000135c       $pdata$??$ensure_buffer_is_big_enough@D@formatting_buffer@__crt_stdio_output@@QEAA_N_K@Z 000000018004a35c     libucrt:output.obj
 0004:00001368       $pdata$??$ensure_buffer_is_big_enough@_W@formatting_buffer@__crt_stdio_output@@QEAA_N_K@Z 000000018004a368     libucrt:output.obj
 0004:00001374       $pdata$??$type_case_integer_parse_into_buffer@I@?$output_processor@DV?$string_output_adapter@D@__crt_stdio_output@@V?$standard_base@DV?$string_output_adapter@D@__crt_stdio_output@@@2@@__crt_stdio_output@@AEAAXII_N@Z 000000018004a374     libucrt:output.obj
 0004:00001380       $pdata$??$type_case_integer_parse_into_buffer@I@?$output_processor@_WV?$stream_output_adapter@_W@__crt_stdio_output@@V?$standard_base@_WV?$stream_output_adapter@_W@__crt_stdio_output@@@2@@__crt_stdio_output@@AEAAXII_N@Z 000000018004a380     libucrt:output.obj
 0004:00001380       $pdata$??$type_case_integer_parse_into_buffer@I@?$output_processor@_WV?$string_output_adapter@_W@__crt_stdio_output@@V?$standard_base@_WV?$string_output_adapter@_W@__crt_stdio_output@@@2@@__crt_stdio_output@@AEAAXII_N@Z 000000018004a380     libucrt:output.obj
 0004:0000138c       $pdata$??$type_case_integer_parse_into_buffer@_K@?$output_processor@DV?$string_output_adapter@D@__crt_stdio_output@@V?$standard_base@DV?$string_output_adapter@D@__crt_stdio_output@@@2@@__crt_stdio_output@@AEAAX_KI_N@Z 000000018004a38c     libucrt:output.obj
 0004:00001398       $pdata$??$type_case_integer_parse_into_buffer@_K@?$output_processor@_WV?$stream_output_adapter@_W@__crt_stdio_output@@V?$standard_base@_WV?$stream_output_adapter@_W@__crt_stdio_output@@@2@@__crt_stdio_output@@AEAAX_KI_N@Z 000000018004a398     libucrt:output.obj
 0004:00001398       $pdata$??$type_case_integer_parse_into_buffer@_K@?$output_processor@_WV?$string_output_adapter@_W@__crt_stdio_output@@V?$standard_base@_WV?$string_output_adapter@_W@__crt_stdio_output@@@2@@__crt_stdio_output@@AEAAX_KI_N@Z 000000018004a398     libucrt:output.obj
 0004:000013a4       $pdata$??$write_multiple_characters@V?$stream_output_adapter@_W@__crt_stdio_output@@D@__crt_stdio_output@@YAXAEBV?$stream_output_adapter@_W@0@DHQEAH@Z 000000018004a3a4     libucrt:output.obj
 0004:000013b0       $pdata$??$write_multiple_characters@V?$string_output_adapter@D@__crt_stdio_output@@D@__crt_stdio_output@@YAXAEBV?$string_output_adapter@D@0@DHQEAH@Z 000000018004a3b0     libucrt:output.obj
 0004:000013bc       $pdata$??$write_multiple_characters@V?$string_output_adapter@_W@__crt_stdio_output@@D@__crt_stdio_output@@YAXAEBV?$string_output_adapter@_W@0@DHQEAH@Z 000000018004a3bc     libucrt:output.obj
 0004:000013c8       $pdata$??0_LocaleUpdate@@QEAA@QEAU__crt_locale_pointers@@@Z 000000018004a3c8     libucrt:output.obj
 0004:000013d4       $pdata$??R<lambda_a775ed57af18ba8e4d5dc780aa9068fe>@@QEBAHXZ 000000018004a3d4     libucrt:output.obj
 0004:000013e0       $pdata$?force_decimal_point@__crt_stdio_output@@YAXPEADQEAU__crt_locale_pointers@@@Z 000000018004a3e0     libucrt:output.obj
 0004:000013ec       $pdata$?parse_int_from_format_string@?$output_processor@DV?$string_output_adapter@D@__crt_stdio_output@@V?$standard_base@DV?$string_output_adapter@D@__crt_stdio_output@@@2@@__crt_stdio_output@@AEAA_NQEAH@Z 000000018004a3ec     libucrt:output.obj
 0004:000013f8       $pdata$?parse_int_from_format_string@?$output_processor@_WV?$string_output_adapter@_W@__crt_stdio_output@@V?$standard_base@_WV?$string_output_adapter@_W@__crt_stdio_output@@@2@@__crt_stdio_output@@AEAA_NQEAH@Z 000000018004a3f8     libucrt:output.obj
 0004:000013f8       $pdata$?parse_int_from_format_string@?$output_processor@_WV?$stream_output_adapter@_W@__crt_stdio_output@@V?$standard_base@_WV?$stream_output_adapter@_W@__crt_stdio_output@@@2@@__crt_stdio_output@@AEAA_NQEAH@Z 000000018004a3f8     libucrt:output.obj
 0004:00001404       $pdata$?process@?$output_processor@DV?$string_output_adapter@D@__crt_stdio_output@@V?$standard_base@DV?$string_output_adapter@D@__crt_stdio_output@@@2@@__crt_stdio_output@@QEAAHXZ 000000018004a404     libucrt:output.obj
 0004:00001410       $pdata$?process@?$output_processor@_WV?$stream_output_adapter@_W@__crt_stdio_output@@V?$standard_base@_WV?$stream_output_adapter@_W@__crt_stdio_output@@@2@@__crt_stdio_output@@QEAAHXZ 000000018004a410     libucrt:output.obj
 0004:0000141c       $pdata$?process@?$output_processor@_WV?$string_output_adapter@_W@__crt_stdio_output@@V?$standard_base@_WV?$string_output_adapter@_W@__crt_stdio_output@@@2@@__crt_stdio_output@@QEAAHXZ 000000018004a41c     libucrt:output.obj
 0004:00001428       $pdata$?state_case_normal@?$output_processor@DV?$string_output_adapter@D@__crt_stdio_output@@V?$standard_base@DV?$string_output_adapter@D@__crt_stdio_output@@@2@@__crt_stdio_output@@AEAA_NXZ 000000018004a428     libucrt:output.obj
 0004:00001434       $pdata$?state_case_normal_tchar@?$output_processor@DV?$string_output_adapter@D@__crt_stdio_output@@V?$standard_base@DV?$string_output_adapter@D@__crt_stdio_output@@@2@@__crt_stdio_output@@AEAA_ND@Z 000000018004a434     libucrt:output.obj
 0004:00001440       $pdata$?state_case_size@?$output_processor@DV?$string_output_adapter@D@__crt_stdio_output@@V?$standard_base@DV?$string_output_adapter@D@__crt_stdio_output@@@2@@__crt_stdio_output@@AEAA_NXZ 000000018004a440     libucrt:output.obj
 0004:0000144c       $pdata$?state_case_size@?$output_processor@_WV?$stream_output_adapter@_W@__crt_stdio_output@@V?$standard_base@_WV?$stream_output_adapter@_W@__crt_stdio_output@@@2@@__crt_stdio_output@@AEAA_NXZ 000000018004a44c     libucrt:output.obj
 0004:00001458       $pdata$?state_case_size@?$output_processor@_WV?$string_output_adapter@_W@__crt_stdio_output@@V?$standard_base@_WV?$string_output_adapter@_W@__crt_stdio_output@@@2@@__crt_stdio_output@@AEAA_NXZ 000000018004a458     libucrt:output.obj
 0004:00001464       $pdata$?state_case_type@?$output_processor@DV?$string_output_adapter@D@__crt_stdio_output@@V?$standard_base@DV?$string_output_adapter@D@__crt_stdio_output@@@2@@__crt_stdio_output@@AEAA_NXZ 000000018004a464     libucrt:output.obj
 0004:00001470       $pdata$?state_case_type@?$output_processor@_WV?$stream_output_adapter@_W@__crt_stdio_output@@V?$standard_base@_WV?$stream_output_adapter@_W@__crt_stdio_output@@@2@@__crt_stdio_output@@AEAA_NXZ 000000018004a470     libucrt:output.obj
 0004:0000147c       $pdata$?state_case_type@?$output_processor@_WV?$string_output_adapter@_W@__crt_stdio_output@@V?$standard_base@_WV?$string_output_adapter@_W@__crt_stdio_output@@@2@@__crt_stdio_output@@AEAA_NXZ 000000018004a47c     libucrt:output.obj
 0004:00001488       $pdata$?type_case_Z@?$output_processor@_WV?$stream_output_adapter@_W@__crt_stdio_output@@V?$standard_base@_WV?$stream_output_adapter@_W@__crt_stdio_output@@@2@@__crt_stdio_output@@AEAA_NXZ 000000018004a488     libucrt:output.obj
 0004:00001488       $pdata$?type_case_Z@?$output_processor@_WV?$string_output_adapter@_W@__crt_stdio_output@@V?$standard_base@_WV?$string_output_adapter@_W@__crt_stdio_output@@@2@@__crt_stdio_output@@AEAA_NXZ 000000018004a488     libucrt:output.obj
 0004:00001494       $pdata$?type_case_a@?$output_processor@DV?$string_output_adapter@D@__crt_stdio_output@@V?$standard_base@DV?$string_output_adapter@D@__crt_stdio_output@@@2@@__crt_stdio_output@@AEAA_NXZ 000000018004a494     libucrt:output.obj
 0004:000014a0       $pdata$?type_case_a@?$output_processor@_WV?$string_output_adapter@_W@__crt_stdio_output@@V?$standard_base@_WV?$string_output_adapter@_W@__crt_stdio_output@@@2@@__crt_stdio_output@@AEAA_NXZ 000000018004a4a0     libucrt:output.obj
 0004:000014a0       $pdata$?type_case_a@?$output_processor@_WV?$stream_output_adapter@_W@__crt_stdio_output@@V?$standard_base@_WV?$stream_output_adapter@_W@__crt_stdio_output@@@2@@__crt_stdio_output@@AEAA_NXZ 000000018004a4a0     libucrt:output.obj
 0004:000014ac       $pdata$?type_case_c_tchar@?$output_processor@DV?$string_output_adapter@D@__crt_stdio_output@@V?$standard_base@DV?$string_output_adapter@D@__crt_stdio_output@@@2@@__crt_stdio_output@@AEAA_ND@Z 000000018004a4ac     libucrt:output.obj
 0004:000014b8       $pdata$?type_case_c_tchar@?$output_processor@_WV?$string_output_adapter@_W@__crt_stdio_output@@V?$standard_base@_WV?$string_output_adapter@_W@__crt_stdio_output@@@2@@__crt_stdio_output@@AEAA_N_W@Z 000000018004a4b8     libucrt:output.obj
 0004:000014b8       $pdata$?type_case_c_tchar@?$output_processor@_WV?$stream_output_adapter@_W@__crt_stdio_output@@V?$standard_base@_WV?$stream_output_adapter@_W@__crt_stdio_output@@@2@@__crt_stdio_output@@AEAA_N_W@Z 000000018004a4b8     libucrt:output.obj
 0004:000014c4       $pdata$?type_case_integer@?$output_processor@DV?$string_output_adapter@D@__crt_stdio_output@@V?$standard_base@DV?$string_output_adapter@D@__crt_stdio_output@@@2@@__crt_stdio_output@@AEAA_NI_N@Z 000000018004a4c4     libucrt:output.obj
 0004:000014d0       $pdata$?type_case_integer@?$output_processor@_WV?$string_output_adapter@_W@__crt_stdio_output@@V?$standard_base@_WV?$string_output_adapter@_W@__crt_stdio_output@@@2@@__crt_stdio_output@@AEAA_NI_N@Z 000000018004a4d0     libucrt:output.obj
 0004:000014d0       $pdata$?type_case_integer@?$output_processor@_WV?$stream_output_adapter@_W@__crt_stdio_output@@V?$standard_base@_WV?$stream_output_adapter@_W@__crt_stdio_output@@@2@@__crt_stdio_output@@AEAA_NI_N@Z 000000018004a4d0     libucrt:output.obj
 0004:000014dc       $pdata$?type_case_n@?$output_processor@DV?$string_output_adapter@D@__crt_stdio_output@@V?$standard_base@DV?$string_output_adapter@D@__crt_stdio_output@@@2@@__crt_stdio_output@@AEAA_NXZ 000000018004a4dc     libucrt:output.obj
 0004:000014dc       $pdata$?type_case_n@?$output_processor@_WV?$stream_output_adapter@_W@__crt_stdio_output@@V?$standard_base@_WV?$stream_output_adapter@_W@__crt_stdio_output@@@2@@__crt_stdio_output@@AEAA_NXZ 000000018004a4dc     libucrt:output.obj
 0004:000014dc       $pdata$?type_case_n@?$output_processor@_WV?$string_output_adapter@_W@__crt_stdio_output@@V?$standard_base@_WV?$string_output_adapter@_W@__crt_stdio_output@@@2@@__crt_stdio_output@@AEAA_NXZ 000000018004a4dc     libucrt:output.obj
 0004:000014e8       $pdata$?type_case_s@?$output_processor@DV?$string_output_adapter@D@__crt_stdio_output@@V?$standard_base@DV?$string_output_adapter@D@__crt_stdio_output@@@2@@__crt_stdio_output@@AEAA_NXZ 000000018004a4e8     libucrt:output.obj
 0004:000014f4       $pdata$?type_case_s@?$output_processor@_WV?$string_output_adapter@_W@__crt_stdio_output@@V?$standard_base@_WV?$string_output_adapter@_W@__crt_stdio_output@@@2@@__crt_stdio_output@@AEAA_NXZ 000000018004a4f4     libucrt:output.obj
 0004:000014f4       $pdata$?type_case_s@?$output_processor@_WV?$stream_output_adapter@_W@__crt_stdio_output@@V?$standard_base@_WV?$stream_output_adapter@_W@__crt_stdio_output@@@2@@__crt_stdio_output@@AEAA_NXZ 000000018004a4f4     libucrt:output.obj
 0004:00001500       $pdata$?write_stored_string_tchar@?$output_processor@DV?$string_output_adapter@D@__crt_stdio_output@@V?$standard_base@DV?$string_output_adapter@D@__crt_stdio_output@@@2@@__crt_stdio_output@@AEAA_ND@Z 000000018004a500     libucrt:output.obj
 0004:0000150c       $pdata$?write_stored_string_tchar@?$output_processor@_WV?$stream_output_adapter@_W@__crt_stdio_output@@V?$standard_base@_WV?$stream_output_adapter@_W@__crt_stdio_output@@@2@@__crt_stdio_output@@AEAA_N_W@Z 000000018004a50c     libucrt:output.obj
 0004:00001518       $pdata$?write_stored_string_tchar@?$output_processor@_WV?$string_output_adapter@_W@__crt_stdio_output@@V?$standard_base@_WV?$string_output_adapter@_W@__crt_stdio_output@@@2@@__crt_stdio_output@@AEAA_N_W@Z 000000018004a518     libucrt:output.obj
 0004:00001524       $pdata$?write_string@?$string_output_adapter@D@__crt_stdio_output@@QEBAXQEBDHQEAHAEAV__crt_deferred_errno_cache@@@Z 000000018004a524     libucrt:output.obj
 0004:00001530       $pdata$?write_string@?$string_output_adapter@_W@__crt_stdio_output@@QEBAXQEB_WHQEAHAEAV__crt_deferred_errno_cache@@@Z 000000018004a530     libucrt:output.obj
 0004:0000153c       $pdata$?write_string_impl@?$output_adapter_common@_WV?$stream_output_adapter@_W@__crt_stdio_output@@@__crt_stdio_output@@IEBAXQEB_WHQEAHAEAV__crt_deferred_errno_cache@@@Z 000000018004a53c     libucrt:output.obj
 0004:00001548       $pdata$__stdio_common_vfwprintf 000000018004a548     libucrt:output.obj
 0004:00001554       $pdata$??$common_ftell@J@@YAJV__crt_stdio_stream@@@Z 000000018004a554     libucrt:ftell.obj
 0004:00001560       $pdata$??$common_ftell_nolock@_J@@YA_JV__crt_stdio_stream@@@Z 000000018004a560     libucrt:ftell.obj
 0004:0000156c       $pdata$?common_ftell_read_mode_nolock@@YA_JV__crt_stdio_stream@@_J1@Z 000000018004a56c     libucrt:ftell.obj
 0004:00001578       $pdata$?common_ftell_translated_utf8_nolock@@YA_JV__crt_stdio_stream@@_J@Z 000000018004a578     libucrt:ftell.obj
 0004:00001584       $pdata$??$common_fsopen@D@@YAPEAU_iobuf@@QEBD0H@Z 000000018004a584     libucrt:fopen.obj
 0004:00001590       $pdata$_fclose_nolock      000000018004a590     libucrt:fclose.obj
 0004:0000159c       $pdata$fclose              000000018004a59c     libucrt:fclose.obj
 0004:000015a8       $pdata$?common_fseek@@YAHV__crt_stdio_stream@@_JH@Z 000000018004a5a8     libucrt:fseek.obj
 0004:000015b4       $pdata$?common_fseek_binary_mode_read_only_fast_track_nolock@@YA_NV__crt_stdio_stream@@_JH@Z 000000018004a5b4     libucrt:fseek.obj
 0004:000015c0       $pdata$?common_fseek_nolock@@YAHV__crt_stdio_stream@@_JH@Z 000000018004a5c0     libucrt:fseek.obj
 0004:000015cc       $pdata$_fread_nolock_s     000000018004a5cc     libucrt:fread.obj
 0004:000015d8       $pdata$fread               000000018004a5d8     libucrt:fread.obj
 0004:000015e4       $pdata$fread_s             000000018004a5e4     libucrt:fread.obj
 0004:000015f0       $pdata$??$?RV<lambda_3a04bfe258a31910a526c90b4d849d20>@@AEAV<lambda_1b3ad63c02abf531fe15530b52bade31>@@V<lambda_1755787d260f86bf828f8bf7552b2658>@@@?$__crt_seh_guarded_call@H@@QEAAH$$QEAV<lambda_3a04bfe258a31910a526c90b4d849d20>@@AEAV<lambda_1b3ad63c02abf531fe15530b52bade31>@@$$QEAV<lambda_1755787d260f86bf828f8bf7552b2658>@@@Z 000000018004a5f0     libucrt:stat.obj
 0004:000015fc       $pdata$??$common_stat_handle_file_opened@U_stat64i32@@@@YA_NQEB_WHQEAXAEAU_stat64i32@@@Z 000000018004a5fc     libucrt:stat.obj
 0004:00001608       $pdata$??$convert_filetime_to_time_t@_J@@YA_JU_FILETIME@@_J@Z 000000018004a608     libucrt:stat.obj
 0004:00001614       $pdata$?convert_to_stat_mode@@YAGHQEB_W@Z 000000018004a614     libucrt:stat.obj
 0004:00001620       $pdata$?get_drive_number_from_path@@YA_NQEB_WAEAH@Z 000000018004a620     libucrt:stat.obj
 0004:0000162c       $pdata$_fstat64i32         000000018004a62c     libucrt:stat.obj
 0004:00001638       $pdata$_stricmp            000000018004a638     libucrt:stricmp.obj
 0004:00001644       $pdata$_stricmp_l          000000018004a644     libucrt:stricmp.obj
 0004:00001650       $pdata$_callnewh           000000018004a650     libucrt:new_handler.obj
 0004:0000165c       $pdata$_query_new_handler  000000018004a65c     libucrt:new_handler.obj
 0004:00001668       $pdata$_seh_filter_exe     000000018004a668     libucrt:exception_filter.obj
 0004:00001674       $pdata$??$?RV<lambda_d80eeec6fff315bfe5c115232f3240e3>@@AEAV<lambda_6e4b09c48022b2350581041d5f6b0c4c>@@V<lambda_2358e3775559c9db80273638284d5e45>@@@?$__crt_seh_guarded_call@X@@QEAAX$$QEAV<lambda_d80eeec6fff315bfe5c115232f3240e3>@@AEAV<lambda_6e4b09c48022b2350581041d5f6b0c4c>@@$$QEAV<lambda_2358e3775559c9db80273638284d5e45>@@@Z 000000018004a674     libucrt:exit.obj
 0004:00001680       $pdata$??R<lambda_6e4b09c48022b2350581041d5f6b0c4c>@@QEBA@XZ 000000018004a680     libucrt:exit.obj
 0004:0000168c       $pdata$?common_exit@@YAXHW4_crt_exit_cleanup_mode@@W4_crt_exit_return_mode@@@Z 000000018004a68c     libucrt:exit.obj
 0004:00001698       $pdata$?exit_or_terminate_process@@YAXI@Z 000000018004a698     libucrt:exit.obj
 0004:000016a4       $pdata$?try_cor_exit_process@@YAXI@Z 000000018004a6a4     libucrt:exit.obj
 0004:000016b0       $pdata$??$parse_command_line@D@@YAXPEADPEAPEAD0PEA_K2@Z 000000018004a6b0     libucrt:argv_parsing.obj
 0004:000016bc       $pdata$__acrt_allocate_buffer_for_argv 000000018004a6bc     libucrt:argv_parsing.obj
 0004:000016c8       $pdata$_configure_narrow_argv 000000018004a6c8     libucrt:argv_parsing.obj
 0004:000016d4       $pdata$??$common_initialize_environment_nolock@D@@YAHXZ 000000018004a6d4     libucrt:environment_initialization.obj
 0004:000016e0       $pdata$??$create_environment@D@@YAQEAPEADQEAD@Z 000000018004a6e0     libucrt:environment_initialization.obj
 0004:000016ec       $pdata$??$free_environment@_W@@YAXQEAPEA_W@Z 000000018004a6ec     libucrt:environment_initialization.obj
 0004:000016ec       $pdata$??$free_environment@D@@YAXQEAPEAD@Z 000000018004a6ec     libucrt:environment_initialization.obj
 0004:000016f8       $pdata$??$initialize_environment_by_cloning_nolock@D@@YAHXZ 000000018004a6f8     libucrt:environment_initialization.obj
 0004:00001704       $pdata$??$uninitialize_environment_internal@D@@YAXAEAPEAPEAD@Z 000000018004a704     libucrt:environment_initialization.obj
 0004:00001710       $pdata$??$uninitialize_environment_internal@_W@@YAXAEAPEAPEA_W@Z 000000018004a710     libucrt:environment_initialization.obj
 0004:0000171c       $pdata$__dcrt_get_or_create_narrow_environment_nolock 000000018004a71c     libucrt:environment_initialization.obj
 0004:00001728       $pdata$__dcrt_uninitialize_environments_nolock 000000018004a728     libucrt:environment_initialization.obj
 0004:00001734       $pdata$??$?RV<lambda_7777bce6b2f8c936911f934f8298dc43>@@AEAV<lambda_f03950bc5685219e0bcd2087efbe011e>@@V<lambda_3883c3dff614d5e0c5f61bb1ac94921c>@@@?$__crt_seh_guarded_call@H@@QEAAH$$QEAV<lambda_7777bce6b2f8c936911f934f8298dc43>@@AEAV<lambda_f03950bc5685219e0bcd2087efbe011e>@@$$QEAV<lambda_3883c3dff614d5e0c5f61bb1ac94921c>@@@Z 000000018004a734     libucrt:onexit.obj
 0004:00001740       $pdata$??$?RV<lambda_8369fcb7c4df1e85de37618bd2b85f07>@@AEAV<lambda_a10e4b102d4a2c3aac6f4f48bbdf488f>@@V<lambda_5b7707bd6d7a0c4713179f36c7fd995d>@@@?$__crt_seh_guarded_call@H@@QEAAH$$QEAV<lambda_8369fcb7c4df1e85de37618bd2b85f07>@@AEAV<lambda_a10e4b102d4a2c3aac6f4f48bbdf488f>@@$$QEAV<lambda_5b7707bd6d7a0c4713179f36c7fd995d>@@@Z 000000018004a740     libucrt:onexit.obj
 0004:0000174c       $pdata$??R<lambda_a10e4b102d4a2c3aac6f4f48bbdf488f>@@QEBAHXZ 000000018004a74c     libucrt:onexit.obj
 0004:00001758       $pdata$??R<lambda_f03950bc5685219e0bcd2087efbe011e>@@QEBAHXZ 000000018004a758     libucrt:onexit.obj
 0004:00001764       $pdata$_execute_onexit_table 000000018004a764     libucrt:onexit.obj
 0004:00001770       $pdata$_register_onexit_function 000000018004a770     libucrt:onexit.obj
 0004:0000177c       $pdata$initialize_c        000000018004a77c     libucrt:initialization.obj
 0004:00001788       $pdata$uninitialize_environment 000000018004a788     libucrt:initialization.obj
 0004:00001794       $pdata$initialize_pointers 000000018004a794     libucrt:initialization.obj
 0004:000017a0       $pdata$uninitialize_allocated_memory 000000018004a7a0     libucrt:initialization.obj
 0004:000017ac       $pdata$uninitialize_allocated_io_buffers 000000018004a7ac     libucrt:initialization.obj
 0004:000017b8       $pdata$__acrt_thread_attach 000000018004a7b8     libucrt:initialization.obj
 0004:000017c4       $pdata$__acrt_thread_detach 000000018004a7c4     libucrt:initialization.obj
 0004:000017d0       $pdata$__acrt_uninitialize 000000018004a7d0     libucrt:initialization.obj
 0004:000017dc       $pdata$__acrt_uninitialize_critical 000000018004a7dc     libucrt:initialization.obj
 0004:000017e8       $pdata$_initterm           000000018004a7e8     libucrt:initterm.obj
 0004:000017f4       $pdata$_initterm_e         000000018004a7f4     libucrt:initterm.obj
 0004:00001800       $pdata$terminate           000000018004a800     libucrt:terminate.obj
 0004:0000180c       $pdata$_fileno             000000018004a80c     libucrt:fileno.obj
 0004:00001818       $pdata$_strdup             000000018004a818     libucrt:strdup.obj
 0004:00001824       $pdata$strcpy_s            000000018004a824     libucrt:strcpy_s.obj
 0004:00001830       $pdata$_free_base          000000018004a830     libucrt:free_base.obj
 0004:0000183c       $pdata$_malloc_base        000000018004a83c     libucrt:malloc_base.obj
 0004:00001848       $pdata$abort               000000018004a848     libucrt:abort.obj
 0004:00001854       $pdata$_calloc_base        000000018004a854     libucrt:calloc_base.obj
 0004:00001860       $pdata$??$parse_integer@KV?$c_string_character_source@D@__crt_strtox@@@__crt_strtox@@YAKQEAU__crt_locale_pointers@@V?$c_string_character_source@D@0@H_N@Z 000000018004a860     libucrt:atox.obj
 0004:0000186c       $pdata$??$parse_integer@KV?$c_string_character_source@_W@__crt_strtox@@@__crt_strtox@@YAKQEAU__crt_locale_pointers@@V?$c_string_character_source@_W@0@H_N@Z 000000018004a86c     libucrt:atox.obj
 0004:00001878       $pdata$atol                000000018004a878     libucrt:atox.obj
 0004:00001890       $pdata$_realloc_base       000000018004a890     libucrt:realloc_base.obj
 0004:0000189c       $pdata$__acrt_errno_map_os_error 000000018004a89c     libucrt:errno.obj
 0004:000018a8       $pdata$__doserrno          000000018004a8a8     libucrt:errno.obj
 0004:000018b4       $pdata$_errno              000000018004a8b4     libucrt:errno.obj
 0004:000018c0       $pdata$??$common_xtox@K_W@@YAHKQEA_W_KI_N@Z 000000018004a8c0     libucrt:xtoa.obj
 0004:000018cc       $pdata$??$common_xtox_s@K_W@@YAHKQEA_W_KI_N@Z 000000018004a8cc     libucrt:xtoa.obj
 0004:000018d8       $pdata$_itow_s             000000018004a8d8     libucrt:xtoa.obj
 0004:000018e4       $pdata$_set_error_mode     000000018004a8e4     libucrt:set_error_mode.obj
 0004:000018f0       $pdata$wcscat_s            000000018004a8f0     libucrt:wcscat_s.obj
 0004:000018fc       $pdata$wcscpy_s            000000018004a8fc     libucrt:wcscpy_s.obj
 0004:00001908       $pdata$wcsncat_s           000000018004a908     libucrt:wcsncat_s.obj
 0004:00001914       $pdata$__acrt_show_wide_message_box 000000018004a914     libucrt:crtmbox.obj
 0004:00001920       $pdata$??$?RV<lambda_842d9ff0dc9ef11c61343bbaebe7f885>@@AEAV<lambda_c5860995281e5c4ce005b3de8f5874ee>@@V<lambda_d90129c13df834fdcbf8d2b88dafcf2d>@@@?$__crt_seh_guarded_call@X@@QEAAX$$QEAV<lambda_842d9ff0dc9ef11c61343bbaebe7f885>@@AEAV<lambda_c5860995281e5c4ce005b3de8f5874ee>@@$$QEAV<lambda_d90129c13df834fdcbf8d2b88dafcf2d>@@@Z 000000018004a920     libucrt:fflush.obj
 0004:0000192c       $pdata$??$?RV<lambda_886d6c58226a84441f68b9f2b8217b83>@@AEAV<lambda_ab61a845afdef5b7c387490eaf3616ee>@@V<lambda_f7f22ab5edc0698d5f6905b0d3f44752>@@@?$__crt_seh_guarded_call@X@@QEAAX$$QEAV<lambda_886d6c58226a84441f68b9f2b8217b83>@@AEAV<lambda_ab61a845afdef5b7c387490eaf3616ee>@@$$QEAV<lambda_f7f22ab5edc0698d5f6905b0d3f44752>@@@Z 000000018004a92c     libucrt:fflush.obj
 0004:00001938       $pdata$??$?RV<lambda_c376a267cfb53b6959b3b692ec76b120>@@AEAV<lambda_9a32fed5bf61b6b509b2d3f6003082a1>@@V<lambda_572fbb9fa0ab338edf41edfd4b5fcc8d>@@@?$__crt_seh_guarded_call@H@@QEAAH$$QEAV<lambda_c376a267cfb53b6959b3b692ec76b120>@@AEAV<lambda_9a32fed5bf61b6b509b2d3f6003082a1>@@$$QEAV<lambda_572fbb9fa0ab338edf41edfd4b5fcc8d>@@@Z 000000018004a938     libucrt:fflush.obj
 0004:00001944       $pdata$?common_flush_all@@YAH_N@Z 000000018004a944     libucrt:fflush.obj
 0004:00001950       $pdata$__acrt_stdio_flush_nolock 000000018004a950     libucrt:fflush.obj
 0004:0000195c       $pdata$_fflush_nolock      000000018004a95c     libucrt:fflush.obj
 0004:00001968       $pdata$fflush              000000018004a968     libucrt:fflush.obj
 0004:00001974       $pdata$??$?RV<lambda_84ec643ea9557e2f7dc01bb0e9624395>@@AEAV<lambda_ca71763b3c0644891230e4f79ea54fa6>@@V<lambda_439a761618c59b0600e24586724d733b>@@@?$__crt_seh_guarded_call@H@@QEAAH$$QEAV<lambda_84ec643ea9557e2f7dc01bb0e9624395>@@AEAV<lambda_ca71763b3c0644891230e4f79ea54fa6>@@$$QEAV<lambda_439a761618c59b0600e24586724d733b>@@@Z 000000018004a974     libucrt:setvbuf.obj
 0004:00001980       $pdata$??R<lambda_ca71763b3c0644891230e4f79ea54fa6>@@QEBAHXZ 000000018004a980     libucrt:setvbuf.obj
 0004:0000198c       $pdata$setvbuf             000000018004a98c     libucrt:setvbuf.obj
 0004:00001998       $pdata$??$?RV<lambda_450d765d439847d4c735a33c368b5fc0>@@AEAV<lambda_44731a7d0e6d81c3e6aa82d741081786>@@V<lambda_601a2a7da3b7a96e9554ac7215c4b07c>@@@?$__crt_seh_guarded_call@P6AXH@Z@@QEAAP6AXH@Z$$QEAV<lambda_450d765d439847d4c735a33c368b5fc0>@@AEAV<lambda_44731a7d0e6d81c3e6aa82d741081786>@@$$QEAV<lambda_601a2a7da3b7a96e9554ac7215c4b07c>@@@Z 000000018004a998     libucrt:signal.obj
 0004:000019a4       $pdata$__acrt_get_sigabrt_handler 000000018004a9a4     libucrt:signal.obj
 0004:000019b0       $pdata$raise               000000018004a9b0     libucrt:signal.obj
 0004:000019bc       $pdata$_call_matherr       000000018004a9bc     libucrt:libm_error.obj
 0004:000019c8       $pdata$_exception_enabled  000000018004a9c8     libucrt:libm_error.obj
 0004:000019d4       $pdata$_handle_error       000000018004a9d4     libucrt:libm_error.obj
 0004:000019e0       $pdata$_handle_errorf      000000018004a9e0     libucrt:libm_error.obj
 0004:000019ec       $pdata$??$?RV<lambda_0ae27a3a962d80f24befdcbee591983d>@@AEAV<lambda_8d0ee55de4b1038c4002e0adecdf1839>@@V<lambda_dc504788e8f1664fe9b84e20bfb512f2>@@@?$__crt_seh_guarded_call@X@@QEAAX$$QEAV<lambda_0ae27a3a962d80f24befdcbee591983d>@@AEAV<lambda_8d0ee55de4b1038c4002e0adecdf1839>@@$$QEAV<lambda_dc504788e8f1664fe9b84e20bfb512f2>@@@Z 000000018004a9ec     libucrt:per_thread_data.obj
 0004:000019f8       $pdata$??$?RV<lambda_2d41944a1d46af3157314b8a01080d33>@@AEAV<lambda_8f455de75cd7d7f24b4096f044d8b9e6>@@V<lambda_aa500f224e6afead328df44964fe2772>@@@?$__crt_seh_guarded_call@X@@QEAAX$$QEAV<lambda_2d41944a1d46af3157314b8a01080d33>@@AEAV<lambda_8f455de75cd7d7f24b4096f044d8b9e6>@@$$QEAV<lambda_aa500f224e6afead328df44964fe2772>@@@Z 000000018004a9f8     libucrt:per_thread_data.obj
 0004:00001a04       $pdata$??$?RV<lambda_aa87e3671a710a21b5dc78c0bdf72e11>@@AEAV<lambda_92619d2358a28f41a33ba319515a20b9>@@V<lambda_6992ecaafeb10aed2b74cb1fae11a551>@@@?$__crt_seh_guarded_call@X@@QEAAX$$QEAV<lambda_aa87e3671a710a21b5dc78c0bdf72e11>@@AEAV<lambda_92619d2358a28f41a33ba319515a20b9>@@$$QEAV<lambda_6992ecaafeb10aed2b74cb1fae11a551>@@@Z 000000018004aa04     libucrt:per_thread_data.obj
 0004:00001a10       $pdata$??$?RV<lambda_f2e299630e499de9f9a165e60fcd3db5>@@AEAV<lambda_2ae9d31cdba2644fcbeaf08da7c24588>@@V<lambda_40d01ff24d0e7b3814fdbdcee8eab3c7>@@@?$__crt_seh_guarded_call@X@@QEAAX$$QEAV<lambda_f2e299630e499de9f9a165e60fcd3db5>@@AEAV<lambda_2ae9d31cdba2644fcbeaf08da7c24588>@@$$QEAV<lambda_40d01ff24d0e7b3814fdbdcee8eab3c7>@@@Z 000000018004aa10     libucrt:per_thread_data.obj
 0004:00001a1c       $pdata$?construct_ptd_array@@YAXQEAU__acrt_ptd@@@Z 000000018004aa1c     libucrt:per_thread_data.obj
 0004:00001a28       $pdata$?destroy_fls@@YAXPEAX@Z 000000018004aa28     libucrt:per_thread_data.obj
 0004:00001a34       $pdata$?destroy_ptd_array@@YAXQEAU__acrt_ptd@@@Z 000000018004aa34     libucrt:per_thread_data.obj
 0004:00001a40       $pdata$?replace_current_thread_locale_nolock@@YAXQEAU__acrt_ptd@@QEAU__crt_locale_data@@@Z 000000018004aa40     libucrt:per_thread_data.obj
 0004:00001a4c       $pdata$__acrt_freeptd      000000018004aa4c     libucrt:per_thread_data.obj
 0004:00001a58       $pdata$__acrt_getptd       000000018004aa58     libucrt:per_thread_data.obj
 0004:00001a64       $pdata$__acrt_getptd_head  000000018004aa64     libucrt:per_thread_data.obj
 0004:00001a70       $pdata$__acrt_getptd_noexit 000000018004aa70     libucrt:per_thread_data.obj
 0004:00001a7c       $pdata$__acrt_initialize_ptd 000000018004aa7c     libucrt:per_thread_data.obj
 0004:00001a88       $pdata$__acrt_uninitialize_ptd 000000018004aa88     libucrt:per_thread_data.obj
 0004:00001a94       $pdata$?try_get_function@@YAPEAXW4function_id@?A0x391cf84c@@QEBDQEBW4module_id@2@2@Z 000000018004aa94     libucrt:winapi_thunks.obj
 0004:00001aa0       $pdata$__acrt_AppPolicyGetProcessTerminationMethodInternal 000000018004aaa0     libucrt:winapi_thunks.obj
 0004:00001aac       $pdata$__acrt_AppPolicyGetShowDeveloperDiagnosticInternal 000000018004aaac     libucrt:winapi_thunks.obj
 0004:00001ab8       $pdata$__acrt_AppPolicyGetWindowingModelInternal 000000018004aab8     libucrt:winapi_thunks.obj
 0004:00001ac4       $pdata$__acrt_AreFileApisANSI 000000018004aac4     libucrt:winapi_thunks.obj
 0004:00001ad0       $pdata$__acrt_CompareStringEx 000000018004aad0     libucrt:winapi_thunks.obj
 0004:00001adc       $pdata$__acrt_FlsAlloc     000000018004aadc     libucrt:winapi_thunks.obj
 0004:00001ae8       $pdata$__acrt_FlsFree      000000018004aae8     libucrt:winapi_thunks.obj
 0004:00001af4       $pdata$__acrt_FlsGetValue  000000018004aaf4     libucrt:winapi_thunks.obj
 0004:00001b00       $pdata$__acrt_FlsSetValue  000000018004ab00     libucrt:winapi_thunks.obj
 0004:00001b0c       $pdata$__acrt_InitializeCriticalSectionEx 000000018004ab0c     libucrt:winapi_thunks.obj
 0004:00001b18       $pdata$__acrt_LCMapStringEx 000000018004ab18     libucrt:winapi_thunks.obj
 0004:00001b24       $pdata$__acrt_LocaleNameToLCID 000000018004ab24     libucrt:winapi_thunks.obj
 0004:00001b30       $pdata$__acrt_MessageBoxW  000000018004ab30     libucrt:winapi_thunks.obj
 0004:00001b3c       $pdata$__acrt_can_show_message_box 000000018004ab3c     libucrt:winapi_thunks.obj
 0004:00001b48       $pdata$__acrt_get_parent_window 000000018004ab48     libucrt:winapi_thunks.obj
 0004:00001b54       $pdata$__acrt_initialize_winapi_thunks 000000018004ab54     libucrt:winapi_thunks.obj
 0004:00001b60       $pdata$__acrt_is_interactive 000000018004ab60     libucrt:winapi_thunks.obj
 0004:00001b6c       $pdata$__acrt_uninitialize_winapi_thunks 000000018004ab6c     libucrt:winapi_thunks.obj
 0004:00001b78       $pdata$_fcloseall          000000018004ab78     libucrt:closeall.obj
 0004:00001b84       $pdata$__acrt_stdio_free_buffer_nolock 000000018004ab84     libucrt:_freebuf.obj
 0004:00001b90       $pdata$?initialize_inherited_file_handles_nolock@@YAXXZ 000000018004ab90     libucrt:ioinit.obj
 0004:00001b9c       $pdata$?initialize_stdio_handles_nolock@@YAXXZ 000000018004ab9c     libucrt:ioinit.obj
 0004:00001ba8       $pdata$__acrt_initialize_lowio 000000018004aba8     libucrt:ioinit.obj
 0004:00001bb4       $pdata$__acrt_uninitialize_lowio 000000018004abb4     libucrt:ioinit.obj
 0004:00001bc0       $pdata$isdigit             000000018004abc0     libucrt:_ctype.obj
 0004:00001bcc       $pdata$?internal_isupper_l@@YA_NHQEAU__crt_locale_pointers@@@Z 000000018004abcc     libucrt:tolower_toupper.obj
 0004:00001bd8       $pdata$_tolower_l          000000018004abd8     libucrt:tolower_toupper.obj
 0004:00001be4       $pdata$tolower             000000018004abe4     libucrt:tolower_toupper.obj
 0004:00001bf0       $pdata$strtol              000000018004abf0     libucrt:strtox.obj
 0004:00001bfc       $pdata$wcstol              000000018004abfc     libucrt:strtox.obj
 0004:00001c08       $pdata$_mbtowc_l           000000018004ac08     libucrt:mbtowc.obj
 0004:00001c14       $pdata$_wctomb_s_l         000000018004ac14     libucrt:wctomb.obj
 0004:00001c20       $pdata$wctomb_s            000000018004ac20     libucrt:wctomb.obj
 0004:00001c2c       $pdata$__acrt_update_locale_info 000000018004ac2c     libucrt:locale_update.obj
 0004:00001c38       $pdata$__acrt_update_multibyte_info 000000018004ac38     libucrt:locale_update.obj
 0004:00001c44       $pdata$?fp_format_a@@YAHQEBNPEAD_KQEAD2H_NIQEAU__crt_locale_pointers@@@Z 000000018004ac44     libucrt:cvt.obj
 0004:00001c50       $pdata$?fp_format_e@@YAHQEBNQEAD_K12H_NIQEAU__crt_locale_pointers@@@Z 000000018004ac50     libucrt:cvt.obj
 0004:00001c5c       $pdata$?fp_format_e_internal@@YAHQEAD_KH_NIQEAU_strflt@@2QEAU__crt_locale_pointers@@@Z 000000018004ac5c     libucrt:cvt.obj
 0004:00001c68       $pdata$?fp_format_f_internal@@YAHQEAD_KHQEAU_strflt@@_NQEAU__crt_locale_pointers@@@Z 000000018004ac68     libucrt:cvt.obj
 0004:00001c74       $pdata$?fp_format_g@@YAHQEBNQEAD_K12H_NIQEAU__crt_locale_pointers@@@Z 000000018004ac74     libucrt:cvt.obj
 0004:00001c80       $pdata$?fp_format_nan_or_infinity@@YAHW4__acrt_fp_class@@_NPEAD_K1@Z 000000018004ac80     libucrt:cvt.obj
 0004:00001c8c       $pdata$__acrt_fp_format    000000018004ac8c     libucrt:cvt.obj
 0004:00001c98       $pdata$_fputwc_nolock      000000018004ac98     libucrt:fputwc.obj
 0004:00001ca4       $pdata$__acrt_stdio_begin_temporary_buffering_nolock 000000018004aca4     libucrt:_sftbuf.obj
 0004:00001cb0       $pdata$__acrt_stdio_end_temporary_buffering_nolock 000000018004acb0     libucrt:_sftbuf.obj
 0004:00001cbc       $pdata$??$?RV<lambda_410d79af7f07d98d83a3f525b3859a53>@@AEAV<lambda_3e16ef9562a7dcce91392c22ab16ea36>@@V<lambda_38119f0e861e05405d8a144b9b982f0a>@@@?$__crt_seh_guarded_call@X@@QEAAX$$QEAV<lambda_410d79af7f07d98d83a3f525b3859a53>@@AEAV<lambda_3e16ef9562a7dcce91392c22ab16ea36>@@$$QEAV<lambda_38119f0e861e05405d8a144b9b982f0a>@@@Z 000000018004acbc     libucrt:wsetlocale.obj
 0004:00001cc8       $pdata$__acrt_uninitialize_locale 000000018004acc8     libucrt:wsetlocale.obj
 0004:00001cd4       $pdata$??$common_lseek@_J@@YA_JH_JH@Z 000000018004acd4     libucrt:lseek.obj
 0004:00001ce0       $pdata$??$common_lseek_nolock@_J@@YA_JH_JH@Z 000000018004ace0     libucrt:lseek.obj
 0004:00001cec       $pdata$??$translate_text_mode_nolock@D@@YAHHQEAD_K@Z 000000018004acec     libucrt:read.obj
 0004:00001cf8       $pdata$??$translate_text_mode_nolock@_W@@YAHHQEA_W_K@Z 000000018004acf8     libucrt:read.obj
 0004:00001d04       $pdata$?translate_ansi_or_utf8_nolock@@YAHHQEAD_KQEA_W1@Z 000000018004ad04     libucrt:read.obj
 0004:00001d10       $pdata$_read               000000018004ad10     libucrt:read.obj
 0004:00001d1c       $pdata$_read_nolock        000000018004ad1c     libucrt:read.obj
 0004:00001d28       $pdata$?__acrt_stdio_allocate_stream@@YA?AV__crt_stdio_stream@@XZ 000000018004ad28     libucrt:stream.obj
 0004:00001d34       $pdata$?find_or_allocate_unused_stream_nolock@@YA?AV__crt_stdio_stream@@XZ 000000018004ad34     libucrt:stream.obj
 0004:00001d40       $pdata$??$__acrt_stdio_parse_mode@D@@YA?AU__acrt_stdio_stream_mode@@QEBD@Z 000000018004ad40     libucrt:openfile.obj
 0004:00001d4c       $pdata$_openfile           000000018004ad4c     libucrt:openfile.obj
 0004:00001d58       $pdata$??$?RV<lambda_751a882b2c74d4b022dec766aa51a29a>@@AEAV<lambda_628dfdc04ba53c8bfc02c9951375f3f5>@@V<lambda_f6c7be5f7998530c34de24c7437d6b54>@@@?$__crt_seh_guarded_call@H@@QEAAH$$QEAV<lambda_751a882b2c74d4b022dec766aa51a29a>@@AEAV<lambda_628dfdc04ba53c8bfc02c9951375f3f5>@@$$QEAV<lambda_f6c7be5f7998530c34de24c7437d6b54>@@@Z 000000018004ad58     libucrt:close.obj
 0004:00001d64       $pdata$_close              000000018004ad64     libucrt:close.obj
 0004:00001d70       $pdata$_close_nolock       000000018004ad70     libucrt:close.obj
 0004:00001d7c       $pdata$__acrt_stdio_refill_and_read_narrow_nolock 000000018004ad7c     libucrt:_filbuf.obj
 0004:00001d88       $pdata$_getdrive           000000018004ad88     libucrt:drive.obj
 0004:00001d94       $pdata$_wcsicmp            000000018004ad94     libucrt:wcsicmp.obj
 0004:00001da0       $pdata$_wcsicmp_l          000000018004ada0     libucrt:wcsicmp.obj
 0004:00001dac       $pdata$__acrt_copy_path_to_wide_string 000000018004adac     libucrt:string_utilities.obj
 0004:00001db8       $pdata$__acrt_lowio_create_handle_array 000000018004adb8     libucrt:osfinfo.obj
 0004:00001dc4       $pdata$__acrt_lowio_destroy_handle_array 000000018004adc4     libucrt:osfinfo.obj
 0004:00001dd0       $pdata$__acrt_lowio_ensure_fh_exists 000000018004add0     libucrt:osfinfo.obj
 0004:00001ddc       $pdata$__acrt_lowio_set_os_handle 000000018004addc     libucrt:osfinfo.obj
 0004:00001de8       $pdata$_alloc_osfhnd       000000018004ade8     libucrt:osfinfo.obj
 0004:00001df4       $pdata$_free_osfhnd        000000018004adf4     libucrt:osfinfo.obj
 0004:00001e00       $pdata$_get_osfhandle      000000018004ae00     libucrt:osfinfo.obj
 0004:00001e0c       $pdata$??$common_loctotime_t@_J@@YA_JHHHHHHH@Z 000000018004ae0c     libucrt:loctotime.obj
 0004:00001e18       $pdata$__acrt_initialize_locks 000000018004ae18     libucrt:locks.obj
 0004:00001e24       $pdata$__acrt_uninitialize_locks 000000018004ae24     libucrt:locks.obj
 0004:00001e30       $pdata$__acrt_get_developer_information_policy 000000018004ae30     libucrt:win_policies.obj
 0004:00001e3c       $pdata$__acrt_get_process_end_policy 000000018004ae3c     libucrt:win_policies.obj
 0004:00001e48       $pdata$__acrt_get_windowing_model_policy 000000018004ae48     libucrt:win_policies.obj
 0004:00001e54       $pdata$??$common_expand_argv_wildcards@D@@YAHQEAPEADQEAPEAPEAD@Z 000000018004ae54     libucrt:argv_wildcards.obj
 0004:00001e60       $pdata$??$copy_and_add_argument_to_buffer@D@@YAHQEBD0_KAEAV?$argument_list@D@?A0x5f5c8891@@@Z 000000018004ae60     libucrt:argv_wildcards.obj
 0004:00001e6c       $pdata$??$expand_argument_wildcards@D@@YAHQEAD0AEAV?$argument_list@D@?A0x5f5c8891@@@Z 000000018004ae6c     libucrt:argv_wildcards.obj
 0004:00001e78       $pdata$??$?RV<lambda_efdfa57d1f175319df784efa44bb7b81>@@AEAV<lambda_5f0a4c1567f8adc6734073e5d1e1b35c>@@V<lambda_2e8a7d3640ea6ccb4c2413664c2db6fd>@@@?$__crt_seh_guarded_call@X@@QEAAX$$QEAV<lambda_efdfa57d1f175319df784efa44bb7b81>@@AEAV<lambda_5f0a4c1567f8adc6734073e5d1e1b35c>@@$$QEAV<lambda_2e8a7d3640ea6ccb4c2413664c2db6fd>@@@Z 000000018004ae78     libucrt:mbctype.obj
 0004:00001e84       $pdata$?getSystemCP@@YAHH@Z 000000018004ae84     libucrt:mbctype.obj
 0004:00001e90       $pdata$?setSBCS@@YAXPEAU__crt_multibyte_data@@@Z 000000018004ae90     libucrt:mbctype.obj
 0004:00001e9c       $pdata$?setSBUpLow@@YAXPEAU__crt_multibyte_data@@@Z 000000018004ae9c     libucrt:mbctype.obj
 0004:00001ea8       $pdata$?setmbcp_internal@@YAHH_NQEAU__acrt_ptd@@QEAPEAU__crt_multibyte_data@@@Z 000000018004aea8     libucrt:mbctype.obj
 0004:00001eb4       $pdata$?update_thread_multibyte_data_internal@@YAPEAU__crt_multibyte_data@@QEAU__acrt_ptd@@QEAPEAU1@@Z 000000018004aeb4     libucrt:mbctype.obj
 0004:00001ec0       $pdata$__acrt_initialize_multibyte 000000018004aec0     libucrt:mbctype.obj
 0004:00001ecc       $pdata$__acrt_update_thread_multibyte_data 000000018004aecc     libucrt:mbctype.obj
 0004:00001ed8       $pdata$_setmbcp_nolock     000000018004aed8     libucrt:mbctype.obj
 0004:00001ee4       $pdata$?x_ismbbtype_l@@YAHPEAU__crt_locale_pointers@@IHH@Z 000000018004aee4     libucrt:ismbbyte.obj
 0004:00001ef0       $pdata$__acrt_initialize_command_line 000000018004aef0     libucrt:argv_data.obj
 0004:00001efc       $pdata$__dcrt_get_narrow_environment_from_os 000000018004aefc     libucrt:get_environment_from_os.obj
 0004:00001f08       $pdata$??$common_set_variable_in_environment_nolock@D@@YAHQEADH@Z 000000018004af08     libucrt:setenv.obj
 0004:00001f14       $pdata$??$copy_environment@D@@YAPEAPEADQEAPEAD@Z 000000018004af14     libucrt:setenv.obj
 0004:00001f20       $pdata$_recalloc_base      000000018004af20     libucrt:recalloc.obj
 0004:00001f2c       $pdata$__acrt_initialize_heap 000000018004af2c     libucrt:heap_handle.obj
 0004:00001f38       $pdata$__acrt_execute_initializers 000000018004af38     libucrt:shared_initialization.obj
 0004:00001f44       $pdata$__acrt_execute_uninitializers 000000018004af44     libucrt:shared_initialization.obj
 0004:00001f50       $pdata$__pctype_func       000000018004af50     libucrt:ctype.obj
 0004:00001f5c       $pdata$iswctype            000000018004af5c     libucrt:iswctype.obj
 0004:00001f68       $pdata$_isctype_l          000000018004af68     libucrt:isctype.obj
 0004:00001f74       $pdata$??$?RV<lambda_a37b2b86f63e897a80ea819b0eb08c01>@@AEAV<lambda_38ce7e780aa69e748d6df282ebc68efe>@@V<lambda_99fb1378e971ab6e7edea83e3a7a83a2>@@@?$__crt_seh_guarded_call@H@@QEAAH$$QEAV<lambda_a37b2b86f63e897a80ea819b0eb08c01>@@AEAV<lambda_38ce7e780aa69e748d6df282ebc68efe>@@$$QEAV<lambda_99fb1378e971ab6e7edea83e3a7a83a2>@@@Z 000000018004af74     libucrt:commit.obj
 0004:00001f80       $pdata$_commit             000000018004af80     libucrt:commit.obj
 0004:00001f8c       $pdata$?write_double_translated_ansi_nolock@@YA?AUwrite_result@?A0x17268360@@HQEBDI@Z 000000018004af8c     libucrt:write.obj
 0004:00001f98       $pdata$?write_text_ansi_nolock@@YA?AUwrite_result@?A0x17268360@@HQEBDI@Z 000000018004af98     libucrt:write.obj
 0004:00001fa4       $pdata$?write_text_utf16le_nolock@@YA?AUwrite_result@?A0x17268360@@HQEBDI@Z 000000018004afa4     libucrt:write.obj
 0004:00001fb0       $pdata$?write_text_utf8_nolock@@YA?AUwrite_result@?A0x17268360@@HQEBDI@Z 000000018004afb0     libucrt:write.obj
 0004:00001fbc       $pdata$_write              000000018004afbc     libucrt:write.obj
 0004:00001fc8       $pdata$_write_nolock       000000018004afc8     libucrt:write.obj
 0004:00001fd4       $pdata$_raise_exc          000000018004afd4     libucrt:fpexcept.obj
 0004:00001fe0       $pdata$_raise_exc_ex       000000018004afe0     libucrt:fpexcept.obj
 0004:00001fec       $pdata$_raise_excf         000000018004afec     libucrt:fpexcept.obj
 0004:00001ff8       $pdata$_set_errno_from_matherr 000000018004aff8     libucrt:fpexcept.obj
 0004:00002004       $pdata$_clrfp              000000018004b004     libucrt:fpctrl.obj
 0004:00002010       $pdata$_ctrlfp             000000018004b010     libucrt:fpctrl.obj
 0004:0000201c       $pdata$_set_statfp         000000018004b01c     libucrt:fpctrl.obj
 0004:00002028       $pdata$_statfp             000000018004b028     libucrt:fpctrl.obj
 0004:00002034       $pdata$__acrt_free_locale  000000018004b034     libucrt:locale_refcounting.obj
 0004:00002040       $pdata$__acrt_locale_free_lc_time_if_unreferenced 000000018004b040     libucrt:locale_refcounting.obj
 0004:0000204c       $pdata$__acrt_release_locale_ref 000000018004b04c     libucrt:locale_refcounting.obj
 0004:00002058       $pdata$__acrt_update_thread_locale_data 000000018004b058     libucrt:locale_refcounting.obj
 0004:00002064       $pdata$_updatetlocinfoEx_nolock 000000018004b064     libucrt:locale_refcounting.obj
 0004:00002070       $pdata$?GetTableIndexFromLocaleName@@YAHPEB_W@Z 000000018004b070     libucrt:lcidtoname_downlevel.obj
 0004:0000207c       $pdata$__acrt_DownlevelLocaleNameToLCID 000000018004b07c     libucrt:lcidtoname_downlevel.obj
 0004:00002088       $pdata$_isleadbyte_l       000000018004b088     libucrt:_wctype.obj
 0004:00002094       $pdata$?__acrt_LCMapStringA_stat@@YAHPEAU__crt_locale_pointers@@PEB_WKPEBDHPEADHHH@Z 000000018004b094     libucrt:lcmapstringa.obj
 0004:000020a0       $pdata$__acrt_LCMapStringA 000000018004b0a0     libucrt:lcmapstringa.obj
 0004:000020ac       $pdata$___lc_codepage_func 000000018004b0ac     libucrt:initctype.obj
 0004:000020b8       $pdata$__acrt_fp_strflt_to_string 000000018004b0b8     libucrt:_fptostr.obj
 0004:000020c4       $pdata$?divide@__crt_strtox@@YA_KAEAUbig_integer@1@AEBU21@@Z 000000018004b0c4     libucrt:cfout.obj
 0004:000020d0       $pdata$5$?divide@__crt_strtox@@YA_KAEAUbig_integer@1@AEBU21@@Z 000000018004b0d0     libucrt:cfout.obj
 0004:000020dc       $pdata$6$?divide@__crt_strtox@@YA_KAEAUbig_integer@1@AEBU21@@Z 000000018004b0dc     libucrt:cfout.obj
 0004:000020e8       $pdata$__acrt_fltout       000000018004b0e8     libucrt:cfout.obj
 0004:000020f4       $pdata$memcpy_s            000000018004b0f4     libucrt:cfout.obj
 0004:00002100       $pdata$??$write_buffer_nolock@D@@YA_NDV__crt_stdio_stream@@@Z 000000018004b100     libucrt:_flsbuf.obj
 0004:0000210c       $pdata$??$write_buffer_nolock@_W@@YA_N_WV__crt_stdio_stream@@@Z 000000018004b10c     libucrt:_flsbuf.obj
 0004:00002118       $pdata$__acrt_stdio_flush_and_write_narrow_nolock 000000018004b118     libucrt:_flsbuf.obj
 0004:00002124       $pdata$__acrt_stdio_flush_and_write_wide_nolock 000000018004b124     libucrt:_flsbuf.obj
 0004:00002130       $pdata$_isatty             000000018004b130     libucrt:isatty.obj
 0004:0000213c       $pdata$__acrt_locale_free_monetary 000000018004b13c     libucrt:initmon.obj
 0004:00002148       $pdata$__acrt_locale_free_numeric 000000018004b148     libucrt:initnum.obj
 0004:00002154       $pdata$?free_crt_array_internal@@YAXQEAPEBX_K@Z 000000018004b154     libucrt:inittime.obj
 0004:00002160       $pdata$__acrt_locale_free_time 000000018004b160     libucrt:inittime.obj
 0004:0000216c       $pdata$__acrt_GetStringTypeA 000000018004b16c     libucrt:getstringtypea.obj
 0004:00002178       $pdata$__ascii_strnicmp    000000018004b178     libucrt:strnicmp.obj
 0004:00002184       $pdata$_strnicmp           000000018004b184     libucrt:strnicmp.obj
 0004:00002190       $pdata$_strnicmp_l         000000018004b190     libucrt:strnicmp.obj
 0004:0000219c       $pdata$??$common_sopen_dispatch@D@@YAHQEBDHHHQEAHH@Z 000000018004b19c     libucrt:open.obj
 0004:000021a8       $pdata$?configure_text_mode@@YAHHUfile_options@?A0xa9d50aae@@HAEAW4__crt_lowio_text_mode@@@Z 000000018004b1a8     libucrt:open.obj
 0004:000021b4       $pdata$?decode_options@@YA?AUfile_options@?A0xa9d50aae@@HHH@Z 000000018004b1b4     libucrt:open.obj
 0004:000021c0       $pdata$?truncate_ctrl_z_if_present@@YAHH@Z 000000018004b1c0     libucrt:open.obj
 0004:000021cc       $pdata$_sopen_nolock       000000018004b1cc     libucrt:open.obj
 0004:000021d8       $pdata$_sopen_s            000000018004b1d8     libucrt:open.obj
 0004:000021e4       $pdata$_wsopen_nolock      000000018004b1e4     libucrt:open.obj
 0004:000021f0       $pdata$__acrt_stdio_allocate_buffer_nolock 000000018004b1f0     libucrt:_getbuf.obj
 0004:000021fc       $pdata$_towlower_l         000000018004b1fc     libucrt:towlower.obj
 0004:00002208       $pdata$_get_daylight       000000018004b208     libucrt:timeset.obj
 0004:00002214       $pdata$_get_dstbias        000000018004b214     libucrt:timeset.obj
 0004:00002220       $pdata$_get_timezone       000000018004b220     libucrt:timeset.obj
 0004:0000222c       $pdata$?_isindst_nolock@@YAHQEAUtm@@@Z 000000018004b22c     libucrt:tzset.obj
 0004:00002238       $pdata$?cvtdate@@YAXW4transition_type@?A0x7639d0b4@@W4date_type@2@HHHHHHHHH@Z 000000018004b238     libucrt:tzset.obj
 0004:00002244       $pdata$?tzset_from_environment_nolock@@YAXPEAD@Z 000000018004b244     libucrt:tzset.obj
 0004:00002250       $pdata$?tzset_from_system_nolock@@YAXXZ 000000018004b250     libucrt:tzset.obj
 0004:0000225c       $pdata$?tzset_nolock@@YAXXZ 000000018004b25c     libucrt:tzset.obj
 0004:00002268       $pdata$__tzset             000000018004b268     libucrt:tzset.obj
 0004:00002274       $pdata$_isindst            000000018004b274     libucrt:tzset.obj
 0004:00002280       $pdata$qsort               000000018004b280     libucrt:qsort.obj
 0004:0000228c       $pdata$4$qsort             000000018004b28c     libucrt:qsort.obj
 0004:00002298       $pdata$5$qsort             000000018004b298     libucrt:qsort.obj
 0004:000022a4       $pdata$strncpy_s           000000018004b2a4     libucrt:strncpy_s.obj
 0004:000022b0       $pdata$fallbackMethod      000000018004b2b0     libucrt:strpbrk.obj
 0004:000022bc       $pdata$strpbrk             000000018004b2bc     libucrt:strpbrk.obj
 0004:000022c8       $pdata$_mbsdec_l           000000018004b2c8     libucrt:mbsdec.obj
 0004:000022d4       $pdata$?initialize_multibyte@@YAHXZ 000000018004b2d4     libucrt:multibyte_initializer.obj
 0004:000022e0       $pdata$_strnicoll_l        000000018004b2e0     libucrt:strnicol.obj
 0004:000022ec       $pdata$_msize_base         000000018004b2ec     libucrt:msize.obj
 0004:000022f8       $pdata$_putwch_nolock      000000018004b2f8     libucrt:putwch.obj
 0004:00002310       $pdata$fegetenv            000000018004b310     libucrt:fegetenv.obj
 0004:0000231c       $pdata$fesetenv            000000018004b31c     libucrt:fesetenv.obj
 0004:00002328       $pdata$feholdexcept        000000018004b328     libucrt:feholdexcept.obj
 0004:00002340       $pdata$_get_fmode          000000018004b340     libucrt:setmode.obj
 0004:0000234c       $pdata$_setmode_nolock     000000018004b34c     libucrt:setmode.obj
 0004:00002358       $pdata$_chsize_nolock      000000018004b358     libucrt:chsize.obj
 0004:00002364       $pdata$__acrt_LCMapStringW 000000018004b364     libucrt:lcmapstringw.obj
 0004:00002370       $pdata$??$common_getenv_nolock@D@@YAPEADQEBD@Z 000000018004b370     libucrt:getenv.obj
 0004:0000237c       $pdata$??$common_getenv_s@D@@YAHQEA_KQEAD_KQEBD@Z 000000018004b37c     libucrt:getenv.obj
 0004:00002388       $pdata$?InternalCompareStringA@@YAHPEAU__crt_locale_pointers@@PEB_WKPEBDH2HH@Z 000000018004b388     libucrt:comparestringa.obj
 0004:00002394       $pdata$__acrt_CompareStringA 000000018004b394     libucrt:comparestringa.obj
 0004:000023a0       $pdata$__dcrt_lowio_ensure_console_output_initialized 000000018004b3a0     libucrt:initcon.obj
 0004:000023ac       $pdata$__dcrt_terminate_console_output 000000018004b3ac     libucrt:initcon.obj
 0004:000023b8       $pdata$__dcrt_write_console_w 000000018004b3b8     libucrt:initcon.obj
 0004:000023c4       $pdata$__acrt_fenv_set_control 000000018004b3c4     libucrt:_fenvutils.obj
 0004:000023d0       $pdata$_clearfp            000000018004b3d0     libucrt:ieee.obj
 0004:000023dc       $pdata$__acrt_initialize_fma3 000000018004b3dc     libucrt:fma3_available.obj
 0004:000023e8       $pdata$_log10_special      000000018004b3e8     libucrt:log_special.obj
 0004:000023f4       $pdata$_log_special_common 000000018004b3f4     libucrt:log_special.obj
 0004:00002400       $pdata$?DloadAcquireSectionWriteAccess@@YAXXZ 000000018004b400     DelayImp:delayhlp.obj
 0004:0000240c       $pdata$?DloadGetSRWLockFunctionPointers@@YAEXZ 000000018004b40c     DelayImp:delayhlp.obj
 0004:00002418       $pdata$?DloadMakePermanentImageCommit@@YAXPEAX_K@Z 000000018004b418     DelayImp:delayhlp.obj
 0004:00002424       $pdata$?DloadObtainSection@@YAPEAXPEAK0@Z 000000018004b424     DelayImp:delayhlp.obj
 0004:00002430       $pdata$?DloadProtectSection@@YAXKPEAK@Z 000000018004b430     DelayImp:delayhlp.obj
 0004:0000243c       $pdata$?DloadReleaseSectionWriteAccess@@YAXXZ 000000018004b43c     DelayImp:delayhlp.obj
 0004:00002448       $pdata$__delayLoadHelper2  000000018004b448     DelayImp:delayhlp.obj
 0004:00002454       $pdata$__GSHandlerCheck    000000018004b454     LIBCMT:_gshandler_.obj
 0004:00002460       $pdata$__GSHandlerCheckCommon 000000018004b460     LIBCMT:_gshandler_.obj
 0004:0000246c       $pdata$_IsNonwritableInCurrentImage 000000018004b46c     LIBCMT:pesect.obj
 0004:00002484       $pdata$strrchr             000000018004b484     libvcruntime:strrchr.obj
 0004:0000249c       $pdata$strchr              000000018004b49c     libvcruntime:strchr.obj
 0004:000024a8       $pdata$__GSHandlerCheck_EH 000000018004b4a8     LIBCMT:gshandlereh.obj
 0004:000024b4       $pdata$acos                000000018004b4b4     libucrt:acos.obj
 0004:000024c0       $pdata$acosf               000000018004b4c0     libucrt:acosf.obj
 0004:000024cc       $pdata$fmodf               000000018004b4cc     libucrt:fmodf.obj
 0004:000024d8       $pdata$sqrtf               000000018004b4d8     libucrt:sqrtf.obj
 0004:00002508       $pdata$_sincos_special     000000018004b508     libucrt:sincos_special.obj
 0004:000025a4       $pdata$?dtor$2@?0??New@Canvas@@SAXAEBV?$FunctionCallbackInfo@VValue@v8@@@Nan@@@Z@4HA 000000018004b5a4     Canvas.obj
 0004:000025b0       $pdata$?dtor$0@?0??ToBuffer@Canvas@@SAXAEBV?$FunctionCallbackInfo@VValue@v8@@@Nan@@@Z@4HA 000000018004b5b0     Canvas.obj
 0004:000025bc       $pdata$?dtor$0@?0??New@Gradient@@SAXAEBV?$FunctionCallbackInfo@VValue@v8@@@Nan@@@Z@4HA 000000018004b5bc     CanvasGradient.obj
 0004:000025c8       $pdata$?dtor$1@?0??New@Gradient@@SAXAEBV?$FunctionCallbackInfo@VValue@v8@@@Nan@@@Z@4HA 000000018004b5c8     CanvasGradient.obj
 0004:000025d4       $pdata$?dtor$0@?0??SetOnload@Image@@SAXV?$Local@VString@v8@@@v8@@V?$Local@VValue@v8@@@3@AEBV?$PropertyCallbackInfo@X@Nan@@@Z@4HA 000000018004b5d4     Image.obj
 0004:000025d4       $pdata$?dtor$0@?0??SetOnerror@Image@@SAXV?$Local@VString@v8@@@v8@@V?$Local@VValue@v8@@@3@AEBV?$PropertyCallbackInfo@X@Nan@@@Z@4HA 000000018004b5d4     Image.obj
 0004:000025e0       $pdata$__scrt_is_nonwritable_in_current_image$filt$0 000000018004b5e0     LIBCMT:utility.obj
 0004:000025ec       $pdata$?fin$0@?0??dllmain_crt_process_attach@@YAHQEAUHINSTANCE__@@QEAX@Z@4HA 000000018004b5ec     LIBCMT:dll_dllmain.obj
 0004:000025f8       $pdata$?fin$0@?0??dllmain_crt_process_detach@@YAH_N@Z@4HA 000000018004b5f8     LIBCMT:dll_dllmain.obj
 0004:00002604       $pdata$?filt$0@?0??dllmain_dispatch@@YAHQEAUHINSTANCE__@@KQEAX@Z@4HA 000000018004b604     LIBCMT:dll_dllmain.obj
 0004:00002610       $pdata$_CallSETranslator$filt$0 000000018004b610     libvcruntime:risctrnsctrl.obj
 0004:0000261c       $pdata$__DestructExceptionObject$filt$0 000000018004b61c     libvcruntime:ehhelpers.obj
 0004:00002628       $pdata$__CxxCallCatchBlock$filt$0 000000018004b628     libvcruntime:frame.obj
 0004:00002634       $pdata$__CxxCallCatchBlock$fin$1 000000018004b634     libvcruntime:frame.obj
 0004:00002640       $pdata$__FrameUnwindToState$filt$0 000000018004b640     libvcruntime:frame.obj
 0004:0000264c       $pdata$__FrameUnwindToState$fin$1 000000018004b64c     libvcruntime:frame.obj
 0004:00002658       $pdata$?fin$0@?0???$?RV<lambda_c376a267cfb53b6959b3b692ec76b120>@@AEAV<lambda_9a32fed5bf61b6b509b2d3f6003082a1>@@V<lambda_572fbb9fa0ab338edf41edfd4b5fcc8d>@@@?$__crt_seh_guarded_call@H@@QEAAH$$QEAV<lambda_c376a267cfb53b6959b3b692ec76b120>@@AEAV<lambda_9a32fed5bf61b6b509b2d3f6003082a1>@@$$QEAV<lambda_572fbb9fa0ab338edf41edfd4b5fcc8d>@@@Z@4HA 000000018004b658     libucrt:fflush.obj
 0004:00002658       $pdata$?fin$0@?0???$?RV<lambda_0d412022a4b28cc8a401ea49574e8ae6>@@AEAV<lambda_a775ed57af18ba8e4d5dc780aa9068fe>@@V<lambda_975a71a6baa488a08f4e15f6b0339b9e>@@@?$__crt_seh_guarded_call@H@@QEAAH$$QEAV<lambda_0d412022a4b28cc8a401ea49574e8ae6>@@AEAV<lambda_a775ed57af18ba8e4d5dc780aa9068fe>@@$$QEAV<lambda_975a71a6baa488a08f4e15f6b0339b9e>@@@Z@4HA 000000018004b658     libucrt:output.obj
 0004:00002658       $pdata$?fin$0@?0???$?RV<lambda_84ec643ea9557e2f7dc01bb0e9624395>@@AEAV<lambda_ca71763b3c0644891230e4f79ea54fa6>@@V<lambda_439a761618c59b0600e24586724d733b>@@@?$__crt_seh_guarded_call@H@@QEAAH$$QEAV<lambda_84ec643ea9557e2f7dc01bb0e9624395>@@AEAV<lambda_ca71763b3c0644891230e4f79ea54fa6>@@$$QEAV<lambda_439a761618c59b0600e24586724d733b>@@@Z@4HA 000000018004b658     libucrt:setvbuf.obj
 0004:00002658       $pdata$?fin$0@?0???$?RV<lambda_842d9ff0dc9ef11c61343bbaebe7f885>@@AEAV<lambda_c5860995281e5c4ce005b3de8f5874ee>@@V<lambda_d90129c13df834fdcbf8d2b88dafcf2d>@@@?$__crt_seh_guarded_call@X@@QEAAX$$QEAV<lambda_842d9ff0dc9ef11c61343bbaebe7f885>@@AEAV<lambda_c5860995281e5c4ce005b3de8f5874ee>@@$$QEAV<lambda_d90129c13df834fdcbf8d2b88dafcf2d>@@@Z@4HA 000000018004b658     libucrt:fflush.obj
 0004:00002664       $pdata$?fin$0@?0???$common_ftell@J@@YAJV__crt_stdio_stream@@@Z@4HA 000000018004b664     libucrt:ftell.obj
 0004:00002664       $pdata$fclose$fin$0        000000018004b664     libucrt:fclose.obj
 0004:00002664       $pdata$?fin$0@?0??common_fseek@@YAHV__crt_stdio_stream@@_JH@Z@4HA 000000018004b664     libucrt:fseek.obj
 0004:00002670       $pdata$?fin$0@?0???$common_fsopen@D@@YAPEAU_iobuf@@QEBD0H@Z@4HA 000000018004b670     libucrt:fopen.obj
 0004:0000267c       $pdata$fread_s$fin$0       000000018004b67c     libucrt:fread.obj
 0004:00002688       $pdata$?fin$0@?0???$?RV<lambda_3a04bfe258a31910a526c90b4d849d20>@@AEAV<lambda_1b3ad63c02abf531fe15530b52bade31>@@V<lambda_1755787d260f86bf828f8bf7552b2658>@@@?$__crt_seh_guarded_call@H@@QEAAH$$QEAV<lambda_3a04bfe258a31910a526c90b4d849d20>@@AEAV<lambda_1b3ad63c02abf531fe15530b52bade31>@@$$QEAV<lambda_1755787d260f86bf828f8bf7552b2658>@@@Z@4HA 000000018004b688     libucrt:stat.obj
 0004:00002694       $pdata$_query_new_handler$fin$0 000000018004b694     libucrt:new_handler.obj
 0004:000026a0       $pdata$?fin$0@?0???$?RV<lambda_d80eeec6fff315bfe5c115232f3240e3>@@AEAV<lambda_6e4b09c48022b2350581041d5f6b0c4c>@@V<lambda_2358e3775559c9db80273638284d5e45>@@@?$__crt_seh_guarded_call@X@@QEAAX$$QEAV<lambda_d80eeec6fff315bfe5c115232f3240e3>@@AEAV<lambda_6e4b09c48022b2350581041d5f6b0c4c>@@$$QEAV<lambda_2358e3775559c9db80273638284d5e45>@@@Z@4HA 000000018004b6a0     libucrt:exit.obj
 0004:000026a0       $pdata$?fin$0@?0???$?RV<lambda_8369fcb7c4df1e85de37618bd2b85f07>@@AEAV<lambda_a10e4b102d4a2c3aac6f4f48bbdf488f>@@V<lambda_5b7707bd6d7a0c4713179f36c7fd995d>@@@?$__crt_seh_guarded_call@H@@QEAAH$$QEAV<lambda_8369fcb7c4df1e85de37618bd2b85f07>@@AEAV<lambda_a10e4b102d4a2c3aac6f4f48bbdf488f>@@$$QEAV<lambda_5b7707bd6d7a0c4713179f36c7fd995d>@@@Z@4HA 000000018004b6a0     libucrt:onexit.obj
 0004:000026a0       $pdata$?fin$0@?0???$?RV<lambda_2d41944a1d46af3157314b8a01080d33>@@AEAV<lambda_8f455de75cd7d7f24b4096f044d8b9e6>@@V<lambda_aa500f224e6afead328df44964fe2772>@@@?$__crt_seh_guarded_call@X@@QEAAX$$QEAV<lambda_2d41944a1d46af3157314b8a01080d33>@@AEAV<lambda_8f455de75cd7d7f24b4096f044d8b9e6>@@$$QEAV<lambda_aa500f224e6afead328df44964fe2772>@@@Z@4HA 000000018004b6a0     libucrt:per_thread_data.obj
 0004:000026a0       $pdata$?fin$0@?0???$?RV<lambda_efdfa57d1f175319df784efa44bb7b81>@@AEAV<lambda_5f0a4c1567f8adc6734073e5d1e1b35c>@@V<lambda_2e8a7d3640ea6ccb4c2413664c2db6fd>@@@?$__crt_seh_guarded_call@X@@QEAAX$$QEAV<lambda_efdfa57d1f175319df784efa44bb7b81>@@AEAV<lambda_5f0a4c1567f8adc6734073e5d1e1b35c>@@$$QEAV<lambda_2e8a7d3640ea6ccb4c2413664c2db6fd>@@@Z@4HA 000000018004b6a0     libucrt:mbctype.obj
 0004:000026a0       $pdata$?fin$0@?0???$?RV<lambda_f2e299630e499de9f9a165e60fcd3db5>@@AEAV<lambda_2ae9d31cdba2644fcbeaf08da7c24588>@@V<lambda_40d01ff24d0e7b3814fdbdcee8eab3c7>@@@?$__crt_seh_guarded_call@X@@QEAAX$$QEAV<lambda_f2e299630e499de9f9a165e60fcd3db5>@@AEAV<lambda_2ae9d31cdba2644fcbeaf08da7c24588>@@$$QEAV<lambda_40d01ff24d0e7b3814fdbdcee8eab3c7>@@@Z@4HA 000000018004b6a0     libucrt:per_thread_data.obj
 0004:000026a0       $pdata$?fin$0@?0???$?RV<lambda_450d765d439847d4c735a33c368b5fc0>@@AEAV<lambda_44731a7d0e6d81c3e6aa82d741081786>@@V<lambda_601a2a7da3b7a96e9554ac7215c4b07c>@@@?$__crt_seh_guarded_call@P6AXH@Z@@QEAAP6AXH@Z$$QEAV<lambda_450d765d439847d4c735a33c368b5fc0>@@AEAV<lambda_44731a7d0e6d81c3e6aa82d741081786>@@$$QEAV<lambda_601a2a7da3b7a96e9554ac7215c4b07c>@@@Z@4HA 000000018004b6a0     libucrt:signal.obj
 0004:000026a0       $pdata$?fin$0@?0???$?RV<lambda_aa87e3671a710a21b5dc78c0bdf72e11>@@AEAV<lambda_92619d2358a28f41a33ba319515a20b9>@@V<lambda_6992ecaafeb10aed2b74cb1fae11a551>@@@?$__crt_seh_guarded_call@X@@QEAAX$$QEAV<lambda_aa87e3671a710a21b5dc78c0bdf72e11>@@AEAV<lambda_92619d2358a28f41a33ba319515a20b9>@@$$QEAV<lambda_6992ecaafeb10aed2b74cb1fae11a551>@@@Z@4HA 000000018004b6a0     libucrt:per_thread_data.obj
 0004:000026a0       $pdata$?fin$0@?0???$?RV<lambda_0ae27a3a962d80f24befdcbee591983d>@@AEAV<lambda_8d0ee55de4b1038c4002e0adecdf1839>@@V<lambda_dc504788e8f1664fe9b84e20bfb512f2>@@@?$__crt_seh_guarded_call@X@@QEAAX$$QEAV<lambda_0ae27a3a962d80f24befdcbee591983d>@@AEAV<lambda_8d0ee55de4b1038c4002e0adecdf1839>@@$$QEAV<lambda_dc504788e8f1664fe9b84e20bfb512f2>@@@Z@4HA 000000018004b6a0     libucrt:per_thread_data.obj
 0004:000026a0       $pdata$?fin$0@?0???$?RV<lambda_7777bce6b2f8c936911f934f8298dc43>@@AEAV<lambda_f03950bc5685219e0bcd2087efbe011e>@@V<lambda_3883c3dff614d5e0c5f61bb1ac94921c>@@@?$__crt_seh_guarded_call@H@@QEAAH$$QEAV<lambda_7777bce6b2f8c936911f934f8298dc43>@@AEAV<lambda_f03950bc5685219e0bcd2087efbe011e>@@$$QEAV<lambda_3883c3dff614d5e0c5f61bb1ac94921c>@@@Z@4HA 000000018004b6a0     libucrt:onexit.obj
 0004:000026ac       $pdata$?filt$0@?0???R<lambda_6e4b09c48022b2350581041d5f6b0c4c>@@QEBA@XZ@4HA 000000018004b6ac     libucrt:exit.obj
 0004:000026b8       $pdata$?fin$0@?0???$?RV<lambda_886d6c58226a84441f68b9f2b8217b83>@@AEAV<lambda_ab61a845afdef5b7c387490eaf3616ee>@@V<lambda_f7f22ab5edc0698d5f6905b0d3f44752>@@@?$__crt_seh_guarded_call@X@@QEAAX$$QEAV<lambda_886d6c58226a84441f68b9f2b8217b83>@@AEAV<lambda_ab61a845afdef5b7c387490eaf3616ee>@@$$QEAV<lambda_f7f22ab5edc0698d5f6905b0d3f44752>@@@Z@4HA 000000018004b6b8     libucrt:fflush.obj
 0004:000026c4       $pdata$raise$fin$0         000000018004b6c4     libucrt:signal.obj
 0004:000026d0       $pdata$_fcloseall$fin$0    000000018004b6d0     libucrt:closeall.obj
 0004:000026d0       $pdata$?fin$0@?0??__acrt_stdio_allocate_stream@@YA?AV__crt_stdio_stream@@XZ@4HA 000000018004b6d0     libucrt:stream.obj
 0004:000026dc       $pdata$_alloc_osfhnd$fin$0 000000018004b6dc     libucrt:osfinfo.obj
 0004:000026dc       $pdata$__acrt_lowio_ensure_fh_exists$fin$0 000000018004b6dc     libucrt:osfinfo.obj
 0004:000026dc       $pdata$__acrt_initialize_lowio$fin$0 000000018004b6dc     libucrt:ioinit.obj
 0004:000026e8       $pdata$?fin$0@?0???$?RV<lambda_410d79af7f07d98d83a3f525b3859a53>@@AEAV<lambda_3e16ef9562a7dcce91392c22ab16ea36>@@V<lambda_38119f0e861e05405d8a144b9b982f0a>@@@?$__crt_seh_guarded_call@X@@QEAAX$$QEAV<lambda_410d79af7f07d98d83a3f525b3859a53>@@AEAV<lambda_3e16ef9562a7dcce91392c22ab16ea36>@@$$QEAV<lambda_38119f0e861e05405d8a144b9b982f0a>@@@Z@4HA 000000018004b6e8     libucrt:wsetlocale.obj
 0004:000026f4       $pdata$_write$fin$0        000000018004b6f4     libucrt:write.obj
 0004:000026f4       $pdata$?fin$0@?0???$common_lseek@_J@@YA_JH_JH@Z@4HA 000000018004b6f4     libucrt:lseek.obj
 0004:00002700       $pdata$_read$fin$0         000000018004b700     libucrt:read.obj
 0004:0000270c       $pdata$?fin$0@?0???$?RV<lambda_751a882b2c74d4b022dec766aa51a29a>@@AEAV<lambda_628dfdc04ba53c8bfc02c9951375f3f5>@@V<lambda_f6c7be5f7998530c34de24c7437d6b54>@@@?$__crt_seh_guarded_call@H@@QEAAH$$QEAV<lambda_751a882b2c74d4b022dec766aa51a29a>@@AEAV<lambda_628dfdc04ba53c8bfc02c9951375f3f5>@@$$QEAV<lambda_f6c7be5f7998530c34de24c7437d6b54>@@@Z@4HA 000000018004b70c     libucrt:close.obj
 0004:0000270c       $pdata$?fin$0@?0???$?RV<lambda_a37b2b86f63e897a80ea819b0eb08c01>@@AEAV<lambda_38ce7e780aa69e748d6df282ebc68efe>@@V<lambda_99fb1378e971ab6e7edea83e3a7a83a2>@@@?$__crt_seh_guarded_call@H@@QEAAH$$QEAV<lambda_a37b2b86f63e897a80ea819b0eb08c01>@@AEAV<lambda_38ce7e780aa69e748d6df282ebc68efe>@@$$QEAV<lambda_99fb1378e971ab6e7edea83e3a7a83a2>@@@Z@4HA 000000018004b70c     libucrt:commit.obj
 0004:00002718       $pdata$?fin$0@?0??update_thread_multibyte_data_internal@@YAPEAU__crt_multibyte_data@@QEAU__acrt_ptd@@QEAPEAU1@@Z@4HA 000000018004b718     libucrt:mbctype.obj
 0004:00002724       $pdata$_ctrlfp$filt$0      000000018004b724     libucrt:fpctrl.obj
 0004:00002730       $pdata$__acrt_update_thread_locale_data$fin$0 000000018004b730     libucrt:locale_refcounting.obj
 0004:0000273c       $pdata$?fin$0@?0???$common_sopen_dispatch@D@@YAHQEBDHHHQEAHH@Z@4HA 000000018004b73c     libucrt:open.obj
 0004:00002748       $pdata$_isindst$fin$0      000000018004b748     libucrt:tzset.obj
 0004:00002748       $pdata$__tzset$fin$0       000000018004b748     libucrt:tzset.obj
 0004:00002754       $pdata$?fin$0@?0???$common_getenv_s@D@@YAHQEA_KQEAD_KQEBD@Z@4HA 000000018004b754     libucrt:getenv.obj
 0004:00002760       $pdata$_IsNonwritableInCurrentImage$filt$0 000000018004b760     LIBCMT:pesect.obj
 0004:0000276c       $pdata$??__F?constructor@Canvas@@2V?$Persistent@VFunctionTemplate@v8@@V?$NonCopyablePersistentTraits@VFunctionTemplate@v8@@@2@@Nan@@A@@YAXXZ 000000018004b76c     Canvas.obj
 0004:00002778       $pdata$??__F?constructor@Gradient@@2V?$Persistent@VFunctionTemplate@v8@@V?$NonCopyablePersistentTraits@VFunctionTemplate@v8@@@2@@Nan@@A@@YAXXZ 000000018004b778     CanvasGradient.obj
 0004:00002784       $pdata$??__F?constructor@Pattern@@2V?$Persistent@VFunctionTemplate@v8@@V?$NonCopyablePersistentTraits@VFunctionTemplate@v8@@@2@@Nan@@A@@YAXXZ 000000018004b784     CanvasPattern.obj
 0004:00002790       $pdata$??__F?constructor@Context2d@@2V?$Persistent@VFunctionTemplate@v8@@V?$NonCopyablePersistentTraits@VFunctionTemplate@v8@@@2@@Nan@@A@@YAXXZ 000000018004b790     CanvasRenderingContext2d.obj
 0004:0000279c       $pdata$??__F?constructor@Image@@2V?$Persistent@VFunctionTemplate@v8@@V?$NonCopyablePersistentTraits@VFunctionTemplate@v8@@@2@@Nan@@A@@YAXXZ 000000018004b79c     Image.obj
 0004:000027a8       $pdata$??__F?constructor@ImageData@@2V?$Persistent@VFunctionTemplate@v8@@V?$NonCopyablePersistentTraits@VFunctionTemplate@v8@@@2@@Nan@@A@@YAXXZ 000000018004b7a8     ImageData.obj
 0004:000027b4       $pdata$??__F?constructor@FontFace@@2V?$Persistent@VFunctionTemplate@v8@@V?$NonCopyablePersistentTraits@VFunctionTemplate@v8@@@2@@Nan@@A@@YAXXZ 000000018004b7b4     FontFace.obj
 0005:00000060       $R000000                   000000018004c060     * linker generated manifest res *

 Exports

  ordinal    name

        1    _register_canvas_
